---
triple:          'arm64-apple-darwin'
binary-path:     '/Users/humbertoangelplataduran/DEV/ComputerGraphics/FinalProject/app'
relocations:
  - { offsetInCU: 0xAA9, offset: 0xAA9, size: 0x8, addend: 0x0, symName: __ZN3glm6perlinIfLNS_9qualifierE0EEET_RKNS_3vecILi2ES2_XT0_EEE, symObjAddr: 0x7AC, symBinAddr: 0x100031CD0, symSize: 0x560 }
  - { offsetInCU: 0xC31, offset: 0xC31, size: 0x8, addend: 0x0, symName: __ZN3glm9value_ptrIfLNS_9qualifierE0EEEPT_RNS_3matILi4ELi4ES2_XT0_EEE, symObjAddr: 0x17B0, symBinAddr: 0x100032CD4, symSize: 0x28 }
  - { offsetInCU: 0xC70, offset: 0xC70, size: 0x8, addend: 0x0, symName: __ZN3glmmiIfLNS_9qualifierE0EEENS_3vecILi3ET_XT0_EEERKS4_S6_, symObjAddr: 0x2408, symBinAddr: 0x10003392C, symSize: 0x70 }
  - { offsetInCU: 0xCC0, offset: 0xCC0, size: 0x8, addend: 0x0, symName: __ZN3glm5crossIfLNS_9qualifierE0EEENS_3vecILi3ET_XT0_EEERKS4_S6_, symObjAddr: 0x2478, symBinAddr: 0x10003399C, symSize: 0x44 }
  - { offsetInCU: 0xD0D, offset: 0xD0D, size: 0x8, addend: 0x0, symName: __ZN3glm9normalizeILi3EfLNS_9qualifierE0EEENS_3vecIXT_ET0_XT1_EEERKS4_, symObjAddr: 0x24BC, symBinAddr: 0x1000339E0, symSize: 0x3C }
  - { offsetInCU: 0xD56, offset: 0xD56, size: 0x8, addend: 0x0, symName: __ZN3glmplIfLNS_9qualifierE0EEENS_3vecILi4ET_XT0_EEERKS4_S6_, symObjAddr: 0x6464, symBinAddr: 0x100037988, symSize: 0x50 }
  - { offsetInCU: 0xDA6, offset: 0xDA6, size: 0x8, addend: 0x0, symName: __ZN3glm5floorILi4EfLNS_9qualifierE0EEENS_3vecIXT_ET0_XT1_EEERKS4_, symObjAddr: 0x64B4, symBinAddr: 0x1000379D8, symSize: 0x44 }
  - { offsetInCU: 0xDF1, offset: 0xDF1, size: 0x8, addend: 0x0, symName: __ZN3glmmiIfLNS_9qualifierE0EEENS_3vecILi4ET_XT0_EEERKS4_S6_, symObjAddr: 0x6590, symBinAddr: 0x100037AB4, symSize: 0x50 }
  - { offsetInCU: 0xE41, offset: 0xE41, size: 0x8, addend: 0x0, symName: __ZN3glm5fractILi4EfLNS_9qualifierE0EEENS_3vecIXT_ET0_XT1_EEERKS4_, symObjAddr: 0x65E0, symBinAddr: 0x100037B04, symSize: 0x44 }
  - { offsetInCU: 0xE8C, offset: 0xE8C, size: 0x8, addend: 0x0, symName: __ZN3glm3modILi4EfLNS_9qualifierE0EEENS_3vecIXT_ET0_XT1_EEERKS4_S6_, symObjAddr: 0x6624, symBinAddr: 0x100037B48, symSize: 0x4C }
  - { offsetInCU: 0xEEB, offset: 0xEEB, size: 0x8, addend: 0x0, symName: __ZN3glm6detail7permuteIfLNS_9qualifierE0EEENS_3vecILi4ET_XT0_EEERKS5_, symObjAddr: 0x66A4, symBinAddr: 0x100037BC8, symSize: 0x9C }
  - { offsetInCU: 0xF2A, offset: 0xF2A, size: 0x8, addend: 0x0, symName: __ZN3glm6detail13taylorInvSqrtIfLNS_9qualifierE0EEENS_3vecILi4ET_XT0_EEERKS5_, symObjAddr: 0x68C4, symBinAddr: 0x100037DE8, symSize: 0x74 }
  - { offsetInCU: 0xF69, offset: 0xF69, size: 0x8, addend: 0x0, symName: __ZN3glm6detail4fadeIfLNS_9qualifierE0EEENS_3vecILi2ET_XT0_EEERKS5_, symObjAddr: 0x699C, symBinAddr: 0x100037EC0, symSize: 0xC0 }
  - { offsetInCU: 0x11D6, offset: 0x11D6, size: 0x8, addend: 0x0, symName: __ZN3glm6detail6mod289INS_3vecILi4EfLNS_9qualifierE0EEEEET_RKS5_, symObjAddr: 0x71D0, symBinAddr: 0x1000386F4, symSize: 0x10C }
  - { offsetInCU: 0x141B, offset: 0x141B, size: 0x8, addend: 0x0, symName: __ZN3glmmiIfLNS_9qualifierE0EEENS_3vecILi4ET_XT0_EEERKS4_S3_, symObjAddr: 0x6740, symBinAddr: 0x100037C64, symSize: 0x50 }
  - { offsetInCU: 0x146B, offset: 0x146B, size: 0x8, addend: 0x0, symName: __ZN3glmmlIfLNS_9qualifierE0EEENS_3vecILi4ET_XT0_EEES3_RKS4_, symObjAddr: 0x6790, symBinAddr: 0x100037CB4, symSize: 0x50 }
  - { offsetInCU: 0x14BB, offset: 0x14BB, size: 0x8, addend: 0x0, symName: __ZN3glmdvIfLNS_9qualifierE0EEENS_3vecILi4ET_XT0_EEERKS4_S3_, symObjAddr: 0x67E0, symBinAddr: 0x100037D04, symSize: 0x50 }
  - { offsetInCU: 0x150B, offset: 0x150B, size: 0x8, addend: 0x0, symName: __ZN3glm3absILi4EfLNS_9qualifierE0EEENS_3vecIXT_ET0_XT1_EEERKS4_, symObjAddr: 0x6830, symBinAddr: 0x100037D54, symSize: 0x44 }
  - { offsetInCU: 0x1556, offset: 0x1556, size: 0x8, addend: 0x0, symName: __ZN3glmplIfLNS_9qualifierE0EEENS_3vecILi4ET_XT0_EEERKS4_S3_, symObjAddr: 0x6874, symBinAddr: 0x100037D98, symSize: 0x50 }
  - { offsetInCU: 0x15A6, offset: 0x15A6, size: 0x8, addend: 0x0, symName: __ZN3glm3dotILi2EfLNS_9qualifierE0EEET0_RKNS_3vecIXT_ES2_XT1_EEES6_, symObjAddr: 0x6938, symBinAddr: 0x100037E5C, symSize: 0x2C }
  - { offsetInCU: 0x15FD, offset: 0x15FD, size: 0x8, addend: 0x0, symName: __ZN3glm3mixILi2EffLNS_9qualifierE0EEENS_3vecIXT_ET0_XT2_EEERKS4_S6_T1_, symObjAddr: 0x6A5C, symBinAddr: 0x100037F80, symSize: 0x44 }
  - { offsetInCU: 0x166F, offset: 0x166F, size: 0x8, addend: 0x0, symName: __ZN3glm3mixIffEET_S1_S1_T0_, symObjAddr: 0x6AA0, symBinAddr: 0x100037FC4, symSize: 0x34 }
  - { offsetInCU: 0x16CD, offset: 0x16CD, size: 0x8, addend: 0x0, symName: __ZN3glmmlIfLNS_9qualifierE0EEENS_3vecILi4ET_XT0_EEERKS4_S6_, symObjAddr: 0x6F38, symBinAddr: 0x10003845C, symSize: 0x50 }
  - { offsetInCU: 0x171D, offset: 0x171D, size: 0x8, addend: 0x0, symName: __ZN3glmdvIfLNS_9qualifierE0EEENS_3vecILi4ET_XT0_EEERKS4_S6_, symObjAddr: 0x6F88, symBinAddr: 0x1000384AC, symSize: 0x50 }
  - { offsetInCU: 0x176D, offset: 0x176D, size: 0x8, addend: 0x0, symName: __ZN3glmmlIfLNS_9qualifierE0EEENS_3vecILi4ET_XT0_EEERKS4_S3_, symObjAddr: 0x72DC, symBinAddr: 0x100038800, symSize: 0x50 }
  - { offsetInCU: 0x17BD, offset: 0x17BD, size: 0x8, addend: 0x0, symName: __ZN3glm3absIfEET_S1_, symObjAddr: 0x7498, symBinAddr: 0x1000389BC, symSize: 0x24 }
  - { offsetInCU: 0x17F4, offset: 0x17F4, size: 0x8, addend: 0x0, symName: __ZN3glmmiIfLNS_9qualifierE0EEENS_3vecILi4ET_XT0_EEES3_RKS4_, symObjAddr: 0x7560, symBinAddr: 0x100038A84, symSize: 0x5C }
  - { offsetInCU: 0x1844, offset: 0x1844, size: 0x8, addend: 0x0, symName: __ZN3glmmlIfLNS_9qualifierE0EEENS_3vecILi2ET_XT0_EEERKS4_S6_, symObjAddr: 0x75FC, symBinAddr: 0x100038B20, symSize: 0x58 }
  - { offsetInCU: 0x1894, offset: 0x1894, size: 0x8, addend: 0x0, symName: __ZN3glmplIfLNS_9qualifierE0EEENS_3vecILi2ET_XT0_EEERKS4_S3_, symObjAddr: 0x7654, symBinAddr: 0x100038B78, symSize: 0x50 }
  - { offsetInCU: 0x18E4, offset: 0x18E4, size: 0x8, addend: 0x0, symName: __ZN3glmmiIfLNS_9qualifierE0EEENS_3vecILi2ET_XT0_EEERKS4_S3_, symObjAddr: 0x76A4, symBinAddr: 0x100038BC8, symSize: 0x50 }
  - { offsetInCU: 0x1934, offset: 0x1934, size: 0x8, addend: 0x0, symName: __ZN3glmmlIfLNS_9qualifierE0EEENS_3vecILi2ET_XT0_EEERKS4_S3_, symObjAddr: 0x76F4, symBinAddr: 0x100038C18, symSize: 0x50 }
  - { offsetInCU: 0x1984, offset: 0x1984, size: 0x8, addend: 0x0, symName: __ZN3glmplIfLNS_9qualifierE0EEENS_3vecILi2ET_XT0_EEERKS4_S6_, symObjAddr: 0x77DC, symBinAddr: 0x100038D00, symSize: 0x58 }
  - { offsetInCU: 0x19D4, offset: 0x19D4, size: 0x8, addend: 0x0, symName: __ZN3glmmlIfLNS_9qualifierE0EEENS_3vecILi3ET_XT0_EEERKS4_S3_, symObjAddr: 0xA80C, symBinAddr: 0x10003BD30, symSize: 0x64 }
  - { offsetInCU: 0x1A24, offset: 0x1A24, size: 0x8, addend: 0x0, symName: __ZN3glm11inversesqrtIfEET_S1_, symObjAddr: 0xA870, symBinAddr: 0x10003BD94, symSize: 0x30 }
  - { offsetInCU: 0x1A59, offset: 0x1A59, size: 0x8, addend: 0x0, symName: __ZN3glm3dotILi3EfLNS_9qualifierE0EEET0_RKNS_3vecIXT_ES2_XT1_EEES6_, symObjAddr: 0xA8A0, symBinAddr: 0x10003BDC4, symSize: 0x2C }
  - { offsetInCU: 0x1AB0, offset: 0x1AB0, size: 0x8, addend: 0x0, symName: __ZN3glmmlIfLNS_9qualifierE0EEENS_3vecILi3ET_XT0_EEERKS4_S6_, symObjAddr: 0xA930, symBinAddr: 0x10003BE54, symSize: 0x70 }
  - { offsetInCU: 0xAE58, offset: 0xAE58, size: 0x8, addend: 0x0, symName: __ZNSt3__18for_eachB8ue170006INS_11__wrap_iterIPjEEPFvjEEET0_T_S7_S6_, symObjAddr: 0x25EC, symBinAddr: 0x100033B10, symSize: 0x6C }
  - { offsetInCU: 0xAEB2, offset: 0xAEB2, size: 0x8, addend: 0x0, symName: __ZNSt3__112__to_addressB8ue170006INS_6vectorIfNS_9allocatorIfEEEEEEPT_S6_, symObjAddr: 0x3180, symBinAddr: 0x1000346A4, symSize: 0x14 }
  - { offsetInCU: 0xAEE7, offset: 0xAEE7, size: 0x8, addend: 0x0, symName: __ZNSt3__119__libcpp_deallocateB8ue170006EPvmm, symObjAddr: 0x3270, symBinAddr: 0x100034794, symSize: 0x30 }
  - { offsetInCU: 0xAF2F, offset: 0xAF2F, size: 0x8, addend: 0x0, symName: __ZNSt3__127__do_deallocate_handle_sizeB8ue170006IJEEEvPvmDpT_, symObjAddr: 0x32A0, symBinAddr: 0x1000347C4, symSize: 0x28 }
  - { offsetInCU: 0xAF6D, offset: 0xAF6D, size: 0x8, addend: 0x0, symName: __ZNSt3__124__libcpp_operator_deleteB8ue170006IJPvEEEvDpT_, symObjAddr: 0x32C8, symBinAddr: 0x1000347EC, symSize: 0x24 }
  - { offsetInCU: 0xAFA2, offset: 0xAFA2, size: 0x8, addend: 0x0, symName: __ZNSt3__112__to_addressB8ue170006I8VerticesEEPT_S3_, symObjAddr: 0x36FC, symBinAddr: 0x100034C20, symSize: 0x14 }
  - { offsetInCU: 0xAFD7, offset: 0xAFD7, size: 0x8, addend: 0x0, symName: __ZNSt3__112__to_addressB8ue170006IjEEPT_S2_, symObjAddr: 0x3BA4, symBinAddr: 0x1000350C8, symSize: 0x14 }
  - { offsetInCU: 0xB00C, offset: 0xB00C, size: 0x8, addend: 0x0, symName: __ZNSt3__112__to_addressB8ue170006IN3glm3vecILi3EfLNS1_9qualifierE0EEEEEPT_S6_, symObjAddr: 0x4064, symBinAddr: 0x100035588, symSize: 0x14 }
  - { offsetInCU: 0xB041, offset: 0xB041, size: 0x8, addend: 0x0, symName: __ZNSt3__122__make_exception_guardB8ue170006INS_6vectorIfNS_9allocatorIfEEE16__destroy_vectorEEENS_28__exception_guard_exceptionsIT_EES7_, symObjAddr: 0x432C, symBinAddr: 0x100035850, symSize: 0x40 }
  - { offsetInCU: 0xB076, offset: 0xB076, size: 0x8, addend: 0x0, symName: __ZNSt3__119__allocate_at_leastB8ue170006INS_9allocatorIfEEEENS_19__allocation_resultINS_16allocator_traitsIT_E7pointerEEERS5_m, symObjAddr: 0x4718, symBinAddr: 0x100035C3C, symSize: 0x40 }
  - { offsetInCU: 0xB0B9, offset: 0xB0B9, size: 0x8, addend: 0x0, symName: __ZNSt3__13minB8ue170006ImEERKT_S3_S3_, symObjAddr: 0x4854, symBinAddr: 0x100035D78, symSize: 0x2C }
  - { offsetInCU: 0xB2FD, offset: 0xB2FD, size: 0x8, addend: 0x0, symName: __ZNSt3__13minB8ue170006ImNS_6__lessIvvEEEERKT_S5_S5_T0_, symObjAddr: 0x48E0, symBinAddr: 0x100035E04, symSize: 0x54 }
  - { offsetInCU: 0xB39C, offset: 0xB39C, size: 0x8, addend: 0x0, symName: __ZNSt3__120__throw_length_errorB8ue170006EPKc, symObjAddr: 0x49BC, symBinAddr: 0x100035EE0, symSize: 0x64 }
  - { offsetInCU: 0xB3C6, offset: 0xB3C6, size: 0x8, addend: 0x0, symName: __ZNSt3__117__libcpp_allocateB8ue170006Emm, symObjAddr: 0x4B2C, symBinAddr: 0x100036050, symSize: 0x28 }
  - { offsetInCU: 0xB403, offset: 0xB403, size: 0x8, addend: 0x0, symName: __ZNSt3__121__libcpp_operator_newB8ue170006IJmEEEPvDpT_, symObjAddr: 0x4B54, symBinAddr: 0x100036078, symSize: 0x24 }
  - { offsetInCU: 0xB43C, offset: 0xB43C, size: 0x8, addend: 0x0, symName: __ZNSt3__112__to_addressB8ue170006IfEEPT_S2_, symObjAddr: 0x4C70, symBinAddr: 0x100036194, symSize: 0x14 }
  - { offsetInCU: 0xB471, offset: 0xB471, size: 0x8, addend: 0x0, symName: __ZNSt3__122__make_exception_guardB8ue170006INS_6vectorINS1_IfNS_9allocatorIfEEEENS2_IS4_EEE16__destroy_vectorEEENS_28__exception_guard_exceptionsIT_EES9_, symObjAddr: 0x5240, symBinAddr: 0x100036764, symSize: 0x40 }
  - { offsetInCU: 0xB4A6, offset: 0xB4A6, size: 0x8, addend: 0x0, symName: __ZNSt3__119__allocate_at_leastB8ue170006INS_9allocatorINS_6vectorIfNS1_IfEEEEEEEENS_19__allocation_resultINS_16allocator_traitsIT_E7pointerEEERS8_m, symObjAddr: 0x5520, symBinAddr: 0x100036A44, symSize: 0x40 }
  - { offsetInCU: 0xB4E9, offset: 0xB4E9, size: 0x8, addend: 0x0, symName: __ZNSt3__130__uninitialized_allocator_copyB8ue170006INS_9allocatorIfEEPfS3_S3_EET2_RT_T0_T1_S4_, symObjAddr: 0x5B4C, symBinAddr: 0x100037070, symSize: 0x80 }
  - { offsetInCU: 0xB586, offset: 0xB586, size: 0x8, addend: 0x0, symName: __ZNSt3__114__unwrap_rangeB8ue170006IPfS1_EENS_4pairIT0_S3_EET_S5_, symObjAddr: 0x5BCC, symBinAddr: 0x1000370F0, symSize: 0x60 }
  - { offsetInCU: 0xB5D2, offset: 0xB5D2, size: 0x8, addend: 0x0, symName: __ZNSt3__135__uninitialized_allocator_copy_implB8ue170006INS_9allocatorIfEEfffLPv0EEEPT2_RT_PT0_S9_S5_, symObjAddr: 0x5C2C, symBinAddr: 0x100037150, symSize: 0x38 }
  - { offsetInCU: 0xB653, offset: 0xB653, size: 0x8, addend: 0x0, symName: __ZNSt3__113__unwrap_iterB8ue170006IPfNS_18__unwrap_iter_implIS1_Lb1EEELi0EEEDTclsrT0_8__unwrapclsr3stdE7declvalIT_EEEES5_, symObjAddr: 0x5C64, symBinAddr: 0x100037188, symSize: 0x24 }
  - { offsetInCU: 0xB697, offset: 0xB697, size: 0x8, addend: 0x0, symName: __ZNSt3__113__rewrap_iterB8ue170006IPfS1_NS_18__unwrap_iter_implIS1_Lb1EEEEET_S4_T0_, symObjAddr: 0x5C88, symBinAddr: 0x1000371AC, symSize: 0x3C }
  - { offsetInCU: 0xB6EC, offset: 0xB6EC, size: 0x8, addend: 0x0, symName: __ZNSt3__19make_pairB8ue170006IPfS1_EENS_4pairINS_18__unwrap_ref_decayIT_E4typeENS3_IT0_E4typeEEEOS4_OS7_, symObjAddr: 0x5CC4, symBinAddr: 0x1000371E8, symSize: 0x38 }
  - { offsetInCU: 0xB83E, offset: 0xB83E, size: 0x8, addend: 0x0, symName: __ZNSt3__14copyB8ue170006IPfS1_EET0_T_S3_S2_, symObjAddr: 0x5D6C, symBinAddr: 0x100037290, symSize: 0x40 }
  - { offsetInCU: 0xB898, offset: 0xB898, size: 0x8, addend: 0x0, symName: __ZNSt3__16__copyB8ue170006INS_17_ClassicAlgPolicyEPfS2_S2_EENS_4pairIT0_T2_EES4_T1_S5_, symObjAddr: 0x5DAC, symBinAddr: 0x1000372D0, symSize: 0x44 }
  - { offsetInCU: 0xB904, offset: 0xB904, size: 0x8, addend: 0x0, symName: __ZNSt3__123__dispatch_copy_or_moveB8ue170006INS_17_ClassicAlgPolicyENS_11__copy_loopIS1_EENS_14__copy_trivialEPfS5_S5_EENS_4pairIT2_T4_EES7_T3_S8_, symObjAddr: 0x5DF0, symBinAddr: 0x100037314, symSize: 0x44 }
  - { offsetInCU: 0xB982, offset: 0xB982, size: 0x8, addend: 0x0, symName: __ZNSt3__121__unwrap_and_dispatchB8ue170006INS_10__overloadINS_11__copy_loopINS_17_ClassicAlgPolicyEEENS_14__copy_trivialEEEPfS7_S7_Li0EEENS_4pairIT0_T2_EES9_T1_SA_, symObjAddr: 0x5E34, symBinAddr: 0x100037358, symSize: 0xB4 }
  - { offsetInCU: 0xBA56, offset: 0xBA56, size: 0x8, addend: 0x0, symName: __ZNSt3__114__rewrap_rangeB8ue170006IPfS1_EET_S2_T0_, symObjAddr: 0x5F30, symBinAddr: 0x100037454, symSize: 0x2C }
  - { offsetInCU: 0xBAA2, offset: 0xBAA2, size: 0x8, addend: 0x0, symName: __ZNSt3__119__copy_trivial_implB8ue170006IffEENS_4pairIPT_PT0_EES3_S3_S5_, symObjAddr: 0x5F5C, symBinAddr: 0x100037480, symSize: 0x80 }
  - { offsetInCU: 0xBB0A, offset: 0xBB0A, size: 0x8, addend: 0x0, symName: __ZNSt3__119__constexpr_memmoveB8ue170006IffLi0EEEPT_S2_PT0_NS_15__element_countE, symObjAddr: 0x5FDC, symBinAddr: 0x100037500, symSize: 0x64 }
  - { offsetInCU: 0xBB78, offset: 0xBB78, size: 0x8, addend: 0x0, symName: __ZNSt3__19make_pairB8ue170006IRPfS1_EENS_4pairINS_18__unwrap_ref_decayIT_E4typeENS4_IT0_E4typeEEEOS5_OS8_, symObjAddr: 0x6040, symBinAddr: 0x100037564, symSize: 0x38 }
  - { offsetInCU: 0xBC1A, offset: 0xBC1A, size: 0x8, addend: 0x0, symName: __ZNSt3__13maxB8ue170006ImEERKT_S3_S3_, symObjAddr: 0x8114, symBinAddr: 0x100039638, symSize: 0x2C }
  - { offsetInCU: 0xBC5D, offset: 0xBC5D, size: 0x8, addend: 0x0, symName: __ZNSt3__13maxB8ue170006ImNS_6__lessIvvEEEERKT_S5_S5_T0_, symObjAddr: 0x81DC, symBinAddr: 0x100039700, symSize: 0x54 }
  - { offsetInCU: 0xBCB7, offset: 0xBCB7, size: 0x8, addend: 0x0, symName: __ZNSt3__119__allocate_at_leastB8ue170006INS_9allocatorI8VerticesEEEENS_19__allocation_resultINS_16allocator_traitsIT_E7pointerEEERS6_m, symObjAddr: 0x834C, symBinAddr: 0x100039870, symSize: 0x40 }
  - { offsetInCU: 0xBCFA, offset: 0xBCFA, size: 0x8, addend: 0x0, symName: __ZNSt3__142__uninitialized_allocator_move_if_noexceptB8ue170006INS_9allocatorI8VerticesEENS_16reverse_iteratorIPS2_EES6_S2_vEET1_RT_T0_SA_S7_, symObjAddr: 0x85D8, symBinAddr: 0x100039AFC, symSize: 0x78 }
  - { offsetInCU: 0xBD77, offset: 0xBD77, size: 0x8, addend: 0x0, symName: __ZNSt3__14swapB8ue170006IP8VerticesEENS_9enable_ifIXaasr21is_move_constructibleIT_EE5valuesr18is_move_assignableIS4_EE5valueEvE4typeERS4_S7_, symObjAddr: 0x869C, symBinAddr: 0x100039BC0, symSize: 0x3C }
  - { offsetInCU: 0xBDC8, offset: 0xBDC8, size: 0x8, addend: 0x0, symName: __ZNSt3__14moveB8ue170006INS_16reverse_iteratorIP8VerticesEES4_EET0_T_S6_S5_, symObjAddr: 0x87A0, symBinAddr: 0x100039CC4, symSize: 0x78 }
  - { offsetInCU: 0xBE22, offset: 0xBE22, size: 0x8, addend: 0x0, symName: __ZNSt3__16__moveB8ue170006INS_17_ClassicAlgPolicyENS_16reverse_iteratorIP8VerticesEES5_S5_EENS_4pairIT0_T2_EES7_T1_S8_, symObjAddr: 0x8818, symBinAddr: 0x100039D3C, symSize: 0x64 }
  - { offsetInCU: 0xBE8E, offset: 0xBE8E, size: 0x8, addend: 0x0, symName: __ZNSt3__123__dispatch_copy_or_moveB8ue170006INS_17_ClassicAlgPolicyENS_11__move_loopIS1_EENS_14__move_trivialENS_16reverse_iteratorIP8VerticesEES8_S8_EENS_4pairIT2_T4_EESA_T3_SB_, symObjAddr: 0x887C, symBinAddr: 0x100039DA0, symSize: 0x64 }
  - { offsetInCU: 0xBF0C, offset: 0xBF0C, size: 0x8, addend: 0x0, symName: __ZNSt3__121__unwrap_and_dispatchB8ue170006INS_10__overloadINS_11__move_loopINS_17_ClassicAlgPolicyEEENS_14__move_trivialEEENS_16reverse_iteratorIP8VerticesEESA_SA_Li0EEENS_4pairIT0_T2_EESC_T1_SD_, symObjAddr: 0x88E0, symBinAddr: 0x100039E04, symSize: 0x12C }
  - { offsetInCU: 0xBF9C, offset: 0xBF9C, size: 0x8, addend: 0x0, symName: __ZNSt3__114__unwrap_rangeB8ue170006INS_16reverse_iteratorIP8VerticesEES4_EENS_4pairIT0_S6_EET_S8_, symObjAddr: 0x8A0C, symBinAddr: 0x100039F30, symSize: 0x84 }
  - { offsetInCU: 0xC156, offset: 0xC156, size: 0x8, addend: 0x0, symName: __ZNSt3__113__unwrap_iterB8ue170006INS_16reverse_iteratorIP8VerticesEENS_18__unwrap_iter_implIS4_Lb0EEELi0EEEDTclsrT0_8__unwrapclsr3stdE7declvalIT_EEEES8_, symObjAddr: 0x8B38, symBinAddr: 0x10003A05C, symSize: 0x44 }
  - { offsetInCU: 0xC19A, offset: 0xC19A, size: 0x8, addend: 0x0, symName: __ZNSt3__19make_pairB8ue170006INS_16reverse_iteratorIP8VerticesEES4_EENS_4pairINS_18__unwrap_ref_decayIT_E4typeENS6_IT0_E4typeEEEOS7_OSA_, symObjAddr: 0x8B7C, symBinAddr: 0x10003A0A0, symSize: 0x38 }
  - { offsetInCU: 0xC1E9, offset: 0xC1E9, size: 0x8, addend: 0x0, symName: __ZNSt3__114__rewrap_rangeB8ue170006INS_16reverse_iteratorIP8VerticesEES4_EET_S5_T0_, symObjAddr: 0x8BB4, symBinAddr: 0x10003A0D8, symSize: 0x5C }
  - { offsetInCU: 0xC235, offset: 0xC235, size: 0x8, addend: 0x0, symName: __ZNSt3__113__rewrap_iterB8ue170006INS_16reverse_iteratorIP8VerticesEES4_NS_18__unwrap_iter_implIS4_Lb0EEEEET_S7_T0_, symObjAddr: 0x8C10, symBinAddr: 0x10003A134, symSize: 0x74 }
  - { offsetInCU: 0xC28A, offset: 0xC28A, size: 0x8, addend: 0x0, symName: __ZNSt3__1neB8ue170006IP8VerticesS2_EEbRKNS_16reverse_iteratorIT_EERKNS3_IT0_EE, symObjAddr: 0x8C84, symBinAddr: 0x10003A1A8, symSize: 0x48 }
  - { offsetInCU: 0xC3BB, offset: 0xC3BB, size: 0x8, addend: 0x0, symName: __ZNSt3__119__allocate_at_leastB8ue170006INS_9allocatorIjEEEENS_19__allocation_resultINS_16allocator_traitsIT_E7pointerEEERS5_m, symObjAddr: 0x99C0, symBinAddr: 0x10003AEE4, symSize: 0x40 }
  - { offsetInCU: 0xC3FE, offset: 0xC3FE, size: 0x8, addend: 0x0, symName: __ZNSt3__142__uninitialized_allocator_move_if_noexceptB8ue170006INS_9allocatorIjEENS_16reverse_iteratorIPjEES5_jvEET1_RT_T0_S9_S6_, symObjAddr: 0x9C40, symBinAddr: 0x10003B164, symSize: 0x78 }
  - { offsetInCU: 0xC47B, offset: 0xC47B, size: 0x8, addend: 0x0, symName: __ZNSt3__14swapB8ue170006IPjEENS_9enable_ifIXaasr21is_move_constructibleIT_EE5valuesr18is_move_assignableIS3_EE5valueEvE4typeERS3_S6_, symObjAddr: 0x9D04, symBinAddr: 0x10003B228, symSize: 0x3C }
  - { offsetInCU: 0xC4CC, offset: 0xC4CC, size: 0x8, addend: 0x0, symName: __ZNSt3__14moveB8ue170006INS_16reverse_iteratorIPjEES3_EET0_T_S5_S4_, symObjAddr: 0x9DEC, symBinAddr: 0x10003B310, symSize: 0x78 }
  - { offsetInCU: 0xC526, offset: 0xC526, size: 0x8, addend: 0x0, symName: __ZNSt3__16__moveB8ue170006INS_17_ClassicAlgPolicyENS_16reverse_iteratorIPjEES4_S4_EENS_4pairIT0_T2_EES6_T1_S7_, symObjAddr: 0x9E64, symBinAddr: 0x10003B388, symSize: 0x64 }
  - { offsetInCU: 0xC592, offset: 0xC592, size: 0x8, addend: 0x0, symName: __ZNSt3__123__dispatch_copy_or_moveB8ue170006INS_17_ClassicAlgPolicyENS_11__move_loopIS1_EENS_14__move_trivialENS_16reverse_iteratorIPjEES7_S7_EENS_4pairIT2_T4_EES9_T3_SA_, symObjAddr: 0x9EC8, symBinAddr: 0x10003B3EC, symSize: 0x64 }
  - { offsetInCU: 0xC610, offset: 0xC610, size: 0x8, addend: 0x0, symName: __ZNSt3__121__unwrap_and_dispatchB8ue170006INS_10__overloadINS_11__move_loopINS_17_ClassicAlgPolicyEEENS_14__move_trivialEEENS_16reverse_iteratorIPjEES9_S9_Li0EEENS_4pairIT0_T2_EESB_T1_SC_, symObjAddr: 0x9F2C, symBinAddr: 0x10003B450, symSize: 0x12C }
  - { offsetInCU: 0xC6A0, offset: 0xC6A0, size: 0x8, addend: 0x0, symName: __ZNSt3__114__unwrap_rangeB8ue170006INS_16reverse_iteratorIPjEES3_EENS_4pairIT0_S5_EET_S7_, symObjAddr: 0xA058, symBinAddr: 0x10003B57C, symSize: 0x84 }
  - { offsetInCU: 0xC7C0, offset: 0xC7C0, size: 0x8, addend: 0x0, symName: __ZNSt3__113__unwrap_iterB8ue170006INS_16reverse_iteratorIPjEENS_18__unwrap_iter_implIS3_Lb0EEELi0EEEDTclsrT0_8__unwrapclsr3stdE7declvalIT_EEEES7_, symObjAddr: 0xA17C, symBinAddr: 0x10003B6A0, symSize: 0x44 }
  - { offsetInCU: 0xC804, offset: 0xC804, size: 0x8, addend: 0x0, symName: __ZNSt3__19make_pairB8ue170006INS_16reverse_iteratorIPjEES3_EENS_4pairINS_18__unwrap_ref_decayIT_E4typeENS5_IT0_E4typeEEEOS6_OS9_, symObjAddr: 0xA1C0, symBinAddr: 0x10003B6E4, symSize: 0x38 }
  - { offsetInCU: 0xC853, offset: 0xC853, size: 0x8, addend: 0x0, symName: __ZNSt3__114__rewrap_rangeB8ue170006INS_16reverse_iteratorIPjEES3_EET_S4_T0_, symObjAddr: 0xA1F8, symBinAddr: 0x10003B71C, symSize: 0x5C }
  - { offsetInCU: 0xC89F, offset: 0xC89F, size: 0x8, addend: 0x0, symName: __ZNSt3__113__rewrap_iterB8ue170006INS_16reverse_iteratorIPjEES3_NS_18__unwrap_iter_implIS3_Lb0EEEEET_S6_T0_, symObjAddr: 0xA254, symBinAddr: 0x10003B778, symSize: 0x74 }
  - { offsetInCU: 0xC8F4, offset: 0xC8F4, size: 0x8, addend: 0x0, symName: __ZNSt3__1neB8ue170006IPjS1_EEbRKNS_16reverse_iteratorIT_EERKNS2_IT0_EE, symObjAddr: 0xA2C8, symBinAddr: 0x10003B7EC, symSize: 0x48 }
  - { offsetInCU: 0xC9AC, offset: 0xC9AC, size: 0x8, addend: 0x0, symName: __ZNSt3__118__constexpr_strlenB8ue170006EPKc, symObjAddr: 0xAB24, symBinAddr: 0x10003C048, symSize: 0x24 }
  - { offsetInCU: 0xC9D8, offset: 0xC9D8, size: 0x8, addend: 0x0, symName: __ZNSt3__1neB8ue170006IPjEEbRKNS_11__wrap_iterIT_EES6_, symObjAddr: 0xAD90, symBinAddr: 0x10003C2B4, symSize: 0x34 }
  - { offsetInCU: 0xCA1B, offset: 0xCA1B, size: 0x8, addend: 0x0, symName: __ZNSt3__1eqB8ue170006IPjEEbRKNS_11__wrap_iterIT_EES6_, symObjAddr: 0xADFC, symBinAddr: 0x10003C320, symSize: 0x48 }
  - { offsetInCU: 0xCEE8, offset: 0xCEE8, size: 0x8, addend: 0x0, symName: __ZSt28__throw_bad_array_new_lengthB8ue170006v, symObjAddr: 0x4AF8, symBinAddr: 0x10003601C, symSize: 0x34 }
  - { offsetInCU: 0xD7F0, offset: 0xD7F0, size: 0x8, addend: 0x0, symName: __ZNSt3__16vectorI8VerticesNS_9allocatorIS1_EEE26__swap_out_circular_bufferERNS_14__split_bufferIS1_RS3_EE, symObjAddr: 0x7D2C, symBinAddr: 0x100039250, symSize: 0x110 }
  - { offsetInCU: 0xD845, offset: 0xD845, size: 0x8, addend: 0x0, symName: __ZNSt3__16vectorIjNS_9allocatorIjEEE26__swap_out_circular_bufferERNS_14__split_bufferIjRS2_EE, symObjAddr: 0x9514, symBinAddr: 0x10003AA38, symSize: 0x110 }
  - { offsetInCU: 0xFF98, offset: 0xFF98, size: 0x8, addend: 0x0, symName: __ZN7TerrainC2Eiiiff, symObjAddr: 0x0, symBinAddr: 0x100031524, symSize: 0x578 }
  - { offsetInCU: 0x100E2, offset: 0x100E2, size: 0x8, addend: 0x0, symName: __ZNSt3__16vectorINS0_IfNS_9allocatorIfEEEENS1_IS3_EEEC1B8ue170006Ev, symObjAddr: 0x578, symBinAddr: 0x100031A9C, symSize: 0x2C }
  - { offsetInCU: 0x1010A, offset: 0x1010A, size: 0x8, addend: 0x0, symName: __ZNSt3__16vectorI8VerticesNS_9allocatorIS1_EEEC1B8ue170006Ev, symObjAddr: 0x5A4, symBinAddr: 0x100031AC8, symSize: 0x2C }
  - { offsetInCU: 0x10132, offset: 0x10132, size: 0x8, addend: 0x0, symName: __ZNSt3__16vectorIjNS_9allocatorIjEEEC1B8ue170006Ev, symObjAddr: 0x5D0, symBinAddr: 0x100031AF4, symSize: 0x2C }
  - { offsetInCU: 0x1015A, offset: 0x1015A, size: 0x8, addend: 0x0, symName: __ZNSt3__16vectorIN3glm3vecILi3EfLNS1_9qualifierE0EEENS_9allocatorIS4_EEEC1B8ue170006Ev, symObjAddr: 0x5FC, symBinAddr: 0x100031B20, symSize: 0x2C }
  - { offsetInCU: 0x10182, offset: 0x10182, size: 0x8, addend: 0x0, symName: __ZN3glm3vecILi3EfLNS_9qualifierE0EEC1Efff, symObjAddr: 0x628, symBinAddr: 0x100031B4C, symSize: 0x44 }
  - { offsetInCU: 0x101D6, offset: 0x101D6, size: 0x8, addend: 0x0, symName: __ZN3glm3vecILi3EfLNS_9qualifierE0EEC1IiiiEET_T0_T1_, symObjAddr: 0x66C, symBinAddr: 0x100031B90, symSize: 0x44 }
  - { offsetInCU: 0x10245, offset: 0x10245, size: 0x8, addend: 0x0, symName: __ZNSt3__16vectorIfNS_9allocatorIfEEEC1Em, symObjAddr: 0x6B0, symBinAddr: 0x100031BD4, symSize: 0x34 }
  - { offsetInCU: 0x1027E, offset: 0x1027E, size: 0x8, addend: 0x0, symName: __ZNSt3__16vectorINS0_IfNS_9allocatorIfEEEENS1_IS3_EEEC1EmRKS3_, symObjAddr: 0x6E4, symBinAddr: 0x100031C08, symSize: 0x3C }
  - { offsetInCU: 0x102C6, offset: 0x102C6, size: 0x8, addend: 0x0, symName: __ZNSt3__16vectorINS0_IfNS_9allocatorIfEEEENS1_IS3_EEEaSB8ue170006EOS5_, symObjAddr: 0x720, symBinAddr: 0x100031C44, symSize: 0x34 }
  - { offsetInCU: 0x102FB, offset: 0x102FB, size: 0x8, addend: 0x0, symName: __ZNSt3__16vectorINS0_IfNS_9allocatorIfEEEENS1_IS3_EEED1B8ue170006Ev, symObjAddr: 0x754, symBinAddr: 0x100031C78, symSize: 0x2C }
  - { offsetInCU: 0x10323, offset: 0x10323, size: 0x8, addend: 0x0, symName: __ZNSt3__16vectorIfNS_9allocatorIfEEED1B8ue170006Ev, symObjAddr: 0x780, symBinAddr: 0x100031CA4, symSize: 0x2C }
  - { offsetInCU: 0x1034B, offset: 0x1034B, size: 0x8, addend: 0x0, symName: __ZN3glm3vecILi2EfLNS_9qualifierE0EEC1Eff, symObjAddr: 0xD0C, symBinAddr: 0x100032230, symSize: 0x3C }
  - { offsetInCU: 0x10392, offset: 0x10392, size: 0x8, addend: 0x0, symName: __ZNSt3__16vectorINS0_IfNS_9allocatorIfEEEENS1_IS3_EEEixB8ue170006Em, symObjAddr: 0xD48, symBinAddr: 0x10003226C, symSize: 0x2C }
  - { offsetInCU: 0x103C7, offset: 0x103C7, size: 0x8, addend: 0x0, symName: __ZNSt3__16vectorIfNS_9allocatorIfEEEixB8ue170006Em, symObjAddr: 0xD74, symBinAddr: 0x100032298, symSize: 0x24 }
  - { offsetInCU: 0x103FC, offset: 0x103FC, size: 0x8, addend: 0x0, symName: __ZN7Terrain10BuildSceneEv, symObjAddr: 0xD98, symBinAddr: 0x1000322BC, symSize: 0x218 }
  - { offsetInCU: 0x10422, offset: 0x10422, size: 0x8, addend: 0x0, symName: __ZN7Terrain14CompileShadersEv, symObjAddr: 0xFB0, symBinAddr: 0x1000324D4, symSize: 0x400 }
  - { offsetInCU: 0x1045D, offset: 0x1045D, size: 0x8, addend: 0x0, symName: __ZNSt3__16vectorIN3glm3vecILi3EfLNS1_9qualifierE0EEENS_9allocatorIS4_EEED1B8ue170006Ev, symObjAddr: 0x13B0, symBinAddr: 0x1000328D4, symSize: 0x2C }
  - { offsetInCU: 0x10485, offset: 0x10485, size: 0x8, addend: 0x0, symName: __ZNSt3__16vectorIjNS_9allocatorIjEEED1B8ue170006Ev, symObjAddr: 0x13DC, symBinAddr: 0x100032900, symSize: 0x2C }
  - { offsetInCU: 0x104AD, offset: 0x104AD, size: 0x8, addend: 0x0, symName: __ZNSt3__16vectorI8VerticesNS_9allocatorIS1_EEED1B8ue170006Ev, symObjAddr: 0x1408, symBinAddr: 0x10003292C, symSize: 0x2C }
  - { offsetInCU: 0x104D5, offset: 0x104D5, size: 0x8, addend: 0x0, symName: __ZN7TerrainC1Eiiiff, symObjAddr: 0x1434, symBinAddr: 0x100032958, symSize: 0x54 }
  - { offsetInCU: 0x10545, offset: 0x10545, size: 0x8, addend: 0x0, symName: __ZN7TerrainD2Ev, symObjAddr: 0x1488, symBinAddr: 0x1000329AC, symSize: 0xB8 }
  - { offsetInCU: 0x1056F, offset: 0x1056F, size: 0x8, addend: 0x0, symName: __ZN7TerrainD1Ev, symObjAddr: 0x154C, symBinAddr: 0x100032A70, symSize: 0x2C }
  - { offsetInCU: 0x1059A, offset: 0x1059A, size: 0x8, addend: 0x0, symName: __ZN7Terrain6RenderEv, symObjAddr: 0x1578, symBinAddr: 0x100032A9C, symSize: 0x238 }
  - { offsetInCU: 0x105C0, offset: 0x105C0, size: 0x8, addend: 0x0, symName: __ZNKSt3__16vectorIjNS_9allocatorIjEEE4sizeB8ue170006Ev, symObjAddr: 0x17D8, symBinAddr: 0x100032CFC, symSize: 0x28 }
  - { offsetInCU: 0x105E5, offset: 0x105E5, size: 0x8, addend: 0x0, symName: __ZN7Terrain22SetModelViewProjectionEN3glm3matILi4ELi4EfLNS0_9qualifierE0EEE, symObjAddr: 0x1800, symBinAddr: 0x100032D24, symSize: 0x34 }
  - { offsetInCU: 0x1061A, offset: 0x1061A, size: 0x8, addend: 0x0, symName: __ZN7Terrain7RebuildEv, symObjAddr: 0x1834, symBinAddr: 0x100032D58, symSize: 0x38 }
  - { offsetInCU: 0x10640, offset: 0x10640, size: 0x8, addend: 0x0, symName: __ZN7Terrain17GenerateHeightMapEv, symObjAddr: 0x186C, symBinAddr: 0x100032D90, symSize: 0x360 }
  - { offsetInCU: 0x1075E, offset: 0x1075E, size: 0x8, addend: 0x0, symName: __ZN7Terrain13ChangeOctavesEi, symObjAddr: 0x1BCC, symBinAddr: 0x1000330F0, symSize: 0x20 }
  - { offsetInCU: 0x10793, offset: 0x10793, size: 0x8, addend: 0x0, symName: __ZN7Terrain15ChangeFrequencyEf, symObjAddr: 0x1BEC, symBinAddr: 0x100033110, symSize: 0x20 }
  - { offsetInCU: 0x107C8, offset: 0x107C8, size: 0x8, addend: 0x0, symName: __ZN7Terrain15ChangeAmplitudeEf, symObjAddr: 0x1C0C, symBinAddr: 0x100033130, symSize: 0x20 }
  - { offsetInCU: 0x107FD, offset: 0x107FD, size: 0x8, addend: 0x0, symName: __ZN7Terrain12InitVerticesEv, symObjAddr: 0x1C2C, symBinAddr: 0x100033150, symSize: 0x11C }
  - { offsetInCU: 0x10869, offset: 0x10869, size: 0x8, addend: 0x0, symName: __ZN7Terrain11InitIndicesEv, symObjAddr: 0x1D48, symBinAddr: 0x10003326C, symSize: 0x24C }
  - { offsetInCU: 0x10921, offset: 0x10921, size: 0x8, addend: 0x0, symName: __ZN7Terrain11InitNormalsEv, symObjAddr: 0x1F94, symBinAddr: 0x1000334B8, symSize: 0x288 }
  - { offsetInCU: 0x109F0, offset: 0x109F0, size: 0x8, addend: 0x0, symName: __ZNSt3__16vectorIjNS_9allocatorIjEEEixB8ue170006Em, symObjAddr: 0x221C, symBinAddr: 0x100033740, symSize: 0x24 }
  - { offsetInCU: 0x10A25, offset: 0x10A25, size: 0x8, addend: 0x0, symName: __ZNKSt3__16vectorI8VerticesNS_9allocatorIS1_EEE4sizeB8ue170006Ev, symObjAddr: 0x2240, symBinAddr: 0x100033764, symSize: 0x28 }
  - { offsetInCU: 0x10A4A, offset: 0x10A4A, size: 0x8, addend: 0x0, symName: __ZNSt3__16vectorI8VerticesNS_9allocatorIS1_EEEixB8ue170006Em, symObjAddr: 0x2268, symBinAddr: 0x10003378C, symSize: 0x2C }
  - { offsetInCU: 0x10A7E, offset: 0x10A7E, size: 0x8, addend: 0x0, symName: __ZNSt3__16vectorI8VerticesNS_9allocatorIS1_EEE6resizeEm, symObjAddr: 0x2294, symBinAddr: 0x1000337B8, symSize: 0x9C }
  - { offsetInCU: 0x10AC2, offset: 0x10AC2, size: 0x8, addend: 0x0, symName: __ZN3glm3vecILi3EfLNS_9qualifierE0EEC1IjfjEET_T0_T1_, symObjAddr: 0x2330, symBinAddr: 0x100033854, symSize: 0x44 }
  - { offsetInCU: 0x10B31, offset: 0x10B31, size: 0x8, addend: 0x0, symName: __ZNSt3__16vectorIjNS_9allocatorIjEEE6resizeEm, symObjAddr: 0x2374, symBinAddr: 0x100033898, symSize: 0x94 }
  - { offsetInCU: 0x10B76, offset: 0x10B76, size: 0x8, addend: 0x0, symName: __ZN3glm3vecILi3EfLNS_9qualifierE0EEpLIfEERS2_RKNS0_ILi3ET_LS1_0EEE, symObjAddr: 0x24F8, symBinAddr: 0x100033A1C, symSize: 0x54 }
  - { offsetInCU: 0x10BB3, offset: 0x10BB3, size: 0x8, addend: 0x0, symName: __ZNSt3__16vectorIjNS_9allocatorIjEEE9push_backB8ue170006EOj, symObjAddr: 0x254C, symBinAddr: 0x100033A70, symSize: 0x6C }
  - { offsetInCU: 0x10BED, offset: 0x10BED, size: 0x8, addend: 0x0, symName: __ZNSt3__112basic_stringIcNS_11char_traitsIcEENS_9allocatorIcEEEC1B8ue170006ILi0EEEPKc, symObjAddr: 0x25B8, symBinAddr: 0x100033ADC, symSize: 0x34 }
  - { offsetInCU: 0x10C2A, offset: 0x10C2A, size: 0x8, addend: 0x0, symName: __ZNSt3__16vectorIjNS_9allocatorIjEEE5beginB8ue170006Ev, symObjAddr: 0x2658, symBinAddr: 0x100033B7C, symSize: 0x30 }
  - { offsetInCU: 0x10C50, offset: 0x10C50, size: 0x8, addend: 0x0, symName: __ZNSt3__16vectorIjNS_9allocatorIjEEE3endB8ue170006Ev, symObjAddr: 0x2688, symBinAddr: 0x100033BAC, symSize: 0x30 }
  - { offsetInCU: 0x10C77, offset: 0x10C77, size: 0x8, addend: 0x0, symName: __ZN7Terrain9SetHeightEf, symObjAddr: 0x26B8, symBinAddr: 0x100033BDC, symSize: 0x20 }
  - { offsetInCU: 0x10CAE, offset: 0x10CAE, size: 0x8, addend: 0x0, symName: __ZN7Terrain13SetWaterLevelEf, symObjAddr: 0x26D8, symBinAddr: 0x100033BFC, symSize: 0x20 }
  - { offsetInCU: 0x10CE5, offset: 0x10CE5, size: 0x8, addend: 0x0, symName: __ZN7Terrain12SetSnowLevelEf, symObjAddr: 0x26F8, symBinAddr: 0x100033C1C, symSize: 0x20 }
  - { offsetInCU: 0x10D1C, offset: 0x10D1C, size: 0x8, addend: 0x0, symName: __ZN7Terrain19SetAmbientIntensityEf, symObjAddr: 0x2718, symBinAddr: 0x100033C3C, symSize: 0x20 }
  - { offsetInCU: 0x10D53, offset: 0x10D53, size: 0x8, addend: 0x0, symName: __ZN7Terrain13SetLightColorEN3glm3vecILi3EfLNS0_9qualifierE0EEE, symObjAddr: 0x2738, symBinAddr: 0x100033C5C, symSize: 0x30 }
  - { offsetInCU: 0x10D8A, offset: 0x10D8A, size: 0x8, addend: 0x0, symName: __ZN7Terrain19SetDiffuseIntensityEf, symObjAddr: 0x2768, symBinAddr: 0x100033C8C, symSize: 0x20 }
  - { offsetInCU: 0x10DC1, offset: 0x10DC1, size: 0x8, addend: 0x0, symName: __ZN7Terrain17SetLightDirectionEN3glm3vecILi3EfLNS0_9qualifierE0EEE, symObjAddr: 0x2788, symBinAddr: 0x100033CAC, symSize: 0x34 }
  - { offsetInCU: 0x10DF8, offset: 0x10DF8, size: 0x8, addend: 0x0, symName: __ZN7Terrain8SetModelEN3glm3matILi4ELi4EfLNS0_9qualifierE0EEE, symObjAddr: 0x27BC, symBinAddr: 0x100033CE0, symSize: 0x34 }
  - { offsetInCU: 0x10E30, offset: 0x10E30, size: 0x8, addend: 0x0, symName: __ZN7Terrain20SetSpecularIntensityEf, symObjAddr: 0x27F0, symBinAddr: 0x100033D14, symSize: 0x20 }
  - { offsetInCU: 0x10E67, offset: 0x10E67, size: 0x8, addend: 0x0, symName: __ZN7Terrain12SetShininessEf, symObjAddr: 0x2810, symBinAddr: 0x100033D34, symSize: 0x20 }
  - { offsetInCU: 0x10E9E, offset: 0x10E9E, size: 0x8, addend: 0x0, symName: __ZN7Terrain12SetCameraPosEN3glm3vecILi3EfLNS0_9qualifierE0EEE, symObjAddr: 0x2830, symBinAddr: 0x100033D54, symSize: 0x34 }
  - { offsetInCU: 0x10ED5, offset: 0x10ED5, size: 0x8, addend: 0x0, symName: __ZN3glm3vecILi2EfLNS_9qualifierE0EEC2Eff, symObjAddr: 0x2864, symBinAddr: 0x100033D88, symSize: 0x2C }
  - { offsetInCU: 0x10F1C, offset: 0x10F1C, size: 0x8, addend: 0x0, symName: __ZN3glm3vecILi3EfLNS_9qualifierE0EEC2Efff, symObjAddr: 0x2890, symBinAddr: 0x100033DB4, symSize: 0x38 }
  - { offsetInCU: 0x10F70, offset: 0x10F70, size: 0x8, addend: 0x0, symName: __ZNSt3__16vectorINS0_IfNS_9allocatorIfEEEENS1_IS3_EEEC2B8ue170006Ev, symObjAddr: 0x28C8, symBinAddr: 0x100033DEC, symSize: 0x4C }
  - { offsetInCU: 0x10FA2, offset: 0x10FA2, size: 0x8, addend: 0x0, symName: __ZNSt3__117__compressed_pairIPNS_6vectorIfNS_9allocatorIfEEEENS2_IS4_EEEC1B8ue170006IDnNS_18__default_init_tagEEEOT_OT0_, symObjAddr: 0x2914, symBinAddr: 0x100033E38, symSize: 0x3C }
  - { offsetInCU: 0x10FF8, offset: 0x10FF8, size: 0x8, addend: 0x0, symName: __ZNSt3__117__compressed_pairIPNS_6vectorIfNS_9allocatorIfEEEENS2_IS4_EEEC2B8ue170006IDnNS_18__default_init_tagEEEOT_OT0_, symObjAddr: 0x2950, symBinAddr: 0x100033E74, symSize: 0x40 }
  - { offsetInCU: 0x1104F, offset: 0x1104F, size: 0x8, addend: 0x0, symName: __ZNSt3__122__compressed_pair_elemIPNS_6vectorIfNS_9allocatorIfEEEELi0ELb0EEC2B8ue170006IDnvEEOT_, symObjAddr: 0x2990, symBinAddr: 0x100033EB4, symSize: 0x1C }
  - { offsetInCU: 0x1108F, offset: 0x1108F, size: 0x8, addend: 0x0, symName: __ZNSt3__122__compressed_pair_elemINS_9allocatorINS_6vectorIfNS1_IfEEEEEELi1ELb1EEC2B8ue170006ENS_18__default_init_tagE, symObjAddr: 0x29AC, symBinAddr: 0x100033ED0, symSize: 0x2C }
  - { offsetInCU: 0x110C2, offset: 0x110C2, size: 0x8, addend: 0x0, symName: __ZNSt3__19allocatorINS_6vectorIfNS0_IfEEEEEC2B8ue170006Ev, symObjAddr: 0x29D8, symBinAddr: 0x100033EFC, symSize: 0x2C }
  - { offsetInCU: 0x110EB, offset: 0x110EB, size: 0x8, addend: 0x0, symName: __ZNSt3__116__non_trivial_ifILb1ENS_9allocatorINS_6vectorIfNS1_IfEEEEEEEC2B8ue170006Ev, symObjAddr: 0x2A04, symBinAddr: 0x100033F28, symSize: 0x14 }
  - { offsetInCU: 0x11113, offset: 0x11113, size: 0x8, addend: 0x0, symName: __ZNSt3__16vectorI8VerticesNS_9allocatorIS1_EEEC2B8ue170006Ev, symObjAddr: 0x2A18, symBinAddr: 0x100033F3C, symSize: 0x4C }
  - { offsetInCU: 0x1113B, offset: 0x1113B, size: 0x8, addend: 0x0, symName: __ZNSt3__117__compressed_pairIP8VerticesNS_9allocatorIS1_EEEC1B8ue170006IDnNS_18__default_init_tagEEEOT_OT0_, symObjAddr: 0x2A64, symBinAddr: 0x100033F88, symSize: 0x3C }
  - { offsetInCU: 0x11191, offset: 0x11191, size: 0x8, addend: 0x0, symName: __ZNSt3__117__compressed_pairIP8VerticesNS_9allocatorIS1_EEEC2B8ue170006IDnNS_18__default_init_tagEEEOT_OT0_, symObjAddr: 0x2AA0, symBinAddr: 0x100033FC4, symSize: 0x40 }
  - { offsetInCU: 0x111E8, offset: 0x111E8, size: 0x8, addend: 0x0, symName: __ZNSt3__122__compressed_pair_elemIP8VerticesLi0ELb0EEC2B8ue170006IDnvEEOT_, symObjAddr: 0x2AE0, symBinAddr: 0x100034004, symSize: 0x1C }
  - { offsetInCU: 0x11228, offset: 0x11228, size: 0x8, addend: 0x0, symName: __ZNSt3__122__compressed_pair_elemINS_9allocatorI8VerticesEELi1ELb1EEC2B8ue170006ENS_18__default_init_tagE, symObjAddr: 0x2AFC, symBinAddr: 0x100034020, symSize: 0x2C }
  - { offsetInCU: 0x1125B, offset: 0x1125B, size: 0x8, addend: 0x0, symName: __ZNSt3__19allocatorI8VerticesEC2B8ue170006Ev, symObjAddr: 0x2B28, symBinAddr: 0x10003404C, symSize: 0x2C }
  - { offsetInCU: 0x11284, offset: 0x11284, size: 0x8, addend: 0x0, symName: __ZNSt3__116__non_trivial_ifILb1ENS_9allocatorI8VerticesEEEC2B8ue170006Ev, symObjAddr: 0x2B54, symBinAddr: 0x100034078, symSize: 0x14 }
  - { offsetInCU: 0x112AC, offset: 0x112AC, size: 0x8, addend: 0x0, symName: __ZNSt3__16vectorIjNS_9allocatorIjEEEC2B8ue170006Ev, symObjAddr: 0x2B68, symBinAddr: 0x10003408C, symSize: 0x4C }
  - { offsetInCU: 0x112D4, offset: 0x112D4, size: 0x8, addend: 0x0, symName: __ZNSt3__117__compressed_pairIPjNS_9allocatorIjEEEC1B8ue170006IDnNS_18__default_init_tagEEEOT_OT0_, symObjAddr: 0x2BB4, symBinAddr: 0x1000340D8, symSize: 0x3C }
  - { offsetInCU: 0x1132A, offset: 0x1132A, size: 0x8, addend: 0x0, symName: __ZNSt3__117__compressed_pairIPjNS_9allocatorIjEEEC2B8ue170006IDnNS_18__default_init_tagEEEOT_OT0_, symObjAddr: 0x2BF0, symBinAddr: 0x100034114, symSize: 0x40 }
  - { offsetInCU: 0x11381, offset: 0x11381, size: 0x8, addend: 0x0, symName: __ZNSt3__122__compressed_pair_elemIPjLi0ELb0EEC2B8ue170006IDnvEEOT_, symObjAddr: 0x2C30, symBinAddr: 0x100034154, symSize: 0x1C }
  - { offsetInCU: 0x113C1, offset: 0x113C1, size: 0x8, addend: 0x0, symName: __ZNSt3__122__compressed_pair_elemINS_9allocatorIjEELi1ELb1EEC2B8ue170006ENS_18__default_init_tagE, symObjAddr: 0x2C4C, symBinAddr: 0x100034170, symSize: 0x2C }
  - { offsetInCU: 0x113F4, offset: 0x113F4, size: 0x8, addend: 0x0, symName: __ZNSt3__19allocatorIjEC2B8ue170006Ev, symObjAddr: 0x2C78, symBinAddr: 0x10003419C, symSize: 0x2C }
  - { offsetInCU: 0x1141D, offset: 0x1141D, size: 0x8, addend: 0x0, symName: __ZNSt3__116__non_trivial_ifILb1ENS_9allocatorIjEEEC2B8ue170006Ev, symObjAddr: 0x2CA4, symBinAddr: 0x1000341C8, symSize: 0x14 }
  - { offsetInCU: 0x11445, offset: 0x11445, size: 0x8, addend: 0x0, symName: __ZNSt3__16vectorIN3glm3vecILi3EfLNS1_9qualifierE0EEENS_9allocatorIS4_EEEC2B8ue170006Ev, symObjAddr: 0x2CB8, symBinAddr: 0x1000341DC, symSize: 0x4C }
  - { offsetInCU: 0x1146D, offset: 0x1146D, size: 0x8, addend: 0x0, symName: __ZNSt3__117__compressed_pairIPN3glm3vecILi3EfLNS1_9qualifierE0EEENS_9allocatorIS4_EEEC1B8ue170006IDnNS_18__default_init_tagEEEOT_OT0_, symObjAddr: 0x2D04, symBinAddr: 0x100034228, symSize: 0x3C }
  - { offsetInCU: 0x114C3, offset: 0x114C3, size: 0x8, addend: 0x0, symName: __ZNSt3__117__compressed_pairIPN3glm3vecILi3EfLNS1_9qualifierE0EEENS_9allocatorIS4_EEEC2B8ue170006IDnNS_18__default_init_tagEEEOT_OT0_, symObjAddr: 0x2D40, symBinAddr: 0x100034264, symSize: 0x40 }
  - { offsetInCU: 0x1151A, offset: 0x1151A, size: 0x8, addend: 0x0, symName: __ZNSt3__122__compressed_pair_elemIPN3glm3vecILi3EfLNS1_9qualifierE0EEELi0ELb0EEC2B8ue170006IDnvEEOT_, symObjAddr: 0x2D80, symBinAddr: 0x1000342A4, symSize: 0x1C }
  - { offsetInCU: 0x1155A, offset: 0x1155A, size: 0x8, addend: 0x0, symName: __ZNSt3__122__compressed_pair_elemINS_9allocatorIN3glm3vecILi3EfLNS2_9qualifierE0EEEEELi1ELb1EEC2B8ue170006ENS_18__default_init_tagE, symObjAddr: 0x2D9C, symBinAddr: 0x1000342C0, symSize: 0x2C }
  - { offsetInCU: 0x1158D, offset: 0x1158D, size: 0x8, addend: 0x0, symName: __ZNSt3__19allocatorIN3glm3vecILi3EfLNS1_9qualifierE0EEEEC2B8ue170006Ev, symObjAddr: 0x2DC8, symBinAddr: 0x1000342EC, symSize: 0x2C }
  - { offsetInCU: 0x115B6, offset: 0x115B6, size: 0x8, addend: 0x0, symName: __ZNSt3__116__non_trivial_ifILb1ENS_9allocatorIN3glm3vecILi3EfLNS2_9qualifierE0EEEEEEC2B8ue170006Ev, symObjAddr: 0x2DF4, symBinAddr: 0x100034318, symSize: 0x14 }
  - { offsetInCU: 0x115DE, offset: 0x115DE, size: 0x8, addend: 0x0, symName: __ZNSt3__16vectorINS0_IfNS_9allocatorIfEEEENS1_IS3_EEED2B8ue170006Ev, symObjAddr: 0x2E08, symBinAddr: 0x10003432C, symSize: 0x44 }
  - { offsetInCU: 0x11606, offset: 0x11606, size: 0x8, addend: 0x0, symName: __ZNSt3__16vectorINS0_IfNS_9allocatorIfEEEENS1_IS3_EEE16__destroy_vectorC1B8ue170006ERS5_, symObjAddr: 0x2E4C, symBinAddr: 0x100034370, symSize: 0x34 }
  - { offsetInCU: 0x1163E, offset: 0x1163E, size: 0x8, addend: 0x0, symName: __ZNSt3__16vectorINS0_IfNS_9allocatorIfEEEENS1_IS3_EEE16__destroy_vectorclB8ue170006Ev, symObjAddr: 0x2E80, symBinAddr: 0x1000343A4, symSize: 0x90 }
  - { offsetInCU: 0x11663, offset: 0x11663, size: 0x8, addend: 0x0, symName: __ZNSt3__16vectorINS0_IfNS_9allocatorIfEEEENS1_IS3_EEE16__destroy_vectorC2B8ue170006ERS5_, symObjAddr: 0x2F10, symBinAddr: 0x100034434, symSize: 0x20 }
  - { offsetInCU: 0x1169B, offset: 0x1169B, size: 0x8, addend: 0x0, symName: __ZNSt3__16vectorINS0_IfNS_9allocatorIfEEEENS1_IS3_EEE7__clearB8ue170006Ev, symObjAddr: 0x2F30, symBinAddr: 0x100034454, symSize: 0x28 }
  - { offsetInCU: 0x116C0, offset: 0x116C0, size: 0x8, addend: 0x0, symName: __ZNKSt3__16vectorINS0_IfNS_9allocatorIfEEEENS1_IS3_EEE17__annotate_deleteB8ue170006Ev, symObjAddr: 0x2F58, symBinAddr: 0x10003447C, symSize: 0xD4 }
  - { offsetInCU: 0x116E5, offset: 0x116E5, size: 0x8, addend: 0x0, symName: __ZNSt3__116allocator_traitsINS_9allocatorINS_6vectorIfNS1_IfEEEEEEE10deallocateB8ue170006ERS5_PS4_m, symObjAddr: 0x302C, symBinAddr: 0x100034550, symSize: 0x34 }
  - { offsetInCU: 0x11727, offset: 0x11727, size: 0x8, addend: 0x0, symName: __ZNSt3__16vectorINS0_IfNS_9allocatorIfEEEENS1_IS3_EEE7__allocB8ue170006Ev, symObjAddr: 0x3060, symBinAddr: 0x100034584, symSize: 0x28 }
  - { offsetInCU: 0x1174C, offset: 0x1174C, size: 0x8, addend: 0x0, symName: __ZNKSt3__16vectorINS0_IfNS_9allocatorIfEEEENS1_IS3_EEE8capacityB8ue170006Ev, symObjAddr: 0x3088, symBinAddr: 0x1000345AC, symSize: 0x40 }
  - { offsetInCU: 0x11771, offset: 0x11771, size: 0x8, addend: 0x0, symName: __ZNSt3__16vectorINS0_IfNS_9allocatorIfEEEENS1_IS3_EEE22__base_destruct_at_endB8ue170006EPS3_, symObjAddr: 0x30C8, symBinAddr: 0x1000345EC, symSize: 0x8C }
  - { offsetInCU: 0x117B4, offset: 0x117B4, size: 0x8, addend: 0x0, symName: __ZNSt3__116allocator_traitsINS_9allocatorINS_6vectorIfNS1_IfEEEEEEE7destroyB8ue170006IS4_vEEvRS5_PT_, symObjAddr: 0x3154, symBinAddr: 0x100034678, symSize: 0x2C }
  - { offsetInCU: 0x117F1, offset: 0x117F1, size: 0x8, addend: 0x0, symName: __ZNSt3__19allocatorINS_6vectorIfNS0_IfEEEEE7destroyB8ue170006EPS3_, symObjAddr: 0x3194, symBinAddr: 0x1000346B8, symSize: 0x28 }
  - { offsetInCU: 0x11824, offset: 0x11824, size: 0x8, addend: 0x0, symName: __ZNKSt3__16vectorINS0_IfNS_9allocatorIfEEEENS1_IS3_EEE31__annotate_contiguous_containerB8ue170006EPKvS7_S7_S7_, symObjAddr: 0x31BC, symBinAddr: 0x1000346E0, symSize: 0x20 }
  - { offsetInCU: 0x11875, offset: 0x11875, size: 0x8, addend: 0x0, symName: __ZNKSt3__16vectorINS0_IfNS_9allocatorIfEEEENS1_IS3_EEE4dataB8ue170006Ev, symObjAddr: 0x31DC, symBinAddr: 0x100034700, symSize: 0x28 }
  - { offsetInCU: 0x1189A, offset: 0x1189A, size: 0x8, addend: 0x0, symName: __ZNKSt3__16vectorINS0_IfNS_9allocatorIfEEEENS1_IS3_EEE4sizeB8ue170006Ev, symObjAddr: 0x3204, symBinAddr: 0x100034728, symSize: 0x28 }
  - { offsetInCU: 0x118BF, offset: 0x118BF, size: 0x8, addend: 0x0, symName: __ZNSt3__19allocatorINS_6vectorIfNS0_IfEEEEE10deallocateB8ue170006EPS3_m, symObjAddr: 0x322C, symBinAddr: 0x100034750, symSize: 0x44 }
  - { offsetInCU: 0x11900, offset: 0x11900, size: 0x8, addend: 0x0, symName: __ZNSt3__117__compressed_pairIPNS_6vectorIfNS_9allocatorIfEEEENS2_IS4_EEE6secondB8ue170006Ev, symObjAddr: 0x32EC, symBinAddr: 0x100034810, symSize: 0x24 }
  - { offsetInCU: 0x11925, offset: 0x11925, size: 0x8, addend: 0x0, symName: __ZNSt3__122__compressed_pair_elemINS_9allocatorINS_6vectorIfNS1_IfEEEEEELi1ELb1EE5__getB8ue170006Ev, symObjAddr: 0x3310, symBinAddr: 0x100034834, symSize: 0x14 }
  - { offsetInCU: 0x1194A, offset: 0x1194A, size: 0x8, addend: 0x0, symName: __ZNKSt3__16vectorINS0_IfNS_9allocatorIfEEEENS1_IS3_EEE9__end_capB8ue170006Ev, symObjAddr: 0x3324, symBinAddr: 0x100034848, symSize: 0x28 }
  - { offsetInCU: 0x1196F, offset: 0x1196F, size: 0x8, addend: 0x0, symName: __ZNKSt3__117__compressed_pairIPNS_6vectorIfNS_9allocatorIfEEEENS2_IS4_EEE5firstB8ue170006Ev, symObjAddr: 0x334C, symBinAddr: 0x100034870, symSize: 0x24 }
  - { offsetInCU: 0x11994, offset: 0x11994, size: 0x8, addend: 0x0, symName: __ZNKSt3__122__compressed_pair_elemIPNS_6vectorIfNS_9allocatorIfEEEELi0ELb0EE5__getB8ue170006Ev, symObjAddr: 0x3370, symBinAddr: 0x100034894, symSize: 0x14 }
  - { offsetInCU: 0x119B8, offset: 0x119B8, size: 0x8, addend: 0x0, symName: __ZNSt3__16vectorI8VerticesNS_9allocatorIS1_EEED2B8ue170006Ev, symObjAddr: 0x3384, symBinAddr: 0x1000348A8, symSize: 0x44 }
  - { offsetInCU: 0x119E0, offset: 0x119E0, size: 0x8, addend: 0x0, symName: __ZNSt3__16vectorI8VerticesNS_9allocatorIS1_EEE16__destroy_vectorC1B8ue170006ERS4_, symObjAddr: 0x33C8, symBinAddr: 0x1000348EC, symSize: 0x34 }
  - { offsetInCU: 0x11A18, offset: 0x11A18, size: 0x8, addend: 0x0, symName: __ZNSt3__16vectorI8VerticesNS_9allocatorIS1_EEE16__destroy_vectorclB8ue170006Ev, symObjAddr: 0x33FC, symBinAddr: 0x100034920, symSize: 0x90 }
  - { offsetInCU: 0x11A3D, offset: 0x11A3D, size: 0x8, addend: 0x0, symName: __ZNSt3__16vectorI8VerticesNS_9allocatorIS1_EEE16__destroy_vectorC2B8ue170006ERS4_, symObjAddr: 0x348C, symBinAddr: 0x1000349B0, symSize: 0x20 }
  - { offsetInCU: 0x11A75, offset: 0x11A75, size: 0x8, addend: 0x0, symName: __ZNSt3__16vectorI8VerticesNS_9allocatorIS1_EEE7__clearB8ue170006Ev, symObjAddr: 0x34AC, symBinAddr: 0x1000349D0, symSize: 0x28 }
  - { offsetInCU: 0x11A9A, offset: 0x11A9A, size: 0x8, addend: 0x0, symName: __ZNKSt3__16vectorI8VerticesNS_9allocatorIS1_EEE17__annotate_deleteB8ue170006Ev, symObjAddr: 0x34D4, symBinAddr: 0x1000349F8, symSize: 0xD4 }
  - { offsetInCU: 0x11ABF, offset: 0x11ABF, size: 0x8, addend: 0x0, symName: __ZNSt3__116allocator_traitsINS_9allocatorI8VerticesEEE10deallocateB8ue170006ERS3_PS2_m, symObjAddr: 0x35A8, symBinAddr: 0x100034ACC, symSize: 0x34 }
  - { offsetInCU: 0x11B01, offset: 0x11B01, size: 0x8, addend: 0x0, symName: __ZNSt3__16vectorI8VerticesNS_9allocatorIS1_EEE7__allocB8ue170006Ev, symObjAddr: 0x35DC, symBinAddr: 0x100034B00, symSize: 0x28 }
  - { offsetInCU: 0x11B26, offset: 0x11B26, size: 0x8, addend: 0x0, symName: __ZNKSt3__16vectorI8VerticesNS_9allocatorIS1_EEE8capacityB8ue170006Ev, symObjAddr: 0x3604, symBinAddr: 0x100034B28, symSize: 0x40 }
  - { offsetInCU: 0x11B4B, offset: 0x11B4B, size: 0x8, addend: 0x0, symName: __ZNSt3__16vectorI8VerticesNS_9allocatorIS1_EEE22__base_destruct_at_endB8ue170006EPS1_, symObjAddr: 0x3644, symBinAddr: 0x100034B68, symSize: 0x8C }
  - { offsetInCU: 0x11B8E, offset: 0x11B8E, size: 0x8, addend: 0x0, symName: __ZNSt3__116allocator_traitsINS_9allocatorI8VerticesEEE7destroyB8ue170006IS2_vEEvRS3_PT_, symObjAddr: 0x36D0, symBinAddr: 0x100034BF4, symSize: 0x2C }
  - { offsetInCU: 0x11BCB, offset: 0x11BCB, size: 0x8, addend: 0x0, symName: __ZNSt3__19allocatorI8VerticesE7destroyB8ue170006EPS1_, symObjAddr: 0x3710, symBinAddr: 0x100034C34, symSize: 0x14 }
  - { offsetInCU: 0x11BFE, offset: 0x11BFE, size: 0x8, addend: 0x0, symName: __ZNKSt3__16vectorI8VerticesNS_9allocatorIS1_EEE31__annotate_contiguous_containerB8ue170006EPKvS6_S6_S6_, symObjAddr: 0x3724, symBinAddr: 0x100034C48, symSize: 0x20 }
  - { offsetInCU: 0x11C4F, offset: 0x11C4F, size: 0x8, addend: 0x0, symName: __ZNKSt3__16vectorI8VerticesNS_9allocatorIS1_EEE4dataB8ue170006Ev, symObjAddr: 0x3744, symBinAddr: 0x100034C68, symSize: 0x28 }
  - { offsetInCU: 0x11C74, offset: 0x11C74, size: 0x8, addend: 0x0, symName: __ZNSt3__19allocatorI8VerticesE10deallocateB8ue170006EPS1_m, symObjAddr: 0x376C, symBinAddr: 0x100034C90, symSize: 0x44 }
  - { offsetInCU: 0x11CB5, offset: 0x11CB5, size: 0x8, addend: 0x0, symName: __ZNSt3__117__compressed_pairIP8VerticesNS_9allocatorIS1_EEE6secondB8ue170006Ev, symObjAddr: 0x37B0, symBinAddr: 0x100034CD4, symSize: 0x24 }
  - { offsetInCU: 0x11CDA, offset: 0x11CDA, size: 0x8, addend: 0x0, symName: __ZNSt3__122__compressed_pair_elemINS_9allocatorI8VerticesEELi1ELb1EE5__getB8ue170006Ev, symObjAddr: 0x37D4, symBinAddr: 0x100034CF8, symSize: 0x14 }
  - { offsetInCU: 0x11CFF, offset: 0x11CFF, size: 0x8, addend: 0x0, symName: __ZNKSt3__16vectorI8VerticesNS_9allocatorIS1_EEE9__end_capB8ue170006Ev, symObjAddr: 0x37E8, symBinAddr: 0x100034D0C, symSize: 0x28 }
  - { offsetInCU: 0x11D24, offset: 0x11D24, size: 0x8, addend: 0x0, symName: __ZNKSt3__117__compressed_pairIP8VerticesNS_9allocatorIS1_EEE5firstB8ue170006Ev, symObjAddr: 0x3810, symBinAddr: 0x100034D34, symSize: 0x24 }
  - { offsetInCU: 0x11D49, offset: 0x11D49, size: 0x8, addend: 0x0, symName: __ZNKSt3__122__compressed_pair_elemIP8VerticesLi0ELb0EE5__getB8ue170006Ev, symObjAddr: 0x3834, symBinAddr: 0x100034D58, symSize: 0x14 }
  - { offsetInCU: 0x11D6D, offset: 0x11D6D, size: 0x8, addend: 0x0, symName: __ZNSt3__16vectorIjNS_9allocatorIjEEED2B8ue170006Ev, symObjAddr: 0x3848, symBinAddr: 0x100034D6C, symSize: 0x44 }
  - { offsetInCU: 0x11D95, offset: 0x11D95, size: 0x8, addend: 0x0, symName: __ZNSt3__16vectorIjNS_9allocatorIjEEE16__destroy_vectorC1B8ue170006ERS3_, symObjAddr: 0x388C, symBinAddr: 0x100034DB0, symSize: 0x34 }
  - { offsetInCU: 0x11DCD, offset: 0x11DCD, size: 0x8, addend: 0x0, symName: __ZNSt3__16vectorIjNS_9allocatorIjEEE16__destroy_vectorclB8ue170006Ev, symObjAddr: 0x38C0, symBinAddr: 0x100034DE4, symSize: 0x90 }
  - { offsetInCU: 0x11DF2, offset: 0x11DF2, size: 0x8, addend: 0x0, symName: __ZNSt3__16vectorIjNS_9allocatorIjEEE16__destroy_vectorC2B8ue170006ERS3_, symObjAddr: 0x3950, symBinAddr: 0x100034E74, symSize: 0x20 }
  - { offsetInCU: 0x11E2A, offset: 0x11E2A, size: 0x8, addend: 0x0, symName: __ZNSt3__16vectorIjNS_9allocatorIjEEE7__clearB8ue170006Ev, symObjAddr: 0x3970, symBinAddr: 0x100034E94, symSize: 0x28 }
  - { offsetInCU: 0x11E4F, offset: 0x11E4F, size: 0x8, addend: 0x0, symName: __ZNKSt3__16vectorIjNS_9allocatorIjEEE17__annotate_deleteB8ue170006Ev, symObjAddr: 0x3998, symBinAddr: 0x100034EBC, symSize: 0xB8 }
  - { offsetInCU: 0x11E74, offset: 0x11E74, size: 0x8, addend: 0x0, symName: __ZNSt3__116allocator_traitsINS_9allocatorIjEEE10deallocateB8ue170006ERS2_Pjm, symObjAddr: 0x3A50, symBinAddr: 0x100034F74, symSize: 0x34 }
  - { offsetInCU: 0x11EB6, offset: 0x11EB6, size: 0x8, addend: 0x0, symName: __ZNSt3__16vectorIjNS_9allocatorIjEEE7__allocB8ue170006Ev, symObjAddr: 0x3A84, symBinAddr: 0x100034FA8, symSize: 0x28 }
  - { offsetInCU: 0x11EDB, offset: 0x11EDB, size: 0x8, addend: 0x0, symName: __ZNKSt3__16vectorIjNS_9allocatorIjEEE8capacityB8ue170006Ev, symObjAddr: 0x3AAC, symBinAddr: 0x100034FD0, symSize: 0x40 }
  - { offsetInCU: 0x11F00, offset: 0x11F00, size: 0x8, addend: 0x0, symName: __ZNSt3__16vectorIjNS_9allocatorIjEEE22__base_destruct_at_endB8ue170006EPj, symObjAddr: 0x3AEC, symBinAddr: 0x100035010, symSize: 0x8C }
  - { offsetInCU: 0x11F43, offset: 0x11F43, size: 0x8, addend: 0x0, symName: __ZNSt3__116allocator_traitsINS_9allocatorIjEEE7destroyB8ue170006IjvEEvRS2_PT_, symObjAddr: 0x3B78, symBinAddr: 0x10003509C, symSize: 0x2C }
  - { offsetInCU: 0x11F80, offset: 0x11F80, size: 0x8, addend: 0x0, symName: __ZNSt3__19allocatorIjE7destroyB8ue170006EPj, symObjAddr: 0x3BB8, symBinAddr: 0x1000350DC, symSize: 0x14 }
  - { offsetInCU: 0x11FB3, offset: 0x11FB3, size: 0x8, addend: 0x0, symName: __ZNKSt3__16vectorIjNS_9allocatorIjEEE31__annotate_contiguous_containerB8ue170006EPKvS5_S5_S5_, symObjAddr: 0x3BCC, symBinAddr: 0x1000350F0, symSize: 0x20 }
  - { offsetInCU: 0x12004, offset: 0x12004, size: 0x8, addend: 0x0, symName: __ZNKSt3__16vectorIjNS_9allocatorIjEEE4dataB8ue170006Ev, symObjAddr: 0x3BEC, symBinAddr: 0x100035110, symSize: 0x28 }
  - { offsetInCU: 0x12029, offset: 0x12029, size: 0x8, addend: 0x0, symName: __ZNSt3__19allocatorIjE10deallocateB8ue170006EPjm, symObjAddr: 0x3C14, symBinAddr: 0x100035138, symSize: 0x40 }
  - { offsetInCU: 0x1206A, offset: 0x1206A, size: 0x8, addend: 0x0, symName: __ZNSt3__117__compressed_pairIPjNS_9allocatorIjEEE6secondB8ue170006Ev, symObjAddr: 0x3C54, symBinAddr: 0x100035178, symSize: 0x24 }
  - { offsetInCU: 0x1208F, offset: 0x1208F, size: 0x8, addend: 0x0, symName: __ZNSt3__122__compressed_pair_elemINS_9allocatorIjEELi1ELb1EE5__getB8ue170006Ev, symObjAddr: 0x3C78, symBinAddr: 0x10003519C, symSize: 0x14 }
  - { offsetInCU: 0x120B4, offset: 0x120B4, size: 0x8, addend: 0x0, symName: __ZNKSt3__16vectorIjNS_9allocatorIjEEE9__end_capB8ue170006Ev, symObjAddr: 0x3C8C, symBinAddr: 0x1000351B0, symSize: 0x28 }
  - { offsetInCU: 0x120D9, offset: 0x120D9, size: 0x8, addend: 0x0, symName: __ZNKSt3__117__compressed_pairIPjNS_9allocatorIjEEE5firstB8ue170006Ev, symObjAddr: 0x3CB4, symBinAddr: 0x1000351D8, symSize: 0x24 }
  - { offsetInCU: 0x120FE, offset: 0x120FE, size: 0x8, addend: 0x0, symName: __ZNKSt3__122__compressed_pair_elemIPjLi0ELb0EE5__getB8ue170006Ev, symObjAddr: 0x3CD8, symBinAddr: 0x1000351FC, symSize: 0x14 }
  - { offsetInCU: 0x12122, offset: 0x12122, size: 0x8, addend: 0x0, symName: __ZNSt3__16vectorIN3glm3vecILi3EfLNS1_9qualifierE0EEENS_9allocatorIS4_EEED2B8ue170006Ev, symObjAddr: 0x3CEC, symBinAddr: 0x100035210, symSize: 0x44 }
  - { offsetInCU: 0x1214A, offset: 0x1214A, size: 0x8, addend: 0x0, symName: __ZNSt3__16vectorIN3glm3vecILi3EfLNS1_9qualifierE0EEENS_9allocatorIS4_EEE16__destroy_vectorC1B8ue170006ERS7_, symObjAddr: 0x3D30, symBinAddr: 0x100035254, symSize: 0x34 }
  - { offsetInCU: 0x12182, offset: 0x12182, size: 0x8, addend: 0x0, symName: __ZNSt3__16vectorIN3glm3vecILi3EfLNS1_9qualifierE0EEENS_9allocatorIS4_EEE16__destroy_vectorclB8ue170006Ev, symObjAddr: 0x3D64, symBinAddr: 0x100035288, symSize: 0x90 }
  - { offsetInCU: 0x121A7, offset: 0x121A7, size: 0x8, addend: 0x0, symName: __ZNSt3__16vectorIN3glm3vecILi3EfLNS1_9qualifierE0EEENS_9allocatorIS4_EEE16__destroy_vectorC2B8ue170006ERS7_, symObjAddr: 0x3DF4, symBinAddr: 0x100035318, symSize: 0x20 }
  - { offsetInCU: 0x121DF, offset: 0x121DF, size: 0x8, addend: 0x0, symName: __ZNSt3__16vectorIN3glm3vecILi3EfLNS1_9qualifierE0EEENS_9allocatorIS4_EEE7__clearB8ue170006Ev, symObjAddr: 0x3E14, symBinAddr: 0x100035338, symSize: 0x28 }
  - { offsetInCU: 0x12204, offset: 0x12204, size: 0x8, addend: 0x0, symName: __ZNKSt3__16vectorIN3glm3vecILi3EfLNS1_9qualifierE0EEENS_9allocatorIS4_EEE17__annotate_deleteB8ue170006Ev, symObjAddr: 0x3E3C, symBinAddr: 0x100035360, symSize: 0xD4 }
  - { offsetInCU: 0x12229, offset: 0x12229, size: 0x8, addend: 0x0, symName: __ZNSt3__116allocator_traitsINS_9allocatorIN3glm3vecILi3EfLNS2_9qualifierE0EEEEEE10deallocateB8ue170006ERS6_PS5_m, symObjAddr: 0x3F10, symBinAddr: 0x100035434, symSize: 0x34 }
  - { offsetInCU: 0x1226B, offset: 0x1226B, size: 0x8, addend: 0x0, symName: __ZNSt3__16vectorIN3glm3vecILi3EfLNS1_9qualifierE0EEENS_9allocatorIS4_EEE7__allocB8ue170006Ev, symObjAddr: 0x3F44, symBinAddr: 0x100035468, symSize: 0x28 }
  - { offsetInCU: 0x12290, offset: 0x12290, size: 0x8, addend: 0x0, symName: __ZNKSt3__16vectorIN3glm3vecILi3EfLNS1_9qualifierE0EEENS_9allocatorIS4_EEE8capacityB8ue170006Ev, symObjAddr: 0x3F6C, symBinAddr: 0x100035490, symSize: 0x40 }
  - { offsetInCU: 0x122B5, offset: 0x122B5, size: 0x8, addend: 0x0, symName: __ZNSt3__16vectorIN3glm3vecILi3EfLNS1_9qualifierE0EEENS_9allocatorIS4_EEE22__base_destruct_at_endB8ue170006EPS4_, symObjAddr: 0x3FAC, symBinAddr: 0x1000354D0, symSize: 0x8C }
  - { offsetInCU: 0x122F8, offset: 0x122F8, size: 0x8, addend: 0x0, symName: __ZNSt3__116allocator_traitsINS_9allocatorIN3glm3vecILi3EfLNS2_9qualifierE0EEEEEE7destroyB8ue170006IS5_vEEvRS6_PT_, symObjAddr: 0x4038, symBinAddr: 0x10003555C, symSize: 0x2C }
  - { offsetInCU: 0x12335, offset: 0x12335, size: 0x8, addend: 0x0, symName: __ZNSt3__19allocatorIN3glm3vecILi3EfLNS1_9qualifierE0EEEE7destroyB8ue170006EPS4_, symObjAddr: 0x4078, symBinAddr: 0x10003559C, symSize: 0x14 }
  - { offsetInCU: 0x12368, offset: 0x12368, size: 0x8, addend: 0x0, symName: __ZNKSt3__16vectorIN3glm3vecILi3EfLNS1_9qualifierE0EEENS_9allocatorIS4_EEE31__annotate_contiguous_containerB8ue170006EPKvS9_S9_S9_, symObjAddr: 0x408C, symBinAddr: 0x1000355B0, symSize: 0x20 }
  - { offsetInCU: 0x123B9, offset: 0x123B9, size: 0x8, addend: 0x0, symName: __ZNKSt3__16vectorIN3glm3vecILi3EfLNS1_9qualifierE0EEENS_9allocatorIS4_EEE4dataB8ue170006Ev, symObjAddr: 0x40AC, symBinAddr: 0x1000355D0, symSize: 0x28 }
  - { offsetInCU: 0x123DE, offset: 0x123DE, size: 0x8, addend: 0x0, symName: __ZNKSt3__16vectorIN3glm3vecILi3EfLNS1_9qualifierE0EEENS_9allocatorIS4_EEE4sizeB8ue170006Ev, symObjAddr: 0x40D4, symBinAddr: 0x1000355F8, symSize: 0x28 }
  - { offsetInCU: 0x12403, offset: 0x12403, size: 0x8, addend: 0x0, symName: __ZNSt3__19allocatorIN3glm3vecILi3EfLNS1_9qualifierE0EEEE10deallocateB8ue170006EPS4_m, symObjAddr: 0x40FC, symBinAddr: 0x100035620, symSize: 0x44 }
  - { offsetInCU: 0x12444, offset: 0x12444, size: 0x8, addend: 0x0, symName: __ZNSt3__117__compressed_pairIPN3glm3vecILi3EfLNS1_9qualifierE0EEENS_9allocatorIS4_EEE6secondB8ue170006Ev, symObjAddr: 0x4140, symBinAddr: 0x100035664, symSize: 0x24 }
  - { offsetInCU: 0x12469, offset: 0x12469, size: 0x8, addend: 0x0, symName: __ZNSt3__122__compressed_pair_elemINS_9allocatorIN3glm3vecILi3EfLNS2_9qualifierE0EEEEELi1ELb1EE5__getB8ue170006Ev, symObjAddr: 0x4164, symBinAddr: 0x100035688, symSize: 0x14 }
  - { offsetInCU: 0x1248E, offset: 0x1248E, size: 0x8, addend: 0x0, symName: __ZNKSt3__16vectorIN3glm3vecILi3EfLNS1_9qualifierE0EEENS_9allocatorIS4_EEE9__end_capB8ue170006Ev, symObjAddr: 0x4178, symBinAddr: 0x10003569C, symSize: 0x28 }
  - { offsetInCU: 0x124B3, offset: 0x124B3, size: 0x8, addend: 0x0, symName: __ZNKSt3__117__compressed_pairIPN3glm3vecILi3EfLNS1_9qualifierE0EEENS_9allocatorIS4_EEE5firstB8ue170006Ev, symObjAddr: 0x41A0, symBinAddr: 0x1000356C4, symSize: 0x24 }
  - { offsetInCU: 0x124D8, offset: 0x124D8, size: 0x8, addend: 0x0, symName: __ZNKSt3__122__compressed_pair_elemIPN3glm3vecILi3EfLNS1_9qualifierE0EEELi0ELb0EE5__getB8ue170006Ev, symObjAddr: 0x41C4, symBinAddr: 0x1000356E8, symSize: 0x14 }
  - { offsetInCU: 0x124FD, offset: 0x124FD, size: 0x8, addend: 0x0, symName: __ZN3glm3vecILi3EfLNS_9qualifierE0EEC2IiiiEET_T0_T1_, symObjAddr: 0x41D8, symBinAddr: 0x1000356FC, symSize: 0x44 }
  - { offsetInCU: 0x1256C, offset: 0x1256C, size: 0x8, addend: 0x0, symName: __ZNSt3__16vectorIfNS_9allocatorIfEEEC2Em, symObjAddr: 0x421C, symBinAddr: 0x100035740, symSize: 0xD4 }
  - { offsetInCU: 0x125BA, offset: 0x125BA, size: 0x8, addend: 0x0, symName: __ZNSt3__117__compressed_pairIPfNS_9allocatorIfEEEC1B8ue170006IDnNS_18__default_init_tagEEEOT_OT0_, symObjAddr: 0x42F0, symBinAddr: 0x100035814, symSize: 0x3C }
  - { offsetInCU: 0x12610, offset: 0x12610, size: 0x8, addend: 0x0, symName: __ZNSt3__16vectorIfNS_9allocatorIfEEE16__destroy_vectorC1B8ue170006ERS3_, symObjAddr: 0x436C, symBinAddr: 0x100035890, symSize: 0x34 }
  - { offsetInCU: 0x12648, offset: 0x12648, size: 0x8, addend: 0x0, symName: __ZNSt3__16vectorIfNS_9allocatorIfEEE11__vallocateB8ue170006Em, symObjAddr: 0x43A0, symBinAddr: 0x1000358C4, symSize: 0xAC }
  - { offsetInCU: 0x1268A, offset: 0x1268A, size: 0x8, addend: 0x0, symName: __ZNSt3__16vectorIfNS_9allocatorIfEEE18__construct_at_endEm, symObjAddr: 0x444C, symBinAddr: 0x100035970, symSize: 0xC8 }
  - { offsetInCU: 0x126FB, offset: 0x126FB, size: 0x8, addend: 0x0, symName: __ZNSt3__128__exception_guard_exceptionsINS_6vectorIfNS_9allocatorIfEEE16__destroy_vectorEE10__completeB8ue170006Ev, symObjAddr: 0x4514, symBinAddr: 0x100035A38, symSize: 0x1C }
  - { offsetInCU: 0x1271F, offset: 0x1271F, size: 0x8, addend: 0x0, symName: __ZNSt3__128__exception_guard_exceptionsINS_6vectorIfNS_9allocatorIfEEE16__destroy_vectorEED1B8ue170006Ev, symObjAddr: 0x4530, symBinAddr: 0x100035A54, symSize: 0x2C }
  - { offsetInCU: 0x12747, offset: 0x12747, size: 0x8, addend: 0x0, symName: __ZNSt3__117__compressed_pairIPfNS_9allocatorIfEEEC2B8ue170006IDnNS_18__default_init_tagEEEOT_OT0_, symObjAddr: 0x455C, symBinAddr: 0x100035A80, symSize: 0x40 }
  - { offsetInCU: 0x1279E, offset: 0x1279E, size: 0x8, addend: 0x0, symName: __ZNSt3__122__compressed_pair_elemIPfLi0ELb0EEC2B8ue170006IDnvEEOT_, symObjAddr: 0x459C, symBinAddr: 0x100035AC0, symSize: 0x1C }
  - { offsetInCU: 0x127DE, offset: 0x127DE, size: 0x8, addend: 0x0, symName: __ZNSt3__122__compressed_pair_elemINS_9allocatorIfEELi1ELb1EEC2B8ue170006ENS_18__default_init_tagE, symObjAddr: 0x45B8, symBinAddr: 0x100035ADC, symSize: 0x2C }
  - { offsetInCU: 0x12811, offset: 0x12811, size: 0x8, addend: 0x0, symName: __ZNSt3__19allocatorIfEC2B8ue170006Ev, symObjAddr: 0x45E4, symBinAddr: 0x100035B08, symSize: 0x2C }
  - { offsetInCU: 0x1283A, offset: 0x1283A, size: 0x8, addend: 0x0, symName: __ZNSt3__116__non_trivial_ifILb1ENS_9allocatorIfEEEC2B8ue170006Ev, symObjAddr: 0x4610, symBinAddr: 0x100035B34, symSize: 0x14 }
  - { offsetInCU: 0x12862, offset: 0x12862, size: 0x8, addend: 0x0, symName: __ZNSt3__128__exception_guard_exceptionsINS_6vectorIfNS_9allocatorIfEEE16__destroy_vectorEEC1B8ue170006ES5_, symObjAddr: 0x4624, symBinAddr: 0x100035B48, symSize: 0x34 }
  - { offsetInCU: 0x12899, offset: 0x12899, size: 0x8, addend: 0x0, symName: __ZNSt3__128__exception_guard_exceptionsINS_6vectorIfNS_9allocatorIfEEE16__destroy_vectorEEC2B8ue170006ES5_, symObjAddr: 0x4658, symBinAddr: 0x100035B7C, symSize: 0x24 }
  - { offsetInCU: 0x128D0, offset: 0x128D0, size: 0x8, addend: 0x0, symName: __ZNSt3__16vectorIfNS_9allocatorIfEEE16__destroy_vectorC2B8ue170006ERS3_, symObjAddr: 0x467C, symBinAddr: 0x100035BA0, symSize: 0x20 }
  - { offsetInCU: 0x12907, offset: 0x12907, size: 0x8, addend: 0x0, symName: __ZNKSt3__16vectorIfNS_9allocatorIfEEE8max_sizeEv, symObjAddr: 0x469C, symBinAddr: 0x100035BC0, symSize: 0x60 }
  - { offsetInCU: 0x1292E, offset: 0x1292E, size: 0x8, addend: 0x0, symName: __ZNKSt3__16vectorIfNS_9allocatorIfEEE20__throw_length_errorB8ue170006Ev, symObjAddr: 0x46FC, symBinAddr: 0x100035C20, symSize: 0x1C }
  - { offsetInCU: 0x12953, offset: 0x12953, size: 0x8, addend: 0x0, symName: __ZNSt3__16vectorIfNS_9allocatorIfEEE7__allocB8ue170006Ev, symObjAddr: 0x4758, symBinAddr: 0x100035C7C, symSize: 0x28 }
  - { offsetInCU: 0x12978, offset: 0x12978, size: 0x8, addend: 0x0, symName: __ZNSt3__16vectorIfNS_9allocatorIfEEE9__end_capB8ue170006Ev, symObjAddr: 0x4780, symBinAddr: 0x100035CA4, symSize: 0x28 }
  - { offsetInCU: 0x1299D, offset: 0x1299D, size: 0x8, addend: 0x0, symName: __ZNKSt3__16vectorIfNS_9allocatorIfEEE14__annotate_newB8ue170006Em, symObjAddr: 0x47A8, symBinAddr: 0x100035CCC, symSize: 0xAC }
  - { offsetInCU: 0x129DB, offset: 0x129DB, size: 0x8, addend: 0x0, symName: __ZNSt3__116allocator_traitsINS_9allocatorIfEEE8max_sizeB8ue170006IS2_vEEmRKS2_, symObjAddr: 0x4880, symBinAddr: 0x100035DA4, symSize: 0x24 }
  - { offsetInCU: 0x12A09, offset: 0x12A09, size: 0x8, addend: 0x0, symName: __ZNKSt3__16vectorIfNS_9allocatorIfEEE7__allocB8ue170006Ev, symObjAddr: 0x48A4, symBinAddr: 0x100035DC8, symSize: 0x28 }
  - { offsetInCU: 0x12A2E, offset: 0x12A2E, size: 0x8, addend: 0x0, symName: __ZNSt3__114numeric_limitsIlE3maxB8ue170006Ev, symObjAddr: 0x48CC, symBinAddr: 0x100035DF0, symSize: 0x14 }
  - { offsetInCU: 0x12A56, offset: 0x12A56, size: 0x8, addend: 0x0, symName: __ZNKSt3__16__lessIvvEclB8ue170006ImmEEbRKT_RKT0_, symObjAddr: 0x4934, symBinAddr: 0x100035E58, symSize: 0x34 }
  - { offsetInCU: 0x12AA9, offset: 0x12AA9, size: 0x8, addend: 0x0, symName: __ZNKSt3__19allocatorIfE8max_sizeB8ue170006Ev, symObjAddr: 0x4968, symBinAddr: 0x100035E8C, symSize: 0x14 }
  - { offsetInCU: 0x12ACE, offset: 0x12ACE, size: 0x8, addend: 0x0, symName: __ZNKSt3__117__compressed_pairIPfNS_9allocatorIfEEE6secondB8ue170006Ev, symObjAddr: 0x497C, symBinAddr: 0x100035EA0, symSize: 0x24 }
  - { offsetInCU: 0x12AF3, offset: 0x12AF3, size: 0x8, addend: 0x0, symName: __ZNKSt3__122__compressed_pair_elemINS_9allocatorIfEELi1ELb1EE5__getB8ue170006Ev, symObjAddr: 0x49A0, symBinAddr: 0x100035EC4, symSize: 0x14 }
  - { offsetInCU: 0x12B18, offset: 0x12B18, size: 0x8, addend: 0x0, symName: __ZNSt3__123__libcpp_numeric_limitsIlLb1EE3maxB8ue170006Ev, symObjAddr: 0x49B4, symBinAddr: 0x100035ED8, symSize: 0x8 }
  - { offsetInCU: 0x12B2B, offset: 0x12B2B, size: 0x8, addend: 0x0, symName: __ZNSt12length_errorC1B8ue170006EPKc, symObjAddr: 0x4A20, symBinAddr: 0x100035F44, symSize: 0x34 }
  - { offsetInCU: 0x12B61, offset: 0x12B61, size: 0x8, addend: 0x0, symName: __ZNSt12length_errorC2B8ue170006EPKc, symObjAddr: 0x4A54, symBinAddr: 0x100035F78, symSize: 0x4C }
  - { offsetInCU: 0x12B98, offset: 0x12B98, size: 0x8, addend: 0x0, symName: __ZNSt3__19allocatorIfE8allocateB8ue170006Em, symObjAddr: 0x4AA0, symBinAddr: 0x100035FC4, symSize: 0x58 }
  - { offsetInCU: 0x12BCB, offset: 0x12BCB, size: 0x8, addend: 0x0, symName: __ZNSt3__117__compressed_pairIPfNS_9allocatorIfEEE6secondB8ue170006Ev, symObjAddr: 0x4B78, symBinAddr: 0x10003609C, symSize: 0x24 }
  - { offsetInCU: 0x12BF0, offset: 0x12BF0, size: 0x8, addend: 0x0, symName: __ZNSt3__122__compressed_pair_elemINS_9allocatorIfEELi1ELb1EE5__getB8ue170006Ev, symObjAddr: 0x4B9C, symBinAddr: 0x1000360C0, symSize: 0x14 }
  - { offsetInCU: 0x12C15, offset: 0x12C15, size: 0x8, addend: 0x0, symName: __ZNSt3__117__compressed_pairIPfNS_9allocatorIfEEE5firstB8ue170006Ev, symObjAddr: 0x4BB0, symBinAddr: 0x1000360D4, symSize: 0x24 }
  - { offsetInCU: 0x12C3A, offset: 0x12C3A, size: 0x8, addend: 0x0, symName: __ZNSt3__122__compressed_pair_elemIPfLi0ELb0EE5__getB8ue170006Ev, symObjAddr: 0x4BD4, symBinAddr: 0x1000360F8, symSize: 0x14 }
  - { offsetInCU: 0x12C5F, offset: 0x12C5F, size: 0x8, addend: 0x0, symName: __ZNKSt3__16vectorIfNS_9allocatorIfEEE31__annotate_contiguous_containerB8ue170006EPKvS5_S5_S5_, symObjAddr: 0x4BE8, symBinAddr: 0x10003610C, symSize: 0x20 }
  - { offsetInCU: 0x12CB0, offset: 0x12CB0, size: 0x8, addend: 0x0, symName: __ZNKSt3__16vectorIfNS_9allocatorIfEEE4dataB8ue170006Ev, symObjAddr: 0x4C08, symBinAddr: 0x10003612C, symSize: 0x28 }
  - { offsetInCU: 0x12CD5, offset: 0x12CD5, size: 0x8, addend: 0x0, symName: __ZNKSt3__16vectorIfNS_9allocatorIfEEE8capacityB8ue170006Ev, symObjAddr: 0x4C30, symBinAddr: 0x100036154, symSize: 0x40 }
  - { offsetInCU: 0x12CFA, offset: 0x12CFA, size: 0x8, addend: 0x0, symName: __ZNKSt3__16vectorIfNS_9allocatorIfEEE9__end_capB8ue170006Ev, symObjAddr: 0x4C84, symBinAddr: 0x1000361A8, symSize: 0x28 }
  - { offsetInCU: 0x12D1F, offset: 0x12D1F, size: 0x8, addend: 0x0, symName: __ZNKSt3__117__compressed_pairIPfNS_9allocatorIfEEE5firstB8ue170006Ev, symObjAddr: 0x4CAC, symBinAddr: 0x1000361D0, symSize: 0x24 }
  - { offsetInCU: 0x12D44, offset: 0x12D44, size: 0x8, addend: 0x0, symName: __ZNKSt3__122__compressed_pair_elemIPfLi0ELb0EE5__getB8ue170006Ev, symObjAddr: 0x4CD0, symBinAddr: 0x1000361F4, symSize: 0x14 }
  - { offsetInCU: 0x12D81, offset: 0x12D81, size: 0x8, addend: 0x0, symName: __ZNSt3__16vectorIfNS_9allocatorIfEEE21_ConstructTransactionC1B8ue170006ERS3_m, symObjAddr: 0x4CE4, symBinAddr: 0x100036208, symSize: 0x3C }
  - { offsetInCU: 0x12DC8, offset: 0x12DC8, size: 0x8, addend: 0x0, symName: __ZNSt3__116allocator_traitsINS_9allocatorIfEEE9constructB8ue170006IfJEvEEvRS2_PT_DpOT0_, symObjAddr: 0x4D20, symBinAddr: 0x100036244, symSize: 0x2C }
  - { offsetInCU: 0x12E09, offset: 0x12E09, size: 0x8, addend: 0x0, symName: __ZNSt3__16vectorIfNS_9allocatorIfEEE21_ConstructTransactionD1B8ue170006Ev, symObjAddr: 0x4D4C, symBinAddr: 0x100036270, symSize: 0x2C }
  - { offsetInCU: 0x12E32, offset: 0x12E32, size: 0x8, addend: 0x0, symName: __ZNSt3__16vectorIfNS_9allocatorIfEEE21_ConstructTransactionC2B8ue170006ERS3_m, symObjAddr: 0x4D78, symBinAddr: 0x10003629C, symSize: 0x44 }
  - { offsetInCU: 0x12E79, offset: 0x12E79, size: 0x8, addend: 0x0, symName: __ZNSt3__19allocatorIfE9constructB8ue170006IfJEEEvPT_DpOT0_, symObjAddr: 0x4DBC, symBinAddr: 0x1000362E0, symSize: 0x20 }
  - { offsetInCU: 0x12EBA, offset: 0x12EBA, size: 0x8, addend: 0x0, symName: __ZNSt3__16vectorIfNS_9allocatorIfEEE21_ConstructTransactionD2B8ue170006Ev, symObjAddr: 0x4DDC, symBinAddr: 0x100036300, symSize: 0x20 }
  - { offsetInCU: 0x12EE2, offset: 0x12EE2, size: 0x8, addend: 0x0, symName: __ZNSt3__128__exception_guard_exceptionsINS_6vectorIfNS_9allocatorIfEEE16__destroy_vectorEED2B8ue170006Ev, symObjAddr: 0x4DFC, symBinAddr: 0x100036320, symSize: 0x50 }
  - { offsetInCU: 0x12F0B, offset: 0x12F0B, size: 0x8, addend: 0x0, symName: __ZNSt3__16vectorIfNS_9allocatorIfEEE16__destroy_vectorclB8ue170006Ev, symObjAddr: 0x4E4C, symBinAddr: 0x100036370, symSize: 0x90 }
  - { offsetInCU: 0x12F30, offset: 0x12F30, size: 0x8, addend: 0x0, symName: __ZNSt3__16vectorIfNS_9allocatorIfEEE7__clearB8ue170006Ev, symObjAddr: 0x4EDC, symBinAddr: 0x100036400, symSize: 0x28 }
  - { offsetInCU: 0x12F55, offset: 0x12F55, size: 0x8, addend: 0x0, symName: __ZNKSt3__16vectorIfNS_9allocatorIfEEE17__annotate_deleteB8ue170006Ev, symObjAddr: 0x4F04, symBinAddr: 0x100036428, symSize: 0xB8 }
  - { offsetInCU: 0x12F7A, offset: 0x12F7A, size: 0x8, addend: 0x0, symName: __ZNSt3__116allocator_traitsINS_9allocatorIfEEE10deallocateB8ue170006ERS2_Pfm, symObjAddr: 0x4FBC, symBinAddr: 0x1000364E0, symSize: 0x34 }
  - { offsetInCU: 0x12FBC, offset: 0x12FBC, size: 0x8, addend: 0x0, symName: __ZNSt3__16vectorIfNS_9allocatorIfEEE22__base_destruct_at_endB8ue170006EPf, symObjAddr: 0x4FF0, symBinAddr: 0x100036514, symSize: 0x8C }
  - { offsetInCU: 0x12FFF, offset: 0x12FFF, size: 0x8, addend: 0x0, symName: __ZNSt3__116allocator_traitsINS_9allocatorIfEEE7destroyB8ue170006IfvEEvRS2_PT_, symObjAddr: 0x507C, symBinAddr: 0x1000365A0, symSize: 0x2C }
  - { offsetInCU: 0x1303C, offset: 0x1303C, size: 0x8, addend: 0x0, symName: __ZNSt3__19allocatorIfE7destroyB8ue170006EPf, symObjAddr: 0x50A8, symBinAddr: 0x1000365CC, symSize: 0x14 }
  - { offsetInCU: 0x1306F, offset: 0x1306F, size: 0x8, addend: 0x0, symName: __ZNKSt3__16vectorIfNS_9allocatorIfEEE4sizeB8ue170006Ev, symObjAddr: 0x50BC, symBinAddr: 0x1000365E0, symSize: 0x28 }
  - { offsetInCU: 0x13094, offset: 0x13094, size: 0x8, addend: 0x0, symName: __ZNSt3__19allocatorIfE10deallocateB8ue170006EPfm, symObjAddr: 0x50E4, symBinAddr: 0x100036608, symSize: 0x40 }
  - { offsetInCU: 0x130D4, offset: 0x130D4, size: 0x8, addend: 0x0, symName: __ZNSt3__16vectorIfNS_9allocatorIfEEED2B8ue170006Ev, symObjAddr: 0x5124, symBinAddr: 0x100036648, symSize: 0x40 }
  - { offsetInCU: 0x130FC, offset: 0x130FC, size: 0x8, addend: 0x0, symName: __ZNSt3__16vectorINS0_IfNS_9allocatorIfEEEENS1_IS3_EEEC2EmRKS3_, symObjAddr: 0x5164, symBinAddr: 0x100036688, symSize: 0xDC }
  - { offsetInCU: 0x1315A, offset: 0x1315A, size: 0x8, addend: 0x0, symName: __ZNSt3__16vectorINS0_IfNS_9allocatorIfEEEENS1_IS3_EEE11__vallocateB8ue170006Em, symObjAddr: 0x5280, symBinAddr: 0x1000367A4, symSize: 0xB4 }
  - { offsetInCU: 0x1319C, offset: 0x1319C, size: 0x8, addend: 0x0, symName: __ZNSt3__16vectorINS0_IfNS_9allocatorIfEEEENS1_IS3_EEE18__construct_at_endEmRKS3_, symObjAddr: 0x5334, symBinAddr: 0x100036858, symSize: 0xD0 }
  - { offsetInCU: 0x1321C, offset: 0x1321C, size: 0x8, addend: 0x0, symName: __ZNSt3__128__exception_guard_exceptionsINS_6vectorINS1_IfNS_9allocatorIfEEEENS2_IS4_EEE16__destroy_vectorEE10__completeB8ue170006Ev, symObjAddr: 0x5404, symBinAddr: 0x100036928, symSize: 0x1C }
  - { offsetInCU: 0x13240, offset: 0x13240, size: 0x8, addend: 0x0, symName: __ZNSt3__128__exception_guard_exceptionsINS_6vectorINS1_IfNS_9allocatorIfEEEENS2_IS4_EEE16__destroy_vectorEED1B8ue170006Ev, symObjAddr: 0x5420, symBinAddr: 0x100036944, symSize: 0x2C }
  - { offsetInCU: 0x13268, offset: 0x13268, size: 0x8, addend: 0x0, symName: __ZNSt3__128__exception_guard_exceptionsINS_6vectorINS1_IfNS_9allocatorIfEEEENS2_IS4_EEE16__destroy_vectorEEC1B8ue170006ES7_, symObjAddr: 0x544C, symBinAddr: 0x100036970, symSize: 0x34 }
  - { offsetInCU: 0x1329F, offset: 0x1329F, size: 0x8, addend: 0x0, symName: __ZNSt3__128__exception_guard_exceptionsINS_6vectorINS1_IfNS_9allocatorIfEEEENS2_IS4_EEE16__destroy_vectorEEC2B8ue170006ES7_, symObjAddr: 0x5480, symBinAddr: 0x1000369A4, symSize: 0x24 }
  - { offsetInCU: 0x132D5, offset: 0x132D5, size: 0x8, addend: 0x0, symName: __ZNKSt3__16vectorINS0_IfNS_9allocatorIfEEEENS1_IS3_EEE8max_sizeEv, symObjAddr: 0x54A4, symBinAddr: 0x1000369C8, symSize: 0x60 }
  - { offsetInCU: 0x132FC, offset: 0x132FC, size: 0x8, addend: 0x0, symName: __ZNKSt3__16vectorINS0_IfNS_9allocatorIfEEEENS1_IS3_EEE20__throw_length_errorB8ue170006Ev, symObjAddr: 0x5504, symBinAddr: 0x100036A28, symSize: 0x1C }
  - { offsetInCU: 0x13321, offset: 0x13321, size: 0x8, addend: 0x0, symName: __ZNSt3__16vectorINS0_IfNS_9allocatorIfEEEENS1_IS3_EEE9__end_capB8ue170006Ev, symObjAddr: 0x5560, symBinAddr: 0x100036A84, symSize: 0x28 }
  - { offsetInCU: 0x13346, offset: 0x13346, size: 0x8, addend: 0x0, symName: __ZNKSt3__16vectorINS0_IfNS_9allocatorIfEEEENS1_IS3_EEE14__annotate_newB8ue170006Em, symObjAddr: 0x5588, symBinAddr: 0x100036AAC, symSize: 0xC8 }
  - { offsetInCU: 0x13384, offset: 0x13384, size: 0x8, addend: 0x0, symName: __ZNSt3__116allocator_traitsINS_9allocatorINS_6vectorIfNS1_IfEEEEEEE8max_sizeB8ue170006IS5_vEEmRKS5_, symObjAddr: 0x5650, symBinAddr: 0x100036B74, symSize: 0x24 }
  - { offsetInCU: 0x133B2, offset: 0x133B2, size: 0x8, addend: 0x0, symName: __ZNKSt3__16vectorINS0_IfNS_9allocatorIfEEEENS1_IS3_EEE7__allocB8ue170006Ev, symObjAddr: 0x5674, symBinAddr: 0x100036B98, symSize: 0x28 }
  - { offsetInCU: 0x133D7, offset: 0x133D7, size: 0x8, addend: 0x0, symName: __ZNKSt3__19allocatorINS_6vectorIfNS0_IfEEEEE8max_sizeB8ue170006Ev, symObjAddr: 0x569C, symBinAddr: 0x100036BC0, symSize: 0x18 }
  - { offsetInCU: 0x133FC, offset: 0x133FC, size: 0x8, addend: 0x0, symName: __ZNKSt3__117__compressed_pairIPNS_6vectorIfNS_9allocatorIfEEEENS2_IS4_EEE6secondB8ue170006Ev, symObjAddr: 0x56B4, symBinAddr: 0x100036BD8, symSize: 0x24 }
  - { offsetInCU: 0x13421, offset: 0x13421, size: 0x8, addend: 0x0, symName: __ZNKSt3__122__compressed_pair_elemINS_9allocatorINS_6vectorIfNS1_IfEEEEEELi1ELb1EE5__getB8ue170006Ev, symObjAddr: 0x56D8, symBinAddr: 0x100036BFC, symSize: 0x14 }
  - { offsetInCU: 0x13446, offset: 0x13446, size: 0x8, addend: 0x0, symName: __ZNSt3__19allocatorINS_6vectorIfNS0_IfEEEEE8allocateB8ue170006Em, symObjAddr: 0x56EC, symBinAddr: 0x100036C10, symSize: 0x5C }
  - { offsetInCU: 0x13479, offset: 0x13479, size: 0x8, addend: 0x0, symName: __ZNSt3__117__compressed_pairIPNS_6vectorIfNS_9allocatorIfEEEENS2_IS4_EEE5firstB8ue170006Ev, symObjAddr: 0x5748, symBinAddr: 0x100036C6C, symSize: 0x24 }
  - { offsetInCU: 0x1349E, offset: 0x1349E, size: 0x8, addend: 0x0, symName: __ZNSt3__122__compressed_pair_elemIPNS_6vectorIfNS_9allocatorIfEEEELi0ELb0EE5__getB8ue170006Ev, symObjAddr: 0x576C, symBinAddr: 0x100036C90, symSize: 0x14 }
  - { offsetInCU: 0x134DB, offset: 0x134DB, size: 0x8, addend: 0x0, symName: __ZNSt3__16vectorINS0_IfNS_9allocatorIfEEEENS1_IS3_EEE21_ConstructTransactionC1B8ue170006ERS5_m, symObjAddr: 0x5780, symBinAddr: 0x100036CA4, symSize: 0x3C }
  - { offsetInCU: 0x13522, offset: 0x13522, size: 0x8, addend: 0x0, symName: __ZNSt3__116allocator_traitsINS_9allocatorINS_6vectorIfNS1_IfEEEEEEE9constructB8ue170006IS4_JRKS4_EvEEvRS5_PT_DpOT0_, symObjAddr: 0x57BC, symBinAddr: 0x100036CE0, symSize: 0x34 }
  - { offsetInCU: 0x13578, offset: 0x13578, size: 0x8, addend: 0x0, symName: __ZNSt3__16vectorINS0_IfNS_9allocatorIfEEEENS1_IS3_EEE21_ConstructTransactionD1B8ue170006Ev, symObjAddr: 0x57F0, symBinAddr: 0x100036D14, symSize: 0x2C }
  - { offsetInCU: 0x135A1, offset: 0x135A1, size: 0x8, addend: 0x0, symName: __ZNSt3__16vectorINS0_IfNS_9allocatorIfEEEENS1_IS3_EEE21_ConstructTransactionC2B8ue170006ERS5_m, symObjAddr: 0x581C, symBinAddr: 0x100036D40, symSize: 0x4C }
  - { offsetInCU: 0x135E8, offset: 0x135E8, size: 0x8, addend: 0x0, symName: __ZNSt3__19allocatorINS_6vectorIfNS0_IfEEEEE9constructB8ue170006IS3_JRKS3_EEEvPT_DpOT0_, symObjAddr: 0x5868, symBinAddr: 0x100036D8C, symSize: 0x30 }
  - { offsetInCU: 0x1363C, offset: 0x1363C, size: 0x8, addend: 0x0, symName: __ZNSt3__16vectorIfNS_9allocatorIfEEEC1ERKS3_, symObjAddr: 0x5898, symBinAddr: 0x100036DBC, symSize: 0x34 }
  - { offsetInCU: 0x13675, offset: 0x13675, size: 0x8, addend: 0x0, symName: __ZNSt3__16vectorIfNS_9allocatorIfEEEC2ERKS3_, symObjAddr: 0x58CC, symBinAddr: 0x100036DF0, symSize: 0x94 }
  - { offsetInCU: 0x136AF, offset: 0x136AF, size: 0x8, addend: 0x0, symName: __ZNSt3__116allocator_traitsINS_9allocatorIfEEE37select_on_container_copy_constructionB8ue170006IS2_vvEES2_RKS2_, symObjAddr: 0x5960, symBinAddr: 0x100036E84, symSize: 0x10 }
  - { offsetInCU: 0x136E2, offset: 0x136E2, size: 0x8, addend: 0x0, symName: __ZNSt3__117__compressed_pairIPfNS_9allocatorIfEEEC1B8ue170006IDnS3_EEOT_OT0_, symObjAddr: 0x5970, symBinAddr: 0x100036E94, symSize: 0x3C }
  - { offsetInCU: 0x13739, offset: 0x13739, size: 0x8, addend: 0x0, symName: __ZNSt3__16vectorIfNS_9allocatorIfEEE16__init_with_sizeB8ue170006IPfS5_EEvT_T0_m, symObjAddr: 0x59AC, symBinAddr: 0x100036ED0, symSize: 0xB8 }
  - { offsetInCU: 0x137AB, offset: 0x137AB, size: 0x8, addend: 0x0, symName: __ZNSt3__117__compressed_pairIPfNS_9allocatorIfEEEC2B8ue170006IDnS3_EEOT_OT0_, symObjAddr: 0x5A64, symBinAddr: 0x100036F88, symSize: 0x44 }
  - { offsetInCU: 0x13802, offset: 0x13802, size: 0x8, addend: 0x0, symName: __ZNSt3__122__compressed_pair_elemINS_9allocatorIfEELi1ELb1EEC2B8ue170006IS2_vEEOT_, symObjAddr: 0x5AA8, symBinAddr: 0x100036FCC, symSize: 0x18 }
  - { offsetInCU: 0x13842, offset: 0x13842, size: 0x8, addend: 0x0, symName: __ZNSt3__16vectorIfNS_9allocatorIfEEE18__construct_at_endIPfS5_EEvT_T0_m, symObjAddr: 0x5AC0, symBinAddr: 0x100036FE4, symSize: 0x8C }
  - { offsetInCU: 0x138D4, offset: 0x138D4, size: 0x8, addend: 0x0, symName: __ZNSt3__14pairIPfS1_EC1B8ue170006IS1_S1_LPv0EEEOT_OT0_, symObjAddr: 0x5CFC, symBinAddr: 0x100037220, symSize: 0x3C }
  - { offsetInCU: 0x13931, offset: 0x13931, size: 0x8, addend: 0x0, symName: __ZNSt3__14pairIPfS1_EC2B8ue170006IS1_S1_LPv0EEEOT_OT0_, symObjAddr: 0x5D38, symBinAddr: 0x10003725C, symSize: 0x34 }
  - { offsetInCU: 0x13998, offset: 0x13998, size: 0x8, addend: 0x0, symName: __ZNKSt3__114__copy_trivialclB8ue170006IffLi0EEENS_4pairIPT_PT0_EES4_S4_S6_, symObjAddr: 0x5EE8, symBinAddr: 0x10003740C, symSize: 0x48 }
  - { offsetInCU: 0x139FE, offset: 0x139FE, size: 0x8, addend: 0x0, symName: __ZNSt3__14pairIPfS1_EC1B8ue170006IRS1_S1_LPv0EEEOT_OT0_, symObjAddr: 0x6078, symBinAddr: 0x10003759C, symSize: 0x3C }
  - { offsetInCU: 0x13A5B, offset: 0x13A5B, size: 0x8, addend: 0x0, symName: __ZNSt3__14pairIPfS1_EC2B8ue170006IRS1_S1_LPv0EEEOT_OT0_, symObjAddr: 0x60B4, symBinAddr: 0x1000375D8, symSize: 0x34 }
  - { offsetInCU: 0x13AB8, offset: 0x13AB8, size: 0x8, addend: 0x0, symName: __ZNSt3__118__unwrap_iter_implIPfLb1EE8__unwrapB8ue170006ES1_, symObjAddr: 0x60E8, symBinAddr: 0x10003760C, symSize: 0x24 }
  - { offsetInCU: 0x13ADB, offset: 0x13ADB, size: 0x8, addend: 0x0, symName: __ZNSt3__118__unwrap_iter_implIPfLb1EE8__rewrapB8ue170006ES1_S1_, symObjAddr: 0x610C, symBinAddr: 0x100037630, symSize: 0x50 }
  - { offsetInCU: 0x13B0C, offset: 0x13B0C, size: 0x8, addend: 0x0, symName: __ZNSt3__16vectorINS0_IfNS_9allocatorIfEEEENS1_IS3_EEE21_ConstructTransactionD2B8ue170006Ev, symObjAddr: 0x615C, symBinAddr: 0x100037680, symSize: 0x20 }
  - { offsetInCU: 0x13B34, offset: 0x13B34, size: 0x8, addend: 0x0, symName: __ZNSt3__128__exception_guard_exceptionsINS_6vectorINS1_IfNS_9allocatorIfEEEENS2_IS4_EEE16__destroy_vectorEED2B8ue170006Ev, symObjAddr: 0x617C, symBinAddr: 0x1000376A0, symSize: 0x48 }
  - { offsetInCU: 0x13B5C, offset: 0x13B5C, size: 0x8, addend: 0x0, symName: __ZNSt3__16vectorINS0_IfNS_9allocatorIfEEEENS1_IS3_EEE13__move_assignERS5_NS_17integral_constantIbLb1EEE, symObjAddr: 0x61C4, symBinAddr: 0x1000376E8, symSize: 0x94 }
  - { offsetInCU: 0x13B9C, offset: 0x13B9C, size: 0x8, addend: 0x0, symName: __ZNSt3__16vectorINS0_IfNS_9allocatorIfEEEENS1_IS3_EEE13__vdeallocateEv, symObjAddr: 0x6258, symBinAddr: 0x10003777C, symSize: 0x94 }
  - { offsetInCU: 0x13BC3, offset: 0x13BC3, size: 0x8, addend: 0x0, symName: __ZNSt3__16vectorINS0_IfNS_9allocatorIfEEEENS1_IS3_EEE19__move_assign_allocB8ue170006ERS5_, symObjAddr: 0x62EC, symBinAddr: 0x100037810, symSize: 0x2C }
  - { offsetInCU: 0x13BF7, offset: 0x13BF7, size: 0x8, addend: 0x0, symName: __ZNSt3__16vectorINS0_IfNS_9allocatorIfEEEENS1_IS3_EEE5clearB8ue170006Ev, symObjAddr: 0x6318, symBinAddr: 0x10003783C, symSize: 0x44 }
  - { offsetInCU: 0x13C2B, offset: 0x13C2B, size: 0x8, addend: 0x0, symName: __ZNKSt3__16vectorINS0_IfNS_9allocatorIfEEEENS1_IS3_EEE17__annotate_shrinkB8ue170006Em, symObjAddr: 0x635C, symBinAddr: 0x100037880, symSize: 0xD0 }
  - { offsetInCU: 0x13C5F, offset: 0x13C5F, size: 0x8, addend: 0x0, symName: __ZNSt3__16vectorINS0_IfNS_9allocatorIfEEEENS1_IS3_EEE19__move_assign_allocB8ue170006ERS5_NS_17integral_constantIbLb1EEE, symObjAddr: 0x642C, symBinAddr: 0x100037950, symSize: 0x38 }
  - { offsetInCU: 0x13C9D, offset: 0x13C9D, size: 0x8, addend: 0x0, symName: __ZN3glm3vecILi4EfLNS_9qualifierE0EEC1Effff, symObjAddr: 0x64F8, symBinAddr: 0x100037A1C, symSize: 0x4C }
  - { offsetInCU: 0x13CFF, offset: 0x13CFF, size: 0x8, addend: 0x0, symName: __ZN3glm3vecILi4EfLNS_9qualifierE0EEC1IddddEET_T0_T1_T2_, symObjAddr: 0x6544, symBinAddr: 0x100037A68, symSize: 0x4C }
  - { offsetInCU: 0x13D85, offset: 0x13D85, size: 0x8, addend: 0x0, symName: __ZN3glm3vecILi4EfLNS_9qualifierE0EEC1Ef, symObjAddr: 0x6670, symBinAddr: 0x100037B94, symSize: 0x34 }
  - { offsetInCU: 0x13DBE, offset: 0x13DBE, size: 0x8, addend: 0x0, symName: __ZN3glm3vecILi2EfLNS_9qualifierE0EEmLIfEERS2_T_, symObjAddr: 0x6964, symBinAddr: 0x100037E88, symSize: 0x38 }
  - { offsetInCU: 0x13DFC, offset: 0x13DFC, size: 0x8, addend: 0x0, symName: __ZN3glm3vecILi4EfLNS_9qualifierE0EEpLIfEERS2_RKNS0_ILi4ET_LS1_0EEE, symObjAddr: 0x6AD4, symBinAddr: 0x100037FF8, symSize: 0x58 }
  - { offsetInCU: 0x13E3C, offset: 0x13E3C, size: 0x8, addend: 0x0, symName: __ZN3glm6detail16compute_vec4_addIfLNS_9qualifierE0ELb0EE4callERKNS_3vecILi4EfLS2_0EEES7_, symObjAddr: 0x6B2C, symBinAddr: 0x100038050, symSize: 0x88 }
  - { offsetInCU: 0x13E6D, offset: 0x13E6D, size: 0x8, addend: 0x0, symName: __ZN3glm6detail13compute_floorILi4EfLNS_9qualifierE0ELb0EE4callERKNS_3vecILi4EfLS2_0EEE, symObjAddr: 0x6BB4, symBinAddr: 0x1000380D8, symSize: 0x4C }
  - { offsetInCU: 0x13EA0, offset: 0x13EA0, size: 0x8, addend: 0x0, symName: __ZN3glm6detail8functor1INS_3vecELi4EffLNS_9qualifierE0EE4callEPFffERKNS2_ILi4EfLS3_0EEE, symObjAddr: 0x6C00, symBinAddr: 0x100038124, symSize: 0x94 }
  - { offsetInCU: 0x13ED1, offset: 0x13ED1, size: 0x8, addend: 0x0, symName: __Z5floorB8ue170006f, symObjAddr: 0x6C94, symBinAddr: 0x1000381B8, symSize: 0x18 }
  - { offsetInCU: 0x13F00, offset: 0x13F00, size: 0x8, addend: 0x0, symName: __ZN3glm3vecILi4EfLNS_9qualifierE0EEC2Effff, symObjAddr: 0x6CAC, symBinAddr: 0x1000381D0, symSize: 0x44 }
  - { offsetInCU: 0x13F63, offset: 0x13F63, size: 0x8, addend: 0x0, symName: __ZN3glm3vecILi4EfLNS_9qualifierE0EEC2IddddEET_T0_T1_T2_, symObjAddr: 0x6CF0, symBinAddr: 0x100038214, symSize: 0x54 }
  - { offsetInCU: 0x13FEA, offset: 0x13FEA, size: 0x8, addend: 0x0, symName: __ZN3glm3vecILi4EfLNS_9qualifierE0EEmIIfEERS2_RKNS0_ILi4ET_LS1_0EEE, symObjAddr: 0x6D44, symBinAddr: 0x100038268, symSize: 0x58 }
  - { offsetInCU: 0x1402A, offset: 0x1402A, size: 0x8, addend: 0x0, symName: __ZN3glm6detail16compute_vec4_subIfLNS_9qualifierE0ELb0EE4callERKNS_3vecILi4EfLS2_0EEES7_, symObjAddr: 0x6D9C, symBinAddr: 0x1000382C0, symSize: 0x88 }
  - { offsetInCU: 0x1405B, offset: 0x1405B, size: 0x8, addend: 0x0, symName: __ZN3glm6detail13compute_fractILi4EfLNS_9qualifierE0ELb0EE4callERKNS_3vecILi4EfLS2_0EEE, symObjAddr: 0x6E24, symBinAddr: 0x100038348, symSize: 0x68 }
  - { offsetInCU: 0x1407E, offset: 0x1407E, size: 0x8, addend: 0x0, symName: __ZN3glm6detail11compute_modILi4EfLNS_9qualifierE0ELb0EE4callERKNS_3vecILi4EfLS2_0EEES7_, symObjAddr: 0x6E8C, symBinAddr: 0x1000383B0, symSize: 0xAC }
  - { offsetInCU: 0x140AF, offset: 0x140AF, size: 0x8, addend: 0x0, symName: __ZN3glm3vecILi4EfLNS_9qualifierE0EEmLIfEERS2_RKNS0_ILi4ET_LS1_0EEE, symObjAddr: 0x6FD8, symBinAddr: 0x1000384FC, symSize: 0x58 }
  - { offsetInCU: 0x140EF, offset: 0x140EF, size: 0x8, addend: 0x0, symName: __ZN3glm6detail16compute_vec4_mulIfLNS_9qualifierE0ELb0EE4callERKNS_3vecILi4EfLS2_0EEES7_, symObjAddr: 0x7030, symBinAddr: 0x100038554, symSize: 0x88 }
  - { offsetInCU: 0x14120, offset: 0x14120, size: 0x8, addend: 0x0, symName: __ZN3glm3vecILi4EfLNS_9qualifierE0EEdVIfEERS2_RKNS0_ILi4ET_LS1_0EEE, symObjAddr: 0x70B8, symBinAddr: 0x1000385DC, symSize: 0x58 }
  - { offsetInCU: 0x14160, offset: 0x14160, size: 0x8, addend: 0x0, symName: __ZN3glm6detail16compute_vec4_divIfLNS_9qualifierE0ELb0EE4callERKNS_3vecILi4EfLS2_0EEES7_, symObjAddr: 0x7110, symBinAddr: 0x100038634, symSize: 0x88 }
  - { offsetInCU: 0x14191, offset: 0x14191, size: 0x8, addend: 0x0, symName: __ZN3glm3vecILi4EfLNS_9qualifierE0EEC2Ef, symObjAddr: 0x7198, symBinAddr: 0x1000386BC, symSize: 0x38 }
  - { offsetInCU: 0x141CA, offset: 0x141CA, size: 0x8, addend: 0x0, symName: __ZN3glm3vecILi4EfLNS_9qualifierE0EEmLIfEERS2_T_, symObjAddr: 0x732C, symBinAddr: 0x100038850, symSize: 0x60 }
  - { offsetInCU: 0x1420A, offset: 0x1420A, size: 0x8, addend: 0x0, symName: __ZN3glm3vecILi4EfLNS_9qualifierE0EEmIIfEERS2_T_, symObjAddr: 0x738C, symBinAddr: 0x1000388B0, symSize: 0x60 }
  - { offsetInCU: 0x1424A, offset: 0x1424A, size: 0x8, addend: 0x0, symName: __ZN3glm3vecILi4EfLNS_9qualifierE0EEdVIfEERS2_T_, symObjAddr: 0x73EC, symBinAddr: 0x100038910, symSize: 0x60 }
  - { offsetInCU: 0x1428A, offset: 0x1428A, size: 0x8, addend: 0x0, symName: __ZN3glm6detail18compute_abs_vectorILi4EfLNS_9qualifierE0ELb0EE4callERKNS_3vecILi4EfLS2_0EEE, symObjAddr: 0x744C, symBinAddr: 0x100038970, symSize: 0x4C }
  - { offsetInCU: 0x142AD, offset: 0x142AD, size: 0x8, addend: 0x0, symName: __ZN3glm6detail11compute_absIfLb1EE4callEf, symObjAddr: 0x74BC, symBinAddr: 0x1000389E0, symSize: 0x44 }
  - { offsetInCU: 0x142D0, offset: 0x142D0, size: 0x8, addend: 0x0, symName: __ZN3glm3vecILi4EfLNS_9qualifierE0EEpLIfEERS2_T_, symObjAddr: 0x7500, symBinAddr: 0x100038A24, symSize: 0x60 }
  - { offsetInCU: 0x14310, offset: 0x14310, size: 0x8, addend: 0x0, symName: __ZN3glm6detail11compute_dotINS_3vecILi2EfLNS_9qualifierE0EEEfLb0EE4callERKS4_S7_, symObjAddr: 0x75BC, symBinAddr: 0x100038AE0, symSize: 0x40 }
  - { offsetInCU: 0x1434F, offset: 0x1434F, size: 0x8, addend: 0x0, symName: __ZN3glm6detail18compute_mix_scalarILi2EffLNS_9qualifierE0ELb0EE4callERKNS_3vecILi2EfLS2_0EEES7_RKf, symObjAddr: 0x7744, symBinAddr: 0x100038C68, symSize: 0x98 }
  - { offsetInCU: 0x1438E, offset: 0x1438E, size: 0x8, addend: 0x0, symName: __ZN3glm6detail11compute_mixIffE4callERKfS4_S4_, symObjAddr: 0x7834, symBinAddr: 0x100038D58, symSize: 0x48 }
  - { offsetInCU: 0x143CD, offset: 0x143CD, size: 0x8, addend: 0x0, symName: __ZN3glm3matILi4ELi4EfLNS_9qualifierE0EEixEi, symObjAddr: 0x787C, symBinAddr: 0x100038DA0, symSize: 0xB8 }
  - { offsetInCU: 0x14403, offset: 0x14403, size: 0x8, addend: 0x0, symName: __ZN3glm3matILi4ELi4EfLNS_9qualifierE0EE6lengthEv, symObjAddr: 0x7934, symBinAddr: 0x100038E58, symSize: 0x8 }
  - { offsetInCU: 0x14416, offset: 0x14416, size: 0x8, addend: 0x0, symName: __ZNSt3__16vectorI8VerticesNS_9allocatorIS1_EEE8__appendEm, symObjAddr: 0x793C, symBinAddr: 0x100038E60, symSize: 0x108 }
  - { offsetInCU: 0x14470, offset: 0x14470, size: 0x8, addend: 0x0, symName: __ZNSt3__16vectorI8VerticesNS_9allocatorIS1_EEE17__destruct_at_endB8ue170006EPS1_, symObjAddr: 0x7A44, symBinAddr: 0x100038F68, symSize: 0x4C }
  - { offsetInCU: 0x144B3, offset: 0x144B3, size: 0x8, addend: 0x0, symName: __ZNSt3__16vectorI8VerticesNS_9allocatorIS1_EEE9__end_capB8ue170006Ev, symObjAddr: 0x7A90, symBinAddr: 0x100038FB4, symSize: 0x28 }
  - { offsetInCU: 0x144D7, offset: 0x144D7, size: 0x8, addend: 0x0, symName: __ZNSt3__16vectorI8VerticesNS_9allocatorIS1_EEE18__construct_at_endEm, symObjAddr: 0x7AB8, symBinAddr: 0x100038FDC, symSize: 0xC8 }
  - { offsetInCU: 0x14547, offset: 0x14547, size: 0x8, addend: 0x0, symName: __ZNKSt3__16vectorI8VerticesNS_9allocatorIS1_EEE11__recommendB8ue170006Em, symObjAddr: 0x7B80, symBinAddr: 0x1000390A4, symSize: 0xB4 }
  - { offsetInCU: 0x1459A, offset: 0x1459A, size: 0x8, addend: 0x0, symName: __ZNSt3__114__split_bufferI8VerticesRNS_9allocatorIS1_EEEC1EmmS4_, symObjAddr: 0x7C34, symBinAddr: 0x100039158, symSize: 0x44 }
  - { offsetInCU: 0x145EE, offset: 0x145EE, size: 0x8, addend: 0x0, symName: __ZNSt3__114__split_bufferI8VerticesRNS_9allocatorIS1_EEE18__construct_at_endEm, symObjAddr: 0x7C78, symBinAddr: 0x10003919C, symSize: 0xB4 }
  - { offsetInCU: 0x14631, offset: 0x14631, size: 0x8, addend: 0x0, symName: __ZNSt3__114__split_bufferI8VerticesRNS_9allocatorIS1_EEED1Ev, symObjAddr: 0x7E3C, symBinAddr: 0x100039360, symSize: 0x2C }
  - { offsetInCU: 0x1465C, offset: 0x1465C, size: 0x8, addend: 0x0, symName: __ZNSt3__117__compressed_pairIP8VerticesNS_9allocatorIS1_EEE5firstB8ue170006Ev, symObjAddr: 0x7E68, symBinAddr: 0x10003938C, symSize: 0x24 }
  - { offsetInCU: 0x14681, offset: 0x14681, size: 0x8, addend: 0x0, symName: __ZNSt3__122__compressed_pair_elemIP8VerticesLi0ELb0EE5__getB8ue170006Ev, symObjAddr: 0x7E8C, symBinAddr: 0x1000393B0, symSize: 0x14 }
  - { offsetInCU: 0x146BE, offset: 0x146BE, size: 0x8, addend: 0x0, symName: __ZNSt3__16vectorI8VerticesNS_9allocatorIS1_EEE21_ConstructTransactionC1B8ue170006ERS4_m, symObjAddr: 0x7EA0, symBinAddr: 0x1000393C4, symSize: 0x3C }
  - { offsetInCU: 0x14705, offset: 0x14705, size: 0x8, addend: 0x0, symName: __ZNSt3__116allocator_traitsINS_9allocatorI8VerticesEEE9constructB8ue170006IS2_JEvEEvRS3_PT_DpOT0_, symObjAddr: 0x7EDC, symBinAddr: 0x100039400, symSize: 0x2C }
  - { offsetInCU: 0x14746, offset: 0x14746, size: 0x8, addend: 0x0, symName: __ZNSt3__16vectorI8VerticesNS_9allocatorIS1_EEE21_ConstructTransactionD1B8ue170006Ev, symObjAddr: 0x7F08, symBinAddr: 0x10003942C, symSize: 0x2C }
  - { offsetInCU: 0x1476F, offset: 0x1476F, size: 0x8, addend: 0x0, symName: __ZNSt3__16vectorI8VerticesNS_9allocatorIS1_EEE21_ConstructTransactionC2B8ue170006ERS4_m, symObjAddr: 0x7F34, symBinAddr: 0x100039458, symSize: 0x4C }
  - { offsetInCU: 0x147B6, offset: 0x147B6, size: 0x8, addend: 0x0, symName: __ZNSt3__19allocatorI8VerticesE9constructB8ue170006IS1_JEEEvPT_DpOT0_, symObjAddr: 0x7F80, symBinAddr: 0x1000394A4, symSize: 0x34 }
  - { offsetInCU: 0x147FB, offset: 0x147FB, size: 0x8, addend: 0x0, symName: __ZN8VerticesC1Ev, symObjAddr: 0x7FB4, symBinAddr: 0x1000394D8, symSize: 0x2C }
  - { offsetInCU: 0x14825, offset: 0x14825, size: 0x8, addend: 0x0, symName: __ZN8VerticesC2Ev, symObjAddr: 0x7FE0, symBinAddr: 0x100039504, symSize: 0x34 }
  - { offsetInCU: 0x1484F, offset: 0x1484F, size: 0x8, addend: 0x0, symName: __ZN3glm3vecILi3EfLNS_9qualifierE0EEC1Ef, symObjAddr: 0x8014, symBinAddr: 0x100039538, symSize: 0x34 }
  - { offsetInCU: 0x14888, offset: 0x14888, size: 0x8, addend: 0x0, symName: __ZN3glm3vecILi3EfLNS_9qualifierE0EEC2Ef, symObjAddr: 0x8048, symBinAddr: 0x10003956C, symSize: 0x30 }
  - { offsetInCU: 0x148C1, offset: 0x148C1, size: 0x8, addend: 0x0, symName: __ZNSt3__16vectorI8VerticesNS_9allocatorIS1_EEE21_ConstructTransactionD2B8ue170006Ev, symObjAddr: 0x8078, symBinAddr: 0x10003959C, symSize: 0x20 }
  - { offsetInCU: 0x148E9, offset: 0x148E9, size: 0x8, addend: 0x0, symName: __ZNKSt3__16vectorI8VerticesNS_9allocatorIS1_EEE8max_sizeEv, symObjAddr: 0x8098, symBinAddr: 0x1000395BC, symSize: 0x60 }
  - { offsetInCU: 0x14910, offset: 0x14910, size: 0x8, addend: 0x0, symName: __ZNKSt3__16vectorI8VerticesNS_9allocatorIS1_EEE20__throw_length_errorB8ue170006Ev, symObjAddr: 0x80F8, symBinAddr: 0x10003961C, symSize: 0x1C }
  - { offsetInCU: 0x1493F, offset: 0x1493F, size: 0x8, addend: 0x0, symName: __ZNSt3__116allocator_traitsINS_9allocatorI8VerticesEEE8max_sizeB8ue170006IS3_vEEmRKS3_, symObjAddr: 0x8140, symBinAddr: 0x100039664, symSize: 0x24 }
  - { offsetInCU: 0x1496D, offset: 0x1496D, size: 0x8, addend: 0x0, symName: __ZNKSt3__16vectorI8VerticesNS_9allocatorIS1_EEE7__allocB8ue170006Ev, symObjAddr: 0x8164, symBinAddr: 0x100039688, symSize: 0x28 }
  - { offsetInCU: 0x14992, offset: 0x14992, size: 0x8, addend: 0x0, symName: __ZNKSt3__19allocatorI8VerticesE8max_sizeB8ue170006Ev, symObjAddr: 0x818C, symBinAddr: 0x1000396B0, symSize: 0x18 }
  - { offsetInCU: 0x149B7, offset: 0x149B7, size: 0x8, addend: 0x0, symName: __ZNKSt3__117__compressed_pairIP8VerticesNS_9allocatorIS1_EEE6secondB8ue170006Ev, symObjAddr: 0x81A4, symBinAddr: 0x1000396C8, symSize: 0x24 }
  - { offsetInCU: 0x149DC, offset: 0x149DC, size: 0x8, addend: 0x0, symName: __ZNKSt3__122__compressed_pair_elemINS_9allocatorI8VerticesEELi1ELb1EE5__getB8ue170006Ev, symObjAddr: 0x81C8, symBinAddr: 0x1000396EC, symSize: 0x14 }
  - { offsetInCU: 0x14A00, offset: 0x14A00, size: 0x8, addend: 0x0, symName: __ZNSt3__114__split_bufferI8VerticesRNS_9allocatorIS1_EEEC2EmmS4_, symObjAddr: 0x8230, symBinAddr: 0x100039754, symSize: 0xE0 }
  - { offsetInCU: 0x14A71, offset: 0x14A71, size: 0x8, addend: 0x0, symName: __ZNSt3__117__compressed_pairIP8VerticesRNS_9allocatorIS1_EEEC1B8ue170006IDnS5_EEOT_OT0_, symObjAddr: 0x8310, symBinAddr: 0x100039834, symSize: 0x3C }
  - { offsetInCU: 0x14AC8, offset: 0x14AC8, size: 0x8, addend: 0x0, symName: __ZNSt3__114__split_bufferI8VerticesRNS_9allocatorIS1_EEE7__allocB8ue170006Ev, symObjAddr: 0x838C, symBinAddr: 0x1000398B0, symSize: 0x28 }
  - { offsetInCU: 0x14AED, offset: 0x14AED, size: 0x8, addend: 0x0, symName: __ZNSt3__114__split_bufferI8VerticesRNS_9allocatorIS1_EEE9__end_capB8ue170006Ev, symObjAddr: 0x83B4, symBinAddr: 0x1000398D8, symSize: 0x28 }
  - { offsetInCU: 0x14B11, offset: 0x14B11, size: 0x8, addend: 0x0, symName: __ZNSt3__117__compressed_pairIP8VerticesRNS_9allocatorIS1_EEEC2B8ue170006IDnS5_EEOT_OT0_, symObjAddr: 0x83DC, symBinAddr: 0x100039900, symSize: 0x48 }
  - { offsetInCU: 0x14B68, offset: 0x14B68, size: 0x8, addend: 0x0, symName: __ZNSt3__122__compressed_pair_elemIRNS_9allocatorI8VerticesEELi1ELb0EEC2B8ue170006IS4_vEEOT_, symObjAddr: 0x8424, symBinAddr: 0x100039948, symSize: 0x20 }
  - { offsetInCU: 0x14BA9, offset: 0x14BA9, size: 0x8, addend: 0x0, symName: __ZNSt3__19allocatorI8VerticesE8allocateB8ue170006Em, symObjAddr: 0x8444, symBinAddr: 0x100039968, symSize: 0x5C }
  - { offsetInCU: 0x14BDC, offset: 0x14BDC, size: 0x8, addend: 0x0, symName: __ZNSt3__117__compressed_pairIP8VerticesRNS_9allocatorIS1_EEE6secondB8ue170006Ev, symObjAddr: 0x84A0, symBinAddr: 0x1000399C4, symSize: 0x28 }
  - { offsetInCU: 0x14C01, offset: 0x14C01, size: 0x8, addend: 0x0, symName: __ZNSt3__122__compressed_pair_elemIRNS_9allocatorI8VerticesEELi1ELb0EE5__getB8ue170006Ev, symObjAddr: 0x84C8, symBinAddr: 0x1000399EC, symSize: 0x18 }
  - { offsetInCU: 0x14C26, offset: 0x14C26, size: 0x8, addend: 0x0, symName: __ZNSt3__117__compressed_pairIP8VerticesRNS_9allocatorIS1_EEE5firstB8ue170006Ev, symObjAddr: 0x84E0, symBinAddr: 0x100039A04, symSize: 0x24 }
  - { offsetInCU: 0x14C54, offset: 0x14C54, size: 0x8, addend: 0x0, symName: __ZNSt3__114__split_bufferI8VerticesRNS_9allocatorIS1_EEE21_ConstructTransactionC1B8ue170006EPPS1_m, symObjAddr: 0x8504, symBinAddr: 0x100039A28, symSize: 0x3C }
  - { offsetInCU: 0x14C98, offset: 0x14C98, size: 0x8, addend: 0x0, symName: __ZNSt3__114__split_bufferI8VerticesRNS_9allocatorIS1_EEE21_ConstructTransactionD1B8ue170006Ev, symObjAddr: 0x8540, symBinAddr: 0x100039A64, symSize: 0x2C }
  - { offsetInCU: 0x14CC1, offset: 0x14CC1, size: 0x8, addend: 0x0, symName: __ZNSt3__114__split_bufferI8VerticesRNS_9allocatorIS1_EEE21_ConstructTransactionC2B8ue170006EPPS1_m, symObjAddr: 0x856C, symBinAddr: 0x100039A90, symSize: 0x4C }
  - { offsetInCU: 0x14D06, offset: 0x14D06, size: 0x8, addend: 0x0, symName: __ZNSt3__114__split_bufferI8VerticesRNS_9allocatorIS1_EEE21_ConstructTransactionD2B8ue170006Ev, symObjAddr: 0x85B8, symBinAddr: 0x100039ADC, symSize: 0x20 }
  - { offsetInCU: 0x14D2E, offset: 0x14D2E, size: 0x8, addend: 0x0, symName: __ZNSt3__116reverse_iteratorIP8VerticesEC1B8ue170006ES2_, symObjAddr: 0x8650, symBinAddr: 0x100039B74, symSize: 0x34 }
  - { offsetInCU: 0x14D65, offset: 0x14D65, size: 0x8, addend: 0x0, symName: __ZNKSt3__116reverse_iteratorIP8VerticesE4baseB8ue170006Ev, symObjAddr: 0x8684, symBinAddr: 0x100039BA8, symSize: 0x18 }
  - { offsetInCU: 0x14D8A, offset: 0x14D8A, size: 0x8, addend: 0x0, symName: __ZNKSt3__16vectorI8VerticesNS_9allocatorIS1_EEE14__annotate_newB8ue170006Em, symObjAddr: 0x86D8, symBinAddr: 0x100039BFC, symSize: 0xC8 }
  - { offsetInCU: 0x14DE1, offset: 0x14DE1, size: 0x8, addend: 0x0, symName: __ZNKSt3__111__move_loopINS_17_ClassicAlgPolicyEEclB8ue170006INS_16reverse_iteratorIP8VerticesEES7_S7_EENS_4pairIT_T1_EES9_T0_SA_, symObjAddr: 0x8A90, symBinAddr: 0x100039FB4, symSize: 0xA8 }
  - { offsetInCU: 0x14E50, offset: 0x14E50, size: 0x8, addend: 0x0, symName: __ZNSt3__18_IterOpsINS_17_ClassicAlgPolicyEE11__iter_moveB8ue170006IRNS_16reverse_iteratorIP8VerticesEEEENS_9enable_ifIXsr12is_referenceIDTdeclsr3stdE7declvalIRT_EEEEE5valueEDTclsr3stdE4movedeclsr3stdE7declvalISB_EEEEE4typeEOSA_, symObjAddr: 0x8CCC, symBinAddr: 0x10003A1F0, symSize: 0x28 }
  - { offsetInCU: 0x14E7C, offset: 0x14E7C, size: 0x8, addend: 0x0, symName: __ZNKSt3__116reverse_iteratorIP8VerticesEdeB8ue170006Ev, symObjAddr: 0x8CF4, symBinAddr: 0x10003A218, symSize: 0x28 }
  - { offsetInCU: 0x14EAF, offset: 0x14EAF, size: 0x8, addend: 0x0, symName: __ZNSt3__116reverse_iteratorIP8VerticesEppB8ue170006Ev, symObjAddr: 0x8D1C, symBinAddr: 0x10003A240, symSize: 0x20 }
  - { offsetInCU: 0x14ED4, offset: 0x14ED4, size: 0x8, addend: 0x0, symName: __ZNSt3__18_IterOpsINS_17_ClassicAlgPolicyEE25__validate_iter_referenceB8ue170006IRNS_16reverse_iteratorIP8VerticesEEEEvv, symObjAddr: 0x8D3C, symBinAddr: 0x10003A260, symSize: 0x4 }
  - { offsetInCU: 0x14EF2, offset: 0x14EF2, size: 0x8, addend: 0x0, symName: __ZNSt3__118__unwrap_iter_implINS_16reverse_iteratorIP8VerticesEELb0EE8__unwrapB8ue170006ES4_, symObjAddr: 0x8D40, symBinAddr: 0x10003A264, symSize: 0x24 }
  - { offsetInCU: 0x14F19, offset: 0x14F19, size: 0x8, addend: 0x0, symName: __ZNSt3__14pairINS_16reverse_iteratorIP8VerticesEES4_EC1B8ue170006IS4_S4_LPv0EEEOT_OT0_, symObjAddr: 0x8D64, symBinAddr: 0x10003A288, symSize: 0x3C }
  - { offsetInCU: 0x14F76, offset: 0x14F76, size: 0x8, addend: 0x0, symName: __ZNSt3__14pairINS_16reverse_iteratorIP8VerticesEES4_EC2B8ue170006IS4_S4_LPv0EEEOT_OT0_, symObjAddr: 0x8DA0, symBinAddr: 0x10003A2C4, symSize: 0x34 }
  - { offsetInCU: 0x14FD3, offset: 0x14FD3, size: 0x8, addend: 0x0, symName: __ZNSt3__118__unwrap_iter_implINS_16reverse_iteratorIP8VerticesEELb0EE8__rewrapB8ue170006ES4_S4_, symObjAddr: 0x8DD4, symBinAddr: 0x10003A2F8, symSize: 0x2C }
  - { offsetInCU: 0x15001, offset: 0x15001, size: 0x8, addend: 0x0, symName: __ZNSt3__116reverse_iteratorIP8VerticesEC2B8ue170006ES2_, symObjAddr: 0x8E00, symBinAddr: 0x10003A324, symSize: 0x28 }
  - { offsetInCU: 0x15037, offset: 0x15037, size: 0x8, addend: 0x0, symName: __ZNSt3__114__split_bufferI8VerticesRNS_9allocatorIS1_EEED2Ev, symObjAddr: 0x8E28, symBinAddr: 0x10003A34C, symSize: 0x8C }
  - { offsetInCU: 0x15062, offset: 0x15062, size: 0x8, addend: 0x0, symName: __ZNSt3__114__split_bufferI8VerticesRNS_9allocatorIS1_EEE5clearB8ue170006Ev, symObjAddr: 0x8EB4, symBinAddr: 0x10003A3D8, symSize: 0x28 }
  - { offsetInCU: 0x15087, offset: 0x15087, size: 0x8, addend: 0x0, symName: __ZNKSt3__114__split_bufferI8VerticesRNS_9allocatorIS1_EEE8capacityB8ue170006Ev, symObjAddr: 0x8EDC, symBinAddr: 0x10003A400, symSize: 0x40 }
  - { offsetInCU: 0x150AC, offset: 0x150AC, size: 0x8, addend: 0x0, symName: __ZNSt3__114__split_bufferI8VerticesRNS_9allocatorIS1_EEE17__destruct_at_endB8ue170006EPS1_, symObjAddr: 0x8F1C, symBinAddr: 0x10003A440, symSize: 0x2C }
  - { offsetInCU: 0x150DE, offset: 0x150DE, size: 0x8, addend: 0x0, symName: __ZNSt3__114__split_bufferI8VerticesRNS_9allocatorIS1_EEE17__destruct_at_endB8ue170006EPS1_NS_17integral_constantIbLb0EEE, symObjAddr: 0x8F48, symBinAddr: 0x10003A46C, symSize: 0x80 }
  - { offsetInCU: 0x1511E, offset: 0x1511E, size: 0x8, addend: 0x0, symName: __ZNKSt3__114__split_bufferI8VerticesRNS_9allocatorIS1_EEE9__end_capB8ue170006Ev, symObjAddr: 0x8FC8, symBinAddr: 0x10003A4EC, symSize: 0x28 }
  - { offsetInCU: 0x15143, offset: 0x15143, size: 0x8, addend: 0x0, symName: __ZNKSt3__117__compressed_pairIP8VerticesRNS_9allocatorIS1_EEE5firstB8ue170006Ev, symObjAddr: 0x8FF0, symBinAddr: 0x10003A514, symSize: 0x24 }
  - { offsetInCU: 0x15168, offset: 0x15168, size: 0x8, addend: 0x0, symName: __ZNKSt3__16vectorI8VerticesNS_9allocatorIS1_EEE17__annotate_shrinkB8ue170006Em, symObjAddr: 0x9014, symBinAddr: 0x10003A538, symSize: 0xD0 }
  - { offsetInCU: 0x1519C, offset: 0x1519C, size: 0x8, addend: 0x0, symName: __ZN3glm3vecILi3EfLNS_9qualifierE0EEC2IjfjEET_T0_T1_, symObjAddr: 0x90E4, symBinAddr: 0x10003A608, symSize: 0x40 }
  - { offsetInCU: 0x1520B, offset: 0x1520B, size: 0x8, addend: 0x0, symName: __ZNSt3__16vectorIjNS_9allocatorIjEEE8__appendEm, symObjAddr: 0x9124, symBinAddr: 0x10003A648, symSize: 0x108 }
  - { offsetInCU: 0x15265, offset: 0x15265, size: 0x8, addend: 0x0, symName: __ZNSt3__16vectorIjNS_9allocatorIjEEE17__destruct_at_endB8ue170006EPj, symObjAddr: 0x922C, symBinAddr: 0x10003A750, symSize: 0x4C }
  - { offsetInCU: 0x152A8, offset: 0x152A8, size: 0x8, addend: 0x0, symName: __ZNSt3__16vectorIjNS_9allocatorIjEEE9__end_capB8ue170006Ev, symObjAddr: 0x9278, symBinAddr: 0x10003A79C, symSize: 0x28 }
  - { offsetInCU: 0x152CC, offset: 0x152CC, size: 0x8, addend: 0x0, symName: __ZNSt3__16vectorIjNS_9allocatorIjEEE18__construct_at_endEm, symObjAddr: 0x92A0, symBinAddr: 0x10003A7C4, symSize: 0xC8 }
  - { offsetInCU: 0x1533C, offset: 0x1533C, size: 0x8, addend: 0x0, symName: __ZNKSt3__16vectorIjNS_9allocatorIjEEE11__recommendB8ue170006Em, symObjAddr: 0x9368, symBinAddr: 0x10003A88C, symSize: 0xB4 }
  - { offsetInCU: 0x1538F, offset: 0x1538F, size: 0x8, addend: 0x0, symName: __ZNSt3__114__split_bufferIjRNS_9allocatorIjEEEC1EmmS3_, symObjAddr: 0x941C, symBinAddr: 0x10003A940, symSize: 0x44 }
  - { offsetInCU: 0x153E3, offset: 0x153E3, size: 0x8, addend: 0x0, symName: __ZNSt3__114__split_bufferIjRNS_9allocatorIjEEE18__construct_at_endEm, symObjAddr: 0x9460, symBinAddr: 0x10003A984, symSize: 0xB4 }
  - { offsetInCU: 0x15426, offset: 0x15426, size: 0x8, addend: 0x0, symName: __ZNSt3__114__split_bufferIjRNS_9allocatorIjEEED1Ev, symObjAddr: 0x9624, symBinAddr: 0x10003AB48, symSize: 0x2C }
  - { offsetInCU: 0x15451, offset: 0x15451, size: 0x8, addend: 0x0, symName: __ZNSt3__117__compressed_pairIPjNS_9allocatorIjEEE5firstB8ue170006Ev, symObjAddr: 0x9650, symBinAddr: 0x10003AB74, symSize: 0x24 }
  - { offsetInCU: 0x15476, offset: 0x15476, size: 0x8, addend: 0x0, symName: __ZNSt3__122__compressed_pair_elemIPjLi0ELb0EE5__getB8ue170006Ev, symObjAddr: 0x9674, symBinAddr: 0x10003AB98, symSize: 0x14 }
  - { offsetInCU: 0x154B3, offset: 0x154B3, size: 0x8, addend: 0x0, symName: __ZNSt3__16vectorIjNS_9allocatorIjEEE21_ConstructTransactionC1B8ue170006ERS3_m, symObjAddr: 0x9688, symBinAddr: 0x10003ABAC, symSize: 0x3C }
  - { offsetInCU: 0x154FA, offset: 0x154FA, size: 0x8, addend: 0x0, symName: __ZNSt3__116allocator_traitsINS_9allocatorIjEEE9constructB8ue170006IjJEvEEvRS2_PT_DpOT0_, symObjAddr: 0x96C4, symBinAddr: 0x10003ABE8, symSize: 0x2C }
  - { offsetInCU: 0x1553B, offset: 0x1553B, size: 0x8, addend: 0x0, symName: __ZNSt3__16vectorIjNS_9allocatorIjEEE21_ConstructTransactionD1B8ue170006Ev, symObjAddr: 0x96F0, symBinAddr: 0x10003AC14, symSize: 0x2C }
  - { offsetInCU: 0x15564, offset: 0x15564, size: 0x8, addend: 0x0, symName: __ZNSt3__16vectorIjNS_9allocatorIjEEE21_ConstructTransactionC2B8ue170006ERS3_m, symObjAddr: 0x971C, symBinAddr: 0x10003AC40, symSize: 0x44 }
  - { offsetInCU: 0x155AB, offset: 0x155AB, size: 0x8, addend: 0x0, symName: __ZNSt3__19allocatorIjE9constructB8ue170006IjJEEEvPT_DpOT0_, symObjAddr: 0x9760, symBinAddr: 0x10003AC84, symSize: 0x1C }
  - { offsetInCU: 0x155EC, offset: 0x155EC, size: 0x8, addend: 0x0, symName: __ZNSt3__16vectorIjNS_9allocatorIjEEE21_ConstructTransactionD2B8ue170006Ev, symObjAddr: 0x977C, symBinAddr: 0x10003ACA0, symSize: 0x20 }
  - { offsetInCU: 0x15614, offset: 0x15614, size: 0x8, addend: 0x0, symName: __ZNKSt3__16vectorIjNS_9allocatorIjEEE8max_sizeEv, symObjAddr: 0x979C, symBinAddr: 0x10003ACC0, symSize: 0x60 }
  - { offsetInCU: 0x1563B, offset: 0x1563B, size: 0x8, addend: 0x0, symName: __ZNKSt3__16vectorIjNS_9allocatorIjEEE20__throw_length_errorB8ue170006Ev, symObjAddr: 0x97FC, symBinAddr: 0x10003AD20, symSize: 0x1C }
  - { offsetInCU: 0x1566A, offset: 0x1566A, size: 0x8, addend: 0x0, symName: __ZNSt3__116allocator_traitsINS_9allocatorIjEEE8max_sizeB8ue170006IS2_vEEmRKS2_, symObjAddr: 0x9818, symBinAddr: 0x10003AD3C, symSize: 0x24 }
  - { offsetInCU: 0x15698, offset: 0x15698, size: 0x8, addend: 0x0, symName: __ZNKSt3__16vectorIjNS_9allocatorIjEEE7__allocB8ue170006Ev, symObjAddr: 0x983C, symBinAddr: 0x10003AD60, symSize: 0x28 }
  - { offsetInCU: 0x156BD, offset: 0x156BD, size: 0x8, addend: 0x0, symName: __ZNKSt3__19allocatorIjE8max_sizeB8ue170006Ev, symObjAddr: 0x9864, symBinAddr: 0x10003AD88, symSize: 0x14 }
  - { offsetInCU: 0x156E2, offset: 0x156E2, size: 0x8, addend: 0x0, symName: __ZNKSt3__117__compressed_pairIPjNS_9allocatorIjEEE6secondB8ue170006Ev, symObjAddr: 0x9878, symBinAddr: 0x10003AD9C, symSize: 0x24 }
  - { offsetInCU: 0x15707, offset: 0x15707, size: 0x8, addend: 0x0, symName: __ZNKSt3__122__compressed_pair_elemINS_9allocatorIjEELi1ELb1EE5__getB8ue170006Ev, symObjAddr: 0x989C, symBinAddr: 0x10003ADC0, symSize: 0x14 }
  - { offsetInCU: 0x1572B, offset: 0x1572B, size: 0x8, addend: 0x0, symName: __ZNSt3__114__split_bufferIjRNS_9allocatorIjEEEC2EmmS3_, symObjAddr: 0x98B0, symBinAddr: 0x10003ADD4, symSize: 0xD4 }
  - { offsetInCU: 0x1579C, offset: 0x1579C, size: 0x8, addend: 0x0, symName: __ZNSt3__117__compressed_pairIPjRNS_9allocatorIjEEEC1B8ue170006IDnS4_EEOT_OT0_, symObjAddr: 0x9984, symBinAddr: 0x10003AEA8, symSize: 0x3C }
  - { offsetInCU: 0x157F3, offset: 0x157F3, size: 0x8, addend: 0x0, symName: __ZNSt3__114__split_bufferIjRNS_9allocatorIjEEE7__allocB8ue170006Ev, symObjAddr: 0x9A00, symBinAddr: 0x10003AF24, symSize: 0x28 }
  - { offsetInCU: 0x15818, offset: 0x15818, size: 0x8, addend: 0x0, symName: __ZNSt3__114__split_bufferIjRNS_9allocatorIjEEE9__end_capB8ue170006Ev, symObjAddr: 0x9A28, symBinAddr: 0x10003AF4C, symSize: 0x28 }
  - { offsetInCU: 0x1583C, offset: 0x1583C, size: 0x8, addend: 0x0, symName: __ZNSt3__117__compressed_pairIPjRNS_9allocatorIjEEEC2B8ue170006IDnS4_EEOT_OT0_, symObjAddr: 0x9A50, symBinAddr: 0x10003AF74, symSize: 0x48 }
  - { offsetInCU: 0x15893, offset: 0x15893, size: 0x8, addend: 0x0, symName: __ZNSt3__122__compressed_pair_elemIRNS_9allocatorIjEELi1ELb0EEC2B8ue170006IS3_vEEOT_, symObjAddr: 0x9A98, symBinAddr: 0x10003AFBC, symSize: 0x20 }
  - { offsetInCU: 0x158D4, offset: 0x158D4, size: 0x8, addend: 0x0, symName: __ZNSt3__19allocatorIjE8allocateB8ue170006Em, symObjAddr: 0x9AB8, symBinAddr: 0x10003AFDC, symSize: 0x58 }
  - { offsetInCU: 0x15907, offset: 0x15907, size: 0x8, addend: 0x0, symName: __ZNSt3__117__compressed_pairIPjRNS_9allocatorIjEEE6secondB8ue170006Ev, symObjAddr: 0x9B10, symBinAddr: 0x10003B034, symSize: 0x28 }
  - { offsetInCU: 0x1592C, offset: 0x1592C, size: 0x8, addend: 0x0, symName: __ZNSt3__122__compressed_pair_elemIRNS_9allocatorIjEELi1ELb0EE5__getB8ue170006Ev, symObjAddr: 0x9B38, symBinAddr: 0x10003B05C, symSize: 0x18 }
  - { offsetInCU: 0x15951, offset: 0x15951, size: 0x8, addend: 0x0, symName: __ZNSt3__117__compressed_pairIPjRNS_9allocatorIjEEE5firstB8ue170006Ev, symObjAddr: 0x9B50, symBinAddr: 0x10003B074, symSize: 0x24 }
  - { offsetInCU: 0x1597F, offset: 0x1597F, size: 0x8, addend: 0x0, symName: __ZNSt3__114__split_bufferIjRNS_9allocatorIjEEE21_ConstructTransactionC1B8ue170006EPPjm, symObjAddr: 0x9B74, symBinAddr: 0x10003B098, symSize: 0x3C }
  - { offsetInCU: 0x159C3, offset: 0x159C3, size: 0x8, addend: 0x0, symName: __ZNSt3__114__split_bufferIjRNS_9allocatorIjEEE21_ConstructTransactionD1B8ue170006Ev, symObjAddr: 0x9BB0, symBinAddr: 0x10003B0D4, symSize: 0x2C }
  - { offsetInCU: 0x159EC, offset: 0x159EC, size: 0x8, addend: 0x0, symName: __ZNSt3__114__split_bufferIjRNS_9allocatorIjEEE21_ConstructTransactionC2B8ue170006EPPjm, symObjAddr: 0x9BDC, symBinAddr: 0x10003B100, symSize: 0x44 }
  - { offsetInCU: 0x15A31, offset: 0x15A31, size: 0x8, addend: 0x0, symName: __ZNSt3__114__split_bufferIjRNS_9allocatorIjEEE21_ConstructTransactionD2B8ue170006Ev, symObjAddr: 0x9C20, symBinAddr: 0x10003B144, symSize: 0x20 }
  - { offsetInCU: 0x15A59, offset: 0x15A59, size: 0x8, addend: 0x0, symName: __ZNSt3__116reverse_iteratorIPjEC1B8ue170006ES1_, symObjAddr: 0x9CB8, symBinAddr: 0x10003B1DC, symSize: 0x34 }
  - { offsetInCU: 0x15A90, offset: 0x15A90, size: 0x8, addend: 0x0, symName: __ZNKSt3__116reverse_iteratorIPjE4baseB8ue170006Ev, symObjAddr: 0x9CEC, symBinAddr: 0x10003B210, symSize: 0x18 }
  - { offsetInCU: 0x15AB5, offset: 0x15AB5, size: 0x8, addend: 0x0, symName: __ZNKSt3__16vectorIjNS_9allocatorIjEEE14__annotate_newB8ue170006Em, symObjAddr: 0x9D40, symBinAddr: 0x10003B264, symSize: 0xAC }
  - { offsetInCU: 0x15B02, offset: 0x15B02, size: 0x8, addend: 0x0, symName: __ZNKSt3__111__move_loopINS_17_ClassicAlgPolicyEEclB8ue170006INS_16reverse_iteratorIPjEES6_S6_EENS_4pairIT_T1_EES8_T0_S9_, symObjAddr: 0xA0DC, symBinAddr: 0x10003B600, symSize: 0xA0 }
  - { offsetInCU: 0x15B71, offset: 0x15B71, size: 0x8, addend: 0x0, symName: __ZNSt3__18_IterOpsINS_17_ClassicAlgPolicyEE11__iter_moveB8ue170006IRNS_16reverse_iteratorIPjEEEENS_9enable_ifIXsr12is_referenceIDTdeclsr3stdE7declvalIRT_EEEEE5valueEDTclsr3stdE4movedeclsr3stdE7declvalISA_EEEEE4typeEOS9_, symObjAddr: 0xA310, symBinAddr: 0x10003B834, symSize: 0x28 }
  - { offsetInCU: 0x15B9D, offset: 0x15B9D, size: 0x8, addend: 0x0, symName: __ZNKSt3__116reverse_iteratorIPjEdeB8ue170006Ev, symObjAddr: 0xA338, symBinAddr: 0x10003B85C, symSize: 0x28 }
  - { offsetInCU: 0x15BD0, offset: 0x15BD0, size: 0x8, addend: 0x0, symName: __ZNSt3__116reverse_iteratorIPjEppB8ue170006Ev, symObjAddr: 0xA360, symBinAddr: 0x10003B884, symSize: 0x20 }
  - { offsetInCU: 0x15BF5, offset: 0x15BF5, size: 0x8, addend: 0x0, symName: __ZNSt3__18_IterOpsINS_17_ClassicAlgPolicyEE25__validate_iter_referenceB8ue170006IRNS_16reverse_iteratorIPjEEEEvv, symObjAddr: 0xA380, symBinAddr: 0x10003B8A4, symSize: 0x4 }
  - { offsetInCU: 0x15C13, offset: 0x15C13, size: 0x8, addend: 0x0, symName: __ZNSt3__118__unwrap_iter_implINS_16reverse_iteratorIPjEELb0EE8__unwrapB8ue170006ES3_, symObjAddr: 0xA384, symBinAddr: 0x10003B8A8, symSize: 0x24 }
  - { offsetInCU: 0x15C3A, offset: 0x15C3A, size: 0x8, addend: 0x0, symName: __ZNSt3__14pairINS_16reverse_iteratorIPjEES3_EC1B8ue170006IS3_S3_LPv0EEEOT_OT0_, symObjAddr: 0xA3A8, symBinAddr: 0x10003B8CC, symSize: 0x3C }
  - { offsetInCU: 0x15C97, offset: 0x15C97, size: 0x8, addend: 0x0, symName: __ZNSt3__14pairINS_16reverse_iteratorIPjEES3_EC2B8ue170006IS3_S3_LPv0EEEOT_OT0_, symObjAddr: 0xA3E4, symBinAddr: 0x10003B908, symSize: 0x34 }
  - { offsetInCU: 0x15CF4, offset: 0x15CF4, size: 0x8, addend: 0x0, symName: __ZNSt3__118__unwrap_iter_implINS_16reverse_iteratorIPjEELb0EE8__rewrapB8ue170006ES3_S3_, symObjAddr: 0xA418, symBinAddr: 0x10003B93C, symSize: 0x2C }
  - { offsetInCU: 0x15D22, offset: 0x15D22, size: 0x8, addend: 0x0, symName: __ZNSt3__116reverse_iteratorIPjEC2B8ue170006ES1_, symObjAddr: 0xA444, symBinAddr: 0x10003B968, symSize: 0x28 }
  - { offsetInCU: 0x15D58, offset: 0x15D58, size: 0x8, addend: 0x0, symName: __ZNSt3__114__split_bufferIjRNS_9allocatorIjEEED2Ev, symObjAddr: 0xA46C, symBinAddr: 0x10003B990, symSize: 0x8C }
  - { offsetInCU: 0x15D83, offset: 0x15D83, size: 0x8, addend: 0x0, symName: __ZNSt3__114__split_bufferIjRNS_9allocatorIjEEE5clearB8ue170006Ev, symObjAddr: 0xA4F8, symBinAddr: 0x10003BA1C, symSize: 0x28 }
  - { offsetInCU: 0x15DA8, offset: 0x15DA8, size: 0x8, addend: 0x0, symName: __ZNKSt3__114__split_bufferIjRNS_9allocatorIjEEE8capacityB8ue170006Ev, symObjAddr: 0xA520, symBinAddr: 0x10003BA44, symSize: 0x40 }
  - { offsetInCU: 0x15DCD, offset: 0x15DCD, size: 0x8, addend: 0x0, symName: __ZNSt3__114__split_bufferIjRNS_9allocatorIjEEE17__destruct_at_endB8ue170006EPj, symObjAddr: 0xA560, symBinAddr: 0x10003BA84, symSize: 0x2C }
  - { offsetInCU: 0x15DFF, offset: 0x15DFF, size: 0x8, addend: 0x0, symName: __ZNSt3__114__split_bufferIjRNS_9allocatorIjEEE17__destruct_at_endB8ue170006EPjNS_17integral_constantIbLb0EEE, symObjAddr: 0xA58C, symBinAddr: 0x10003BAB0, symSize: 0x80 }
  - { offsetInCU: 0x15E3F, offset: 0x15E3F, size: 0x8, addend: 0x0, symName: __ZNKSt3__114__split_bufferIjRNS_9allocatorIjEEE9__end_capB8ue170006Ev, symObjAddr: 0xA60C, symBinAddr: 0x10003BB30, symSize: 0x28 }
  - { offsetInCU: 0x15E64, offset: 0x15E64, size: 0x8, addend: 0x0, symName: __ZNKSt3__117__compressed_pairIPjRNS_9allocatorIjEEE5firstB8ue170006Ev, symObjAddr: 0xA634, symBinAddr: 0x10003BB58, symSize: 0x24 }
  - { offsetInCU: 0x15E89, offset: 0x15E89, size: 0x8, addend: 0x0, symName: __ZNKSt3__16vectorIjNS_9allocatorIjEEE17__annotate_shrinkB8ue170006Em, symObjAddr: 0xA658, symBinAddr: 0x10003BB7C, symSize: 0xB4 }
  - { offsetInCU: 0x15EBD, offset: 0x15EBD, size: 0x8, addend: 0x0, symName: __ZN3glm6detail13compute_crossIfLNS_9qualifierE0ELb0EE4callERKNS_3vecILi3EfLS2_0EEES7_, symObjAddr: 0xA70C, symBinAddr: 0x10003BC30, symSize: 0xAC }
  - { offsetInCU: 0x15EEE, offset: 0x15EEE, size: 0x8, addend: 0x0, symName: __ZN3glm6detail17compute_normalizeILi3EfLNS_9qualifierE0ELb0EE4callERKNS_3vecILi3EfLS2_0EEE, symObjAddr: 0xA7B8, symBinAddr: 0x10003BCDC, symSize: 0x54 }
  - { offsetInCU: 0x15F11, offset: 0x15F11, size: 0x8, addend: 0x0, symName: __Z4sqrtB8ue170006f, symObjAddr: 0xA8CC, symBinAddr: 0x10003BDF0, symSize: 0x18 }
  - { offsetInCU: 0x15F40, offset: 0x15F40, size: 0x8, addend: 0x0, symName: __ZN3glm6detail11compute_dotINS_3vecILi3EfLNS_9qualifierE0EEEfLb0EE4callERKS4_S7_, symObjAddr: 0xA8E4, symBinAddr: 0x10003BE08, symSize: 0x4C }
  - { offsetInCU: 0x15F7E, offset: 0x15F7E, size: 0x8, addend: 0x0, symName: __ZNSt3__112basic_stringIcNS_11char_traitsIcEENS_9allocatorIcEEEC2B8ue170006ILi0EEEPKc, symObjAddr: 0xA9A0, symBinAddr: 0x10003BEC4, symSize: 0x58 }
  - { offsetInCU: 0x15FBB, offset: 0x15FBB, size: 0x8, addend: 0x0, symName: __ZNSt3__117__compressed_pairINS_12basic_stringIcNS_11char_traitsIcEENS_9allocatorIcEEE5__repES5_EC1B8ue170006INS_18__default_init_tagESA_EEOT_OT0_, symObjAddr: 0xA9F8, symBinAddr: 0x10003BF1C, symSize: 0x3C }
  - { offsetInCU: 0x16012, offset: 0x16012, size: 0x8, addend: 0x0, symName: __ZNSt3__111char_traitsIcE6lengthB8ue170006EPKc, symObjAddr: 0xAA34, symBinAddr: 0x10003BF58, symSize: 0x34 }
  - { offsetInCU: 0x16034, offset: 0x16034, size: 0x8, addend: 0x0, symName: __ZNSt3__117__compressed_pairINS_12basic_stringIcNS_11char_traitsIcEENS_9allocatorIcEEE5__repES5_EC2B8ue170006INS_18__default_init_tagESA_EEOT_OT0_, symObjAddr: 0xAA68, symBinAddr: 0x10003BF8C, symSize: 0x3C }
  - { offsetInCU: 0x1608B, offset: 0x1608B, size: 0x8, addend: 0x0, symName: __ZNSt3__122__compressed_pair_elemINS_12basic_stringIcNS_11char_traitsIcEENS_9allocatorIcEEE5__repELi0ELb0EEC2B8ue170006ENS_18__default_init_tagE, symObjAddr: 0xAAA4, symBinAddr: 0x10003BFC8, symSize: 0x14 }
  - { offsetInCU: 0x160BE, offset: 0x160BE, size: 0x8, addend: 0x0, symName: __ZNSt3__122__compressed_pair_elemINS_9allocatorIcEELi1ELb1EEC2B8ue170006ENS_18__default_init_tagE, symObjAddr: 0xAAB8, symBinAddr: 0x10003BFDC, symSize: 0x2C }
  - { offsetInCU: 0x160F1, offset: 0x160F1, size: 0x8, addend: 0x0, symName: __ZNSt3__19allocatorIcEC2B8ue170006Ev, symObjAddr: 0xAAE4, symBinAddr: 0x10003C008, symSize: 0x2C }
  - { offsetInCU: 0x1611A, offset: 0x1611A, size: 0x8, addend: 0x0, symName: __ZNSt3__116__non_trivial_ifILb1ENS_9allocatorIcEEEC2B8ue170006Ev, symObjAddr: 0xAB10, symBinAddr: 0x10003C034, symSize: 0x14 }
  - { offsetInCU: 0x16143, offset: 0x16143, size: 0x8, addend: 0x0, symName: __ZNSt3__16vectorIjNS_9allocatorIjEEE22__construct_one_at_endB8ue170006IJjEEEvDpOT_, symObjAddr: 0xAB48, symBinAddr: 0x10003C06C, symSize: 0x90 }
  - { offsetInCU: 0x16190, offset: 0x16190, size: 0x8, addend: 0x0, symName: __ZNSt3__16vectorIjNS_9allocatorIjEEE21__push_back_slow_pathIjEEvOT_, symObjAddr: 0xABD8, symBinAddr: 0x10003C0FC, symSize: 0xD8 }
  - { offsetInCU: 0x161ED, offset: 0x161ED, size: 0x8, addend: 0x0, symName: __ZNSt3__116allocator_traitsINS_9allocatorIjEEE9constructB8ue170006IjJjEvEEvRS2_PT_DpOT0_, symObjAddr: 0xACB0, symBinAddr: 0x10003C1D4, symSize: 0x34 }
  - { offsetInCU: 0x16244, offset: 0x16244, size: 0x8, addend: 0x0, symName: __ZNSt3__19allocatorIjE9constructB8ue170006IjJjEEEvPT_DpOT0_, symObjAddr: 0xACE4, symBinAddr: 0x10003C208, symSize: 0x28 }
  - { offsetInCU: 0x16299, offset: 0x16299, size: 0x8, addend: 0x0, symName: __ZNSt3__16vectorIjNS_9allocatorIjEEE11__make_iterB8ue170006EPj, symObjAddr: 0xAD0C, symBinAddr: 0x10003C230, symSize: 0x30 }
  - { offsetInCU: 0x162CC, offset: 0x162CC, size: 0x8, addend: 0x0, symName: __ZNSt3__111__wrap_iterIPjEC1B8ue170006ES1_, symObjAddr: 0xAD3C, symBinAddr: 0x10003C260, symSize: 0x34 }
  - { offsetInCU: 0x16303, offset: 0x16303, size: 0x8, addend: 0x0, symName: __ZNSt3__111__wrap_iterIPjEC2B8ue170006ES1_, symObjAddr: 0xAD70, symBinAddr: 0x10003C294, symSize: 0x20 }
  - { offsetInCU: 0x1633A, offset: 0x1633A, size: 0x8, addend: 0x0, symName: __ZNKSt3__111__wrap_iterIPjEdeB8ue170006Ev, symObjAddr: 0xADC4, symBinAddr: 0x10003C2E8, symSize: 0x18 }
  - { offsetInCU: 0x1635F, offset: 0x1635F, size: 0x8, addend: 0x0, symName: __ZNSt3__111__wrap_iterIPjEppB8ue170006Ev, symObjAddr: 0xADDC, symBinAddr: 0x10003C300, symSize: 0x20 }
  - { offsetInCU: 0x16384, offset: 0x16384, size: 0x8, addend: 0x0, symName: __ZNKSt3__111__wrap_iterIPjE4baseB8ue170006Ev, symObjAddr: 0xAE44, symBinAddr: 0x10003C368, symSize: 0x18 }
  - { offsetInCU: 0x3F, offset: 0x16584, size: 0x8, addend: 0x0, symName: _pointSize, symObjAddr: 0x4E7C, symBinAddr: 0x100172010, symSize: 0x0 }
  - { offsetInCU: 0x5C, offset: 0x165A1, size: 0x8, addend: 0x0, symName: _trackball, symObjAddr: 0x40660, symBinAddr: 0x10017FD70, symSize: 0x0 }
  - { offsetInCU: 0x845, offset: 0x16D8A, size: 0x8, addend: 0x0, symName: __ZN3glm9value_ptrIfLNS_9qualifierE0EEEPT_RNS_3vecILi3ES2_XT0_EEE, symObjAddr: 0x16D0, symBinAddr: 0x10003DA0C, symSize: 0x14 }
  - { offsetInCU: 0x884, offset: 0x16DC9, size: 0x8, addend: 0x0, symName: __ZN3glm11perspectiveIfEENS_3matILi4ELi4ET_LNS_9qualifierE0EEES2_S2_S2_S2_, symObjAddr: 0x16E4, symBinAddr: 0x10003DA20, symSize: 0x3C }
  - { offsetInCU: 0x8E8, offset: 0x16E2D, size: 0x8, addend: 0x0, symName: __ZN3glm6lookAtIfLNS_9qualifierE0EEENS_3matILi4ELi4ET_XT0_EEERKNS_3vecILi3ES3_XT0_EEES8_S8_, symObjAddr: 0x1720, symBinAddr: 0x10003DA5C, symSize: 0x34 }
  - { offsetInCU: 0x943, offset: 0x16E88, size: 0x8, addend: 0x0, symName: __ZN3glm9translateIfLNS_9qualifierE0EEENS_3matILi4ELi4ET_XT0_EEERKS4_RKNS_3vecILi3ES3_XT0_EEE, symObjAddr: 0x1798, symBinAddr: 0x10003DA90, symSize: 0x188 }
  - { offsetInCU: 0x9A0, offset: 0x16EE5, size: 0x8, addend: 0x0, symName: __ZN3glm6rotateIfLNS_9qualifierE0EEENS_3matILi4ELi4ET_XT0_EEERKS4_S3_RKNS_3vecILi3ES3_XT0_EEE, symObjAddr: 0x1954, symBinAddr: 0x10003DC4C, symSize: 0x8E4 }
  - { offsetInCU: 0xA61, offset: 0x16FA6, size: 0x8, addend: 0x0, symName: __ZN3glm7radiansIfEET_S1_, symObjAddr: 0x2238, symBinAddr: 0x10003E530, symSize: 0x24 }
  - { offsetInCU: 0xA96, offset: 0x16FDB, size: 0x8, addend: 0x0, symName: __ZN3glmmlIfLNS_9qualifierE0EEENS_3matILi4ELi4ET_XT0_EEERKS4_S6_, symObjAddr: 0x225C, symBinAddr: 0x10003E554, symSize: 0x5EC }
  - { offsetInCU: 0xB75, offset: 0x170BA, size: 0x8, addend: 0x0, symName: __ZN3glmmlIfLNS_9qualifierE0EEENS_3vecILi3ET_XT0_EEES3_RKS4_, symObjAddr: 0x34A4, symBinAddr: 0x10003F314, symSize: 0x64 }
  - { offsetInCU: 0xBC5, offset: 0x1710A, size: 0x8, addend: 0x0, symName: __ZN3glm16perspectiveRH_NOIfEENS_3matILi4ELi4ET_LNS_9qualifierE0EEES2_S2_S2_S2_, symObjAddr: 0x4724, symBinAddr: 0x1000400E0, symSize: 0x1C4 }
  - { offsetInCU: 0xC42, offset: 0x17187, size: 0x8, addend: 0x0, symName: __ZN3glm8lookAtRHIfLNS_9qualifierE0EEENS_3matILi4ELi4ET_XT0_EEERKNS_3vecILi3ES3_XT0_EEES8_S8_, symObjAddr: 0x49D4, symBinAddr: 0x1000402E4, symSize: 0x2CC }
  - { offsetInCU: 0xD6C, offset: 0x172B1, size: 0x8, addend: 0x0, symName: _mouseLeft, symObjAddr: 0x406D8, symBinAddr: 0x10017FDE8, symSize: 0x0 }
  - { offsetInCU: 0xD82, offset: 0x172C7, size: 0x8, addend: 0x0, symName: _mouseMid, symObjAddr: 0x406D9, symBinAddr: 0x10017FDE9, symSize: 0x0 }
  - { offsetInCU: 0xD98, offset: 0x172DD, size: 0x8, addend: 0x0, symName: _mouseRight, symObjAddr: 0x406DA, symBinAddr: 0x10017FDEA, symSize: 0x0 }
  - { offsetInCU: 0xDAE, offset: 0x172F3, size: 0x8, addend: 0x0, symName: _mouseX, symObjAddr: 0x406E0, symBinAddr: 0x10017FDF0, symSize: 0x0 }
  - { offsetInCU: 0xDD7, offset: 0x1731C, size: 0x8, addend: 0x0, symName: _mouseY, symObjAddr: 0x406E8, symBinAddr: 0x10017FDF8, symSize: 0x0 }
  - { offsetInCU: 0xDED, offset: 0x17332, size: 0x8, addend: 0x0, symName: _terrainWidth, symObjAddr: 0x4E80, symBinAddr: 0x100172014, symSize: 0x0 }
  - { offsetInCU: 0xE03, offset: 0x17348, size: 0x8, addend: 0x0, symName: _terrainHeight, symObjAddr: 0x4E84, symBinAddr: 0x100172018, symSize: 0x0 }
  - { offsetInCU: 0xE19, offset: 0x1735E, size: 0x8, addend: 0x0, symName: _terrainPosX, symObjAddr: 0x406F0, symBinAddr: 0x10017FE00, symSize: 0x0 }
  - { offsetInCU: 0xE2F, offset: 0x17374, size: 0x8, addend: 0x0, symName: _terrainPosY, symObjAddr: 0x406F4, symBinAddr: 0x10017FE04, symSize: 0x0 }
  - { offsetInCU: 0xE45, offset: 0x1738A, size: 0x8, addend: 0x0, symName: _terrainPosZ, symObjAddr: 0x406F8, symBinAddr: 0x10017FE08, symSize: 0x0 }
  - { offsetInCU: 0xE5B, offset: 0x173A0, size: 0x8, addend: 0x0, symName: _terrainRotX, symObjAddr: 0x406FC, symBinAddr: 0x10017FE0C, symSize: 0x0 }
  - { offsetInCU: 0xE71, offset: 0x173B6, size: 0x8, addend: 0x0, symName: _terrainRotY, symObjAddr: 0x40700, symBinAddr: 0x10017FE10, symSize: 0x0 }
  - { offsetInCU: 0xE87, offset: 0x173CC, size: 0x8, addend: 0x0, symName: _cameraPosX, symObjAddr: 0x40704, symBinAddr: 0x10017FE14, symSize: 0x0 }
  - { offsetInCU: 0xE9D, offset: 0x173E2, size: 0x8, addend: 0x0, symName: _cameraPosY, symObjAddr: 0x4E88, symBinAddr: 0x10017201C, symSize: 0x0 }
  - { offsetInCU: 0xEB3, offset: 0x173F8, size: 0x8, addend: 0x0, symName: _cameraPosZ, symObjAddr: 0x4E8C, symBinAddr: 0x100172020, symSize: 0x0 }
  - { offsetInCU: 0xEC9, offset: 0x1740E, size: 0x8, addend: 0x0, symName: _cameraTargetX, symObjAddr: 0x4E90, symBinAddr: 0x100172024, symSize: 0x0 }
  - { offsetInCU: 0xEDF, offset: 0x17424, size: 0x8, addend: 0x0, symName: _cameraTargetY, symObjAddr: 0x4E94, symBinAddr: 0x100172028, symSize: 0x0 }
  - { offsetInCU: 0xEF5, offset: 0x1743A, size: 0x8, addend: 0x0, symName: _cameraTargetZ, symObjAddr: 0x40708, symBinAddr: 0x10017FE18, symSize: 0x0 }
  - { offsetInCU: 0xF0B, offset: 0x17450, size: 0x8, addend: 0x0, symName: _octaves, symObjAddr: 0x4E98, symBinAddr: 0x10017202C, symSize: 0x0 }
  - { offsetInCU: 0xF21, offset: 0x17466, size: 0x8, addend: 0x0, symName: _frequency, symObjAddr: 0x4E9C, symBinAddr: 0x100172030, symSize: 0x0 }
  - { offsetInCU: 0xF37, offset: 0x1747C, size: 0x8, addend: 0x0, symName: _amplitude, symObjAddr: 0x4EA0, symBinAddr: 0x100172034, symSize: 0x0 }
  - { offsetInCU: 0xF4D, offset: 0x17492, size: 0x8, addend: 0x0, symName: _H, symObjAddr: 0x4EA4, symBinAddr: 0x100172038, symSize: 0x0 }
  - { offsetInCU: 0xF63, offset: 0x174A8, size: 0x8, addend: 0x0, symName: _waterLevel, symObjAddr: 0x4EA8, symBinAddr: 0x10017203C, symSize: 0x0 }
  - { offsetInCU: 0xF79, offset: 0x174BE, size: 0x8, addend: 0x0, symName: _snowLevel, symObjAddr: 0x4EAC, symBinAddr: 0x100172040, symSize: 0x0 }
  - { offsetInCU: 0xF8F, offset: 0x174D4, size: 0x8, addend: 0x0, symName: _ambientIntensity, symObjAddr: 0x4EB0, symBinAddr: 0x100172044, symSize: 0x0 }
  - { offsetInCU: 0xFA5, offset: 0x174EA, size: 0x8, addend: 0x0, symName: _lightColor, symObjAddr: 0x4070C, symBinAddr: 0x10017FE1C, symSize: 0x0 }
  - { offsetInCU: 0xFBB, offset: 0x17500, size: 0x8, addend: 0x0, symName: _diffuseIntensity, symObjAddr: 0x4EB4, symBinAddr: 0x100172048, symSize: 0x0 }
  - { offsetInCU: 0xFD1, offset: 0x17516, size: 0x8, addend: 0x0, symName: _lightDirection, symObjAddr: 0x40718, symBinAddr: 0x10017FE28, symSize: 0x0 }
  - { offsetInCU: 0xFE7, offset: 0x1752C, size: 0x8, addend: 0x0, symName: _specularIntensity, symObjAddr: 0x4EB8, symBinAddr: 0x10017204C, symSize: 0x0 }
  - { offsetInCU: 0xFFD, offset: 0x17542, size: 0x8, addend: 0x0, symName: _shininess, symObjAddr: 0x4EBC, symBinAddr: 0x100172050, symSize: 0x0 }
  - { offsetInCU: 0x3A4A, offset: 0x19F8F, size: 0x8, addend: 0x0, symName: __ZNSt3__124__put_character_sequenceB8ue170006IcNS_11char_traitsIcEEEERNS_13basic_ostreamIT_T0_EES7_PKS4_m, symObjAddr: 0x3C44, symBinAddr: 0x10003F750, symSize: 0x1EC }
  - { offsetInCU: 0x53B6, offset: 0x1B8FB, size: 0x8, addend: 0x0, symName: __ZNSt3__1lsB8ue170006INS_11char_traitsIcEEEERNS_13basic_ostreamIcT_EES6_PKc, symObjAddr: 0x15A0, symBinAddr: 0x10003D8DC, symSize: 0x48 }
  - { offsetInCU: 0x53FC, offset: 0x1B941, size: 0x8, addend: 0x0, symName: __ZNSt3__14endlB8ue170006IcNS_11char_traitsIcEEEERNS_13basic_ostreamIT_T0_EES7_, symObjAddr: 0x1614, symBinAddr: 0x10003D950, symSize: 0x58 }
  - { offsetInCU: 0x543C, offset: 0x1B981, size: 0x8, addend: 0x0, symName: __ZNSt3__116__pad_and_outputB8ue170006IcNS_11char_traitsIcEEEENS_19ostreambuf_iteratorIT_T0_EES6_PKS4_S8_S8_RNS_8ios_baseES4_, symObjAddr: 0x3E80, symBinAddr: 0x10003F958, symSize: 0x240 }
  - { offsetInCU: 0x550B, offset: 0x1BA50, size: 0x8, addend: 0x0, symName: __ZNSt3__112__to_addressB8ue170006IKcEEPT_S3_, symObjAddr: 0x43E8, symBinAddr: 0x10003FDC8, symSize: 0x14 }
  - { offsetInCU: 0x5573, offset: 0x1BAB8, size: 0x8, addend: 0x0, symName: __ZNSt3__19use_facetB8ue170006INS_5ctypeIcEEEERKT_RKNS_6localeE, symObjAddr: 0x4668, symBinAddr: 0x100040048, symSize: 0x2C }
  - { offsetInCU: 0xA77B, offset: 0x20CC0, size: 0x8, addend: 0x0, symName: __ZN10TrackBallCC1Ev, symObjAddr: 0x0, symBinAddr: 0x10003C380, symSize: 0x2C }
  - { offsetInCU: 0xA7A3, offset: 0x20CE8, size: 0x8, addend: 0x0, symName: __ZN10TrackBallCD1Ev, symObjAddr: 0x2C, symBinAddr: 0x10003C3AC, symSize: 0x2C }
  - { offsetInCU: 0xA7CC, offset: 0x20D11, size: 0x8, addend: 0x0, symName: __Z13MouseCallbackP10GLFWwindowdd, symObjAddr: 0x9C, symBinAddr: 0x10003C3D8, symSize: 0x118 }
  - { offsetInCU: 0xA81F, offset: 0x20D64, size: 0x8, addend: 0x0, symName: __ZN10TrackBallC6RotateEii, symObjAddr: 0x1B4, symBinAddr: 0x10003C4F0, symSize: 0x2BC }
  - { offsetInCU: 0xA8E3, offset: 0x20E28, size: 0x8, addend: 0x0, symName: __ZN10TrackBallC9TranslateEii, symObjAddr: 0x470, symBinAddr: 0x10003C7AC, symSize: 0x10C }
  - { offsetInCU: 0xA95D, offset: 0x20EA2, size: 0x8, addend: 0x0, symName: __ZN10TrackBallC4ZoomEii, symObjAddr: 0x57C, symBinAddr: 0x10003C8B8, symSize: 0xE8 }
  - { offsetInCU: 0xA9C9, offset: 0x20F0E, size: 0x8, addend: 0x0, symName: __Z19MouseButtonCallbackP10GLFWwindowiii, symObjAddr: 0x664, symBinAddr: 0x10003C9A0, symSize: 0x2C4 }
  - { offsetInCU: 0xAA2A, offset: 0x20F6F, size: 0x8, addend: 0x0, symName: __ZN10TrackBallC3SetEP10GLFWwindowbii, symObjAddr: 0x928, symBinAddr: 0x10003CC64, symSize: 0xAC }
  - { offsetInCU: 0xAA87, offset: 0x20FCC, size: 0x8, addend: 0x0, symName: _main, symObjAddr: 0x9D4, symBinAddr: 0x10003CD10, symSize: 0xBCC }
  - { offsetInCU: 0xAB3E, offset: 0x21083, size: 0x8, addend: 0x0, symName: __ZNSt3__113basic_ostreamIcNS_11char_traitsIcEEElsB8ue170006EPFRS3_S4_E, symObjAddr: 0x15E8, symBinAddr: 0x10003D924, symSize: 0x2C }
  - { offsetInCU: 0xAB71, offset: 0x210B6, size: 0x8, addend: 0x0, symName: __ZL11KbdCallbackP10GLFWwindowiiii, symObjAddr: 0x166C, symBinAddr: 0x10003D9A8, symSize: 0x64 }
  - { offsetInCU: 0xABD2, offset: 0x21117, size: 0x8, addend: 0x0, symName: __ZN3glm3matILi4ELi4EfLNS_9qualifierE0EEC1Ef, symObjAddr: 0x1920, symBinAddr: 0x10003DC18, symSize: 0x34 }
  - { offsetInCU: 0xAC09, offset: 0x2114E, size: 0x8, addend: 0x0, symName: __ZN10TrackBallCC2Ev, symObjAddr: 0x2848, symBinAddr: 0x10003EB40, symSize: 0x4C }
  - { offsetInCU: 0xAC32, offset: 0x21177, size: 0x8, addend: 0x0, symName: __ZN10TrackBallCD2Ev, symObjAddr: 0x2894, symBinAddr: 0x10003EB8C, symSize: 0x14 }
  - { offsetInCU: 0xAC5B, offset: 0x211A0, size: 0x8, addend: 0x0, symName: __ZN10TrackBallC9trackBallEii, symObjAddr: 0x28A8, symBinAddr: 0x10003EBA0, symSize: 0x134 }
  - { offsetInCU: 0xACD4, offset: 0x21219, size: 0x8, addend: 0x0, symName: __ZN3glm3vecILi3EfLNS_9qualifierE0EE6lengthEv, symObjAddr: 0x2A4C, symBinAddr: 0x10003ECD4, symSize: 0x8 }
  - { offsetInCU: 0xACE8, offset: 0x2122D, size: 0x8, addend: 0x0, symName: __ZN3glm3vecILi4EfLNS_9qualifierE0EEixEi, symObjAddr: 0x2B8C, symBinAddr: 0x10003ECDC, symSize: 0x10C }
  - { offsetInCU: 0xAD1D, offset: 0x21262, size: 0x8, addend: 0x0, symName: __ZN3glm3vecILi3EfLNS_9qualifierE0EEC1IdddEET_T0_T1_, symObjAddr: 0x2CA8, symBinAddr: 0x10003EDF8, symSize: 0x44 }
  - { offsetInCU: 0xAD8D, offset: 0x212D2, size: 0x8, addend: 0x0, symName: __ZN3glm3vecILi3EfLNS_9qualifierE0EEC2IdddEET_T0_T1_, symObjAddr: 0x2CEC, symBinAddr: 0x10003EE3C, symSize: 0x44 }
  - { offsetInCU: 0xADFD, offset: 0x21342, size: 0x8, addend: 0x0, symName: __ZN3glm3vecILi4EfLNS_9qualifierE0EE6lengthEv, symObjAddr: 0x2FD8, symBinAddr: 0x10003EE80, symSize: 0x8 }
  - { offsetInCU: 0xAE10, offset: 0x21355, size: 0x8, addend: 0x0, symName: __ZN3glm3vecILi3EfLNS_9qualifierE0EEC1IffiEET_T0_T1_, symObjAddr: 0x2FE0, symBinAddr: 0x10003EE88, symSize: 0x44 }
  - { offsetInCU: 0xAE80, offset: 0x213C5, size: 0x8, addend: 0x0, symName: __ZN3glm3vecILi3EfLNS_9qualifierE0EEC2IffiEET_T0_T1_, symObjAddr: 0x3024, symBinAddr: 0x10003EECC, symSize: 0x3C }
  - { offsetInCU: 0xAEEF, offset: 0x21434, size: 0x8, addend: 0x0, symName: __ZN3glm3vecILi3EfLNS_9qualifierE0EEC1IiifEET_T0_T1_, symObjAddr: 0x3060, symBinAddr: 0x10003EF08, symSize: 0x44 }
  - { offsetInCU: 0xAF5F, offset: 0x214A4, size: 0x8, addend: 0x0, symName: __ZN3glm3vecILi3EfLNS_9qualifierE0EEC2IiifEET_T0_T1_, symObjAddr: 0x30A4, symBinAddr: 0x10003EF4C, symSize: 0x40 }
  - { offsetInCU: 0xAFCF, offset: 0x21514, size: 0x8, addend: 0x0, symName: __ZN10TrackBallC5SetWHEP10GLFWwindow, symObjAddr: 0x30E4, symBinAddr: 0x10003EF8C, symSize: 0x38 }
  - { offsetInCU: 0xB002, offset: 0x21547, size: 0x8, addend: 0x0, symName: __ZN3glm3matILi4ELi4EfLNS_9qualifierE0EEC2Ef, symObjAddr: 0x3154, symBinAddr: 0x10003EFC4, symSize: 0x98 }
  - { offsetInCU: 0xB039, offset: 0x2157E, size: 0x8, addend: 0x0, symName: __ZN3glm3vecILi4EfLNS_9qualifierE0EEC1IfiiiEET_T0_T1_T2_, symObjAddr: 0x31EC, symBinAddr: 0x10003F05C, symSize: 0x4C }
  - { offsetInCU: 0xB0BF, offset: 0x21604, size: 0x8, addend: 0x0, symName: __ZN3glm3vecILi4EfLNS_9qualifierE0EEC1IifiiEET_T0_T1_T2_, symObjAddr: 0x3238, symBinAddr: 0x10003F0A8, symSize: 0x4C }
  - { offsetInCU: 0xB145, offset: 0x2168A, size: 0x8, addend: 0x0, symName: __ZN3glm3vecILi4EfLNS_9qualifierE0EEC1IiifiEET_T0_T1_T2_, symObjAddr: 0x3284, symBinAddr: 0x10003F0F4, symSize: 0x4C }
  - { offsetInCU: 0xB1CB, offset: 0x21710, size: 0x8, addend: 0x0, symName: __ZN3glm3vecILi4EfLNS_9qualifierE0EEC1IiiifEET_T0_T1_T2_, symObjAddr: 0x32D0, symBinAddr: 0x10003F140, symSize: 0x4C }
  - { offsetInCU: 0xB252, offset: 0x21797, size: 0x8, addend: 0x0, symName: __ZN3glm3vecILi4EfLNS_9qualifierE0EEC2IfiiiEET_T0_T1_T2_, symObjAddr: 0x331C, symBinAddr: 0x10003F18C, symSize: 0x50 }
  - { offsetInCU: 0xB2D9, offset: 0x2181E, size: 0x8, addend: 0x0, symName: __ZN3glm3vecILi4EfLNS_9qualifierE0EEC2IifiiEET_T0_T1_T2_, symObjAddr: 0x336C, symBinAddr: 0x10003F1DC, symSize: 0x50 }
  - { offsetInCU: 0xB360, offset: 0x218A5, size: 0x8, addend: 0x0, symName: __ZN3glm3vecILi4EfLNS_9qualifierE0EEC2IiifiEET_T0_T1_T2_, symObjAddr: 0x33BC, symBinAddr: 0x10003F22C, symSize: 0x50 }
  - { offsetInCU: 0xB3E7, offset: 0x2192C, size: 0x8, addend: 0x0, symName: __ZN3glm3vecILi4EfLNS_9qualifierE0EEC2IiiifEET_T0_T1_T2_, symObjAddr: 0x340C, symBinAddr: 0x10003F27C, symSize: 0x50 }
  - { offsetInCU: 0xB46D, offset: 0x219B2, size: 0x8, addend: 0x0, symName: __Z3cosB8ue170006f, symObjAddr: 0x345C, symBinAddr: 0x10003F2CC, symSize: 0x24 }
  - { offsetInCU: 0xB49B, offset: 0x219E0, size: 0x8, addend: 0x0, symName: __Z3sinB8ue170006f, symObjAddr: 0x3480, symBinAddr: 0x10003F2F0, symSize: 0x24 }
  - { offsetInCU: 0xB4CA, offset: 0x21A0F, size: 0x8, addend: 0x0, symName: __ZN3glm3vecILi3EfLNS_9qualifierE0EEixEi, symObjAddr: 0x3508, symBinAddr: 0x10003F378, symSize: 0x108 }
  - { offsetInCU: 0xB4FE, offset: 0x21A43, size: 0x8, addend: 0x0, symName: __ZNK3glm3matILi4ELi4EfLNS_9qualifierE0EEixEi, symObjAddr: 0x36B0, symBinAddr: 0x10003F480, symSize: 0xAC }
  - { offsetInCU: 0xB534, offset: 0x21A79, size: 0x8, addend: 0x0, symName: __ZNK3glm3vecILi4EfLNS_9qualifierE0EEixEi, symObjAddr: 0x3A20, symBinAddr: 0x10003F52C, symSize: 0x10C }
  - { offsetInCU: 0xB56A, offset: 0x21AAF, size: 0x8, addend: 0x0, symName: __ZNK3glm3vecILi3EfLNS_9qualifierE0EEixEi, symObjAddr: 0x3B3C, symBinAddr: 0x10003F648, symSize: 0x108 }
  - { offsetInCU: 0xB5BC, offset: 0x21B01, size: 0x8, addend: 0x0, symName: __ZNKSt3__113basic_ostreamIcNS_11char_traitsIcEEE6sentrycvbB8ue170006Ev, symObjAddr: 0x3E64, symBinAddr: 0x10003F93C, symSize: 0x1C }
  - { offsetInCU: 0xB5E0, offset: 0x21B25, size: 0x8, addend: 0x0, symName: __ZNSt3__119ostreambuf_iteratorIcNS_11char_traitsIcEEEC1B8ue170006ERNS_13basic_ostreamIcS2_EE, symObjAddr: 0x40C0, symBinAddr: 0x10003FB98, symSize: 0x34 }
  - { offsetInCU: 0xB617, offset: 0x21B5C, size: 0x8, addend: 0x0, symName: __ZNKSt3__18ios_base5flagsB8ue170006Ev, symObjAddr: 0x40F4, symBinAddr: 0x10003FBCC, symSize: 0x18 }
  - { offsetInCU: 0xB63D, offset: 0x21B82, size: 0x8, addend: 0x0, symName: __ZNKSt3__19basic_iosIcNS_11char_traitsIcEEE4fillB8ue170006Ev, symObjAddr: 0x410C, symBinAddr: 0x10003FBE4, symSize: 0x64 }
  - { offsetInCU: 0xB663, offset: 0x21BA8, size: 0x8, addend: 0x0, symName: __ZNKSt3__119ostreambuf_iteratorIcNS_11char_traitsIcEEE6failedB8ue170006Ev, symObjAddr: 0x4170, symBinAddr: 0x10003FC48, symSize: 0x24 }
  - { offsetInCU: 0xB688, offset: 0x21BCD, size: 0x8, addend: 0x0, symName: __ZNSt3__19basic_iosIcNS_11char_traitsIcEEE8setstateB8ue170006Ej, symObjAddr: 0x4194, symBinAddr: 0x10003FC6C, symSize: 0x2C }
  - { offsetInCU: 0xB6BC, offset: 0x21C01, size: 0x8, addend: 0x0, symName: __ZNKSt3__18ios_base5widthB8ue170006Ev, symObjAddr: 0x41C0, symBinAddr: 0x10003FC98, symSize: 0x18 }
  - { offsetInCU: 0xB6E2, offset: 0x21C27, size: 0x8, addend: 0x0, symName: __ZNSt3__115basic_streambufIcNS_11char_traitsIcEEE5sputnB8ue170006EPKcl, symObjAddr: 0x41D8, symBinAddr: 0x10003FCB0, symSize: 0x3C }
  - { offsetInCU: 0xB722, offset: 0x21C67, size: 0x8, addend: 0x0, symName: __ZNSt3__112basic_stringIcNS_11char_traitsIcEENS_9allocatorIcEEEC1B8ue170006Emc, symObjAddr: 0x4214, symBinAddr: 0x10003FCEC, symSize: 0x3C }
  - { offsetInCU: 0xB769, offset: 0x21CAE, size: 0x8, addend: 0x0, symName: __ZNKSt3__112basic_stringIcNS_11char_traitsIcEENS_9allocatorIcEEE4dataB8ue170006Ev, symObjAddr: 0x4250, symBinAddr: 0x10003FD28, symSize: 0x28 }
  - { offsetInCU: 0xB78E, offset: 0x21CD3, size: 0x8, addend: 0x0, symName: __ZNSt3__18ios_base5widthB8ue170006El, symObjAddr: 0x4278, symBinAddr: 0x10003FD50, symSize: 0x2C }
  - { offsetInCU: 0xB7D1, offset: 0x21D16, size: 0x8, addend: 0x0, symName: __ZNSt3__112basic_stringIcNS_11char_traitsIcEENS_9allocatorIcEEEC2B8ue170006Emc, symObjAddr: 0x42A4, symBinAddr: 0x10003FD7C, symSize: 0x4C }
  - { offsetInCU: 0xB818, offset: 0x21D5D, size: 0x8, addend: 0x0, symName: __ZNKSt3__112basic_stringIcNS_11char_traitsIcEENS_9allocatorIcEEE13__get_pointerB8ue170006Ev, symObjAddr: 0x43FC, symBinAddr: 0x10003FDDC, symSize: 0x54 }
  - { offsetInCU: 0xB83D, offset: 0x21D82, size: 0x8, addend: 0x0, symName: __ZNKSt3__112basic_stringIcNS_11char_traitsIcEENS_9allocatorIcEEE9__is_longB8ue170006Ev, symObjAddr: 0x4450, symBinAddr: 0x10003FE30, symSize: 0x38 }
  - { offsetInCU: 0xB862, offset: 0x21DA7, size: 0x8, addend: 0x0, symName: __ZNKSt3__112basic_stringIcNS_11char_traitsIcEENS_9allocatorIcEEE18__get_long_pointerB8ue170006Ev, symObjAddr: 0x4488, symBinAddr: 0x10003FE68, symSize: 0x28 }
  - { offsetInCU: 0xB887, offset: 0x21DCC, size: 0x8, addend: 0x0, symName: __ZNKSt3__112basic_stringIcNS_11char_traitsIcEENS_9allocatorIcEEE19__get_short_pointerB8ue170006Ev, symObjAddr: 0x44B0, symBinAddr: 0x10003FE90, symSize: 0x28 }
  - { offsetInCU: 0xB8AC, offset: 0x21DF1, size: 0x8, addend: 0x0, symName: __ZNKSt3__117__compressed_pairINS_12basic_stringIcNS_11char_traitsIcEENS_9allocatorIcEEE5__repES5_E5firstB8ue170006Ev, symObjAddr: 0x44D8, symBinAddr: 0x10003FEB8, symSize: 0x24 }
  - { offsetInCU: 0xB8D1, offset: 0x21E16, size: 0x8, addend: 0x0, symName: __ZNKSt3__122__compressed_pair_elemINS_12basic_stringIcNS_11char_traitsIcEENS_9allocatorIcEEE5__repELi0ELb0EE5__getB8ue170006Ev, symObjAddr: 0x44FC, symBinAddr: 0x10003FEDC, symSize: 0x14 }
  - { offsetInCU: 0xB8F6, offset: 0x21E3B, size: 0x8, addend: 0x0, symName: __ZNSt3__114pointer_traitsIPKcE10pointer_toB8ue170006ERS1_, symObjAddr: 0x4510, symBinAddr: 0x10003FEF0, symSize: 0x14 }
  - { offsetInCU: 0xB918, offset: 0x21E5D, size: 0x8, addend: 0x0, symName: __ZNSt3__119ostreambuf_iteratorIcNS_11char_traitsIcEEEC2B8ue170006ERNS_13basic_ostreamIcS2_EE, symObjAddr: 0x4524, symBinAddr: 0x10003FF04, symSize: 0x54 }
  - { offsetInCU: 0xB94F, offset: 0x21E94, size: 0x8, addend: 0x0, symName: __ZNKSt3__19basic_iosIcNS_11char_traitsIcEEE5rdbufB8ue170006Ev, symObjAddr: 0x4578, symBinAddr: 0x10003FF58, symSize: 0x24 }
  - { offsetInCU: 0xB975, offset: 0x21EBA, size: 0x8, addend: 0x0, symName: __ZNKSt3__18ios_base5rdbufB8ue170006Ev, symObjAddr: 0x459C, symBinAddr: 0x10003FF7C, symSize: 0x18 }
  - { offsetInCU: 0xB99A, offset: 0x21EDF, size: 0x8, addend: 0x0, symName: __ZNSt3__111char_traitsIcE11eq_int_typeB8ue170006Eii, symObjAddr: 0x45B4, symBinAddr: 0x10003FF94, symSize: 0x28 }
  - { offsetInCU: 0xB9CD, offset: 0x21F12, size: 0x8, addend: 0x0, symName: __ZNSt3__111char_traitsIcE3eofB8ue170006Ev, symObjAddr: 0x45DC, symBinAddr: 0x10003FFBC, symSize: 0x8 }
  - { offsetInCU: 0xB9E1, offset: 0x21F26, size: 0x8, addend: 0x0, symName: __ZNKSt3__19basic_iosIcNS_11char_traitsIcEEE5widenB8ue170006Ec, symObjAddr: 0x45E4, symBinAddr: 0x10003FFC4, symSize: 0x84 }
  - { offsetInCU: 0xBA4D, offset: 0x21F92, size: 0x8, addend: 0x0, symName: __ZNKSt3__15ctypeIcE5widenB8ue170006Ec, symObjAddr: 0x4694, symBinAddr: 0x100040074, symSize: 0x38 }
  - { offsetInCU: 0xBA81, offset: 0x21FC6, size: 0x8, addend: 0x0, symName: __ZNSt3__18ios_base8setstateB8ue170006Ej, symObjAddr: 0x46CC, symBinAddr: 0x1000400AC, symSize: 0x34 }
  - { offsetInCU: 0xBAC5, offset: 0x2200A, size: 0x8, addend: 0x0, symName: __ZNSt3__114numeric_limitsIfE7epsilonB8ue170006Ev, symObjAddr: 0x490C, symBinAddr: 0x1000402A4, symSize: 0x14 }
  - { offsetInCU: 0xBAD8, offset: 0x2201D, size: 0x8, addend: 0x0, symName: __Z3tanB8ue170006f, symObjAddr: 0x4920, symBinAddr: 0x1000402B8, symSize: 0x24 }
  - { offsetInCU: 0xBB07, offset: 0x2204C, size: 0x8, addend: 0x0, symName: __ZNSt3__123__libcpp_numeric_limitsIfLb1EE7epsilonB8ue170006Ev, symObjAddr: 0x4988, symBinAddr: 0x1000402DC, symSize: 0x8 }
  - { offsetInCU: 0x5705, offset: 0x2D068, size: 0x8, addend: 0x0, symName: __ZNSt3__1lsB8ue170006IcNS_11char_traitsIcEENS_9allocatorIcEEEERNS_13basic_ostreamIT_T0_EES9_RKNS_12basic_stringIS6_S7_T1_EE, symObjAddr: 0x488, symBinAddr: 0x100040B2C, symSize: 0x4C }
  - { offsetInCU: 0x7CCE, offset: 0x2F631, size: 0x8, addend: 0x0, symName: __Z9ShaderLogij, symObjAddr: 0x0, symBinAddr: 0x1000406A4, symSize: 0x198 }
  - { offsetInCU: 0x7D2F, offset: 0x2F692, size: 0x8, addend: 0x0, symName: __Z8FindFileRKNSt3__112basic_stringIcNS_11char_traitsIcEENS_9allocatorIcEEEE, symObjAddr: 0x198, symBinAddr: 0x10004083C, symSize: 0x134 }
  - { offsetInCU: 0x7D6A, offset: 0x2F6CD, size: 0x8, addend: 0x0, symName: __ZNKSt3__112basic_stringIcNS_11char_traitsIcEENS_9allocatorIcEEE5c_strB8ue170006Ev, symObjAddr: 0x2CC, symBinAddr: 0x100040970, symSize: 0x24 }
  - { offsetInCU: 0x7E2C, offset: 0x2F78F, size: 0x8, addend: 0x0, symName: __ZNSt3__114basic_ifstreamIcNS_11char_traitsIcEEEC1EPKcj, symObjAddr: 0x2F0, symBinAddr: 0x100040994, symSize: 0x16C }
  - { offsetInCU: 0x7E74, offset: 0x2F7D7, size: 0x8, addend: 0x0, symName: __ZNKSt3__114basic_ifstreamIcNS_11char_traitsIcEEE7is_openEv, symObjAddr: 0x45C, symBinAddr: 0x100040B00, symSize: 0x2C }
  - { offsetInCU: 0x7E9A, offset: 0x2F7FD, size: 0x8, addend: 0x0, symName: __ZNSt3__112basic_stringIcNS_11char_traitsIcEENS_9allocatorIcEEEC1B8ue170006Ev, symObjAddr: 0x5A0, symBinAddr: 0x100040B78, symSize: 0x2C }
  - { offsetInCU: 0x7EC7, offset: 0x2F82A, size: 0x8, addend: 0x0, symName: __ZNSt3__114basic_ifstreamIcNS_11char_traitsIcEEED1Ev, symObjAddr: 0x5CC, symBinAddr: 0x100040BA4, symSize: 0x40 }
  - { offsetInCU: 0x7EF3, offset: 0x2F856, size: 0x8, addend: 0x0, symName: __Z10LoadShaderRKNSt3__112basic_stringIcNS_11char_traitsIcEENS_9allocatorIcEEEE, symObjAddr: 0x60C, symBinAddr: 0x100040BE4, symSize: 0x150 }
  - { offsetInCU: 0x7FAB, offset: 0x2F90E, size: 0x8, addend: 0x0, symName: __ZNSt3__118basic_stringstreamIcNS_11char_traitsIcEENS_9allocatorIcEEEC1B8ue170006Ev, symObjAddr: 0x75C, symBinAddr: 0x100040D34, symSize: 0x104 }
  - { offsetInCU: 0x7FD3, offset: 0x2F936, size: 0x8, addend: 0x0, symName: __ZNKSt3__114basic_ifstreamIcNS_11char_traitsIcEEE5rdbufEv, symObjAddr: 0x860, symBinAddr: 0x100040E38, symSize: 0x18 }
  - { offsetInCU: 0x7FF9, offset: 0x2F95C, size: 0x8, addend: 0x0, symName: __ZNSt3__114basic_ifstreamIcNS_11char_traitsIcEEE5closeEv, symObjAddr: 0x878, symBinAddr: 0x100040E50, symSize: 0x58 }
  - { offsetInCU: 0x801F, offset: 0x2F982, size: 0x8, addend: 0x0, symName: __ZNKSt3__118basic_stringstreamIcNS_11char_traitsIcEENS_9allocatorIcEEE3strB8ue170006Ev, symObjAddr: 0x8D0, symBinAddr: 0x100040EA8, symSize: 0x30 }
  - { offsetInCU: 0x8049, offset: 0x2F9AC, size: 0x8, addend: 0x0, symName: __ZNSt3__118basic_stringstreamIcNS_11char_traitsIcEENS_9allocatorIcEEED1Ev, symObjAddr: 0x900, symBinAddr: 0x100040ED8, symSize: 0x40 }
  - { offsetInCU: 0x8075, offset: 0x2F9D8, size: 0x8, addend: 0x0, symName: __Z12CreateShaderjRKNSt3__112basic_stringIcNS_11char_traitsIcEENS_9allocatorIcEEEE, symObjAddr: 0x940, symBinAddr: 0x100040F18, symSize: 0x118 }
  - { offsetInCU: 0x80D9, offset: 0x2FA3C, size: 0x8, addend: 0x0, symName: __Z13CreateProgramRKNSt3__16vectorIjNS_9allocatorIjEEEE, symObjAddr: 0xA58, symBinAddr: 0x100041030, symSize: 0x178 }
  - { offsetInCU: 0x8159, offset: 0x2FABC, size: 0x8, addend: 0x0, symName: __ZNKSt3__16vectorIjNS_9allocatorIjEEEixB8ue170006Em, symObjAddr: 0xBF8, symBinAddr: 0x1000411A8, symSize: 0x24 }
  - { offsetInCU: 0x818E, offset: 0x2FAF1, size: 0x8, addend: 0x0, symName: __ZNSt3__114basic_ifstreamIcNS_11char_traitsIcEEED2Ev, symObjAddr: 0xC1C, symBinAddr: 0x1000411CC, symSize: 0x64 }
  - { offsetInCU: 0x81C6, offset: 0x2FB29, size: 0x8, addend: 0x0, symName: __ZTv0_n24_NSt3__114basic_ifstreamIcNS_11char_traitsIcEEED1Ev, symObjAddr: 0xC80, symBinAddr: 0x100041230, symSize: 0x28 }
  - { offsetInCU: 0x81DD, offset: 0x2FB40, size: 0x8, addend: 0x0, symName: __ZNSt3__118basic_stringstreamIcNS_11char_traitsIcEENS_9allocatorIcEEED2Ev, symObjAddr: 0xCA8, symBinAddr: 0x100041258, symSize: 0x6C }
  - { offsetInCU: 0x8215, offset: 0x2FB78, size: 0x8, addend: 0x0, symName: __ZThn16_NSt3__118basic_stringstreamIcNS_11char_traitsIcEENS_9allocatorIcEEED1Ev, symObjAddr: 0xD14, symBinAddr: 0x1000412C4, symSize: 0x1C }
  - { offsetInCU: 0x822C, offset: 0x2FB8F, size: 0x8, addend: 0x0, symName: __ZTv0_n24_NSt3__118basic_stringstreamIcNS_11char_traitsIcEENS_9allocatorIcEEED1Ev, symObjAddr: 0xD30, symBinAddr: 0x1000412E0, symSize: 0x28 }
  - { offsetInCU: 0x8248, offset: 0x2FBAB, size: 0x8, addend: 0x0, symName: __ZNSt3__115basic_stringbufIcNS_11char_traitsIcEENS_9allocatorIcEEED1Ev, symObjAddr: 0xD58, symBinAddr: 0x100041308, symSize: 0x2C }
  - { offsetInCU: 0x8274, offset: 0x2FBD7, size: 0x8, addend: 0x0, symName: __ZNSt3__115basic_stringbufIcNS_11char_traitsIcEENS_9allocatorIcEEED2Ev, symObjAddr: 0xD84, symBinAddr: 0x100041334, symSize: 0x48 }
  - { offsetInCU: 0x82A0, offset: 0x2FC03, size: 0x8, addend: 0x0, symName: __ZNSt3__112basic_stringIcNS_11char_traitsIcEENS_9allocatorIcEEEC2B8ue170006Ev, symObjAddr: 0xDCC, symBinAddr: 0x10004137C, symSize: 0x48 }
  - { offsetInCU: 0x82C8, offset: 0x2FC2B, size: 0x8, addend: 0x0, symName: __ZNSt3__112basic_stringIcNS_11char_traitsIcEENS_9allocatorIcEEE14__default_initB8ue170006Ev, symObjAddr: 0xE5C, symBinAddr: 0x1000413C4, symSize: 0x40 }
  - { offsetInCU: 0x82ED, offset: 0x2FC50, size: 0x8, addend: 0x0, symName: __ZNSt3__117__compressed_pairINS_12basic_stringIcNS_11char_traitsIcEENS_9allocatorIcEEE5__repES5_E5firstB8ue170006Ev, symObjAddr: 0xF58, symBinAddr: 0x100041404, symSize: 0x24 }
  - { offsetInCU: 0x8312, offset: 0x2FC75, size: 0x8, addend: 0x0, symName: __ZNSt3__122__compressed_pair_elemINS_12basic_stringIcNS_11char_traitsIcEENS_9allocatorIcEEE5__repELi0ELb0EE5__getB8ue170006Ev, symObjAddr: 0xF7C, symBinAddr: 0x100041428, symSize: 0x14 }
  - { offsetInCU: 0x8337, offset: 0x2FC9A, size: 0x8, addend: 0x0, symName: __ZNSt3__19basic_iosIcNS_11char_traitsIcEEEC2B8ue170006Ev, symObjAddr: 0x10F4, symBinAddr: 0x10004143C, symSize: 0x44 }
  - { offsetInCU: 0x835F, offset: 0x2FCC2, size: 0x8, addend: 0x0, symName: __ZNSt3__113basic_istreamIcNS_11char_traitsIcEEEC2B8ue170006EPNS_15basic_streambufIcS2_EE, symObjAddr: 0x1138, symBinAddr: 0x100041480, symSize: 0x64 }
  - { offsetInCU: 0x83A1, offset: 0x2FD04, size: 0x8, addend: 0x0, symName: __ZNSt3__18ios_baseC2B8ue170006Ev, symObjAddr: 0x11C8, symBinAddr: 0x1000414E4, symSize: 0x24 }
  - { offsetInCU: 0x83CA, offset: 0x2FD2D, size: 0x8, addend: 0x0, symName: __ZNSt3__19basic_iosIcNS_11char_traitsIcEEE4initB8ue170006EPNS_15basic_streambufIcS2_EE, symObjAddr: 0x11EC, symBinAddr: 0x100041508, symSize: 0x44 }
  - { offsetInCU: 0x83FF, offset: 0x2FD62, size: 0x8, addend: 0x0, symName: __ZNKSt3__113basic_filebufIcNS_11char_traitsIcEEE7is_openEv, symObjAddr: 0x126C, symBinAddr: 0x10004154C, symSize: 0x24 }
  - { offsetInCU: 0x8443, offset: 0x2FDA6, size: 0x8, addend: 0x0, symName: __ZNKSt3__112basic_stringIcNS_11char_traitsIcEENS_9allocatorIcEEE4sizeB8ue170006Ev, symObjAddr: 0x1AAC, symBinAddr: 0x100041570, symSize: 0x54 }
  - { offsetInCU: 0x8468, offset: 0x2FDCB, size: 0x8, addend: 0x0, symName: __ZNKSt3__112basic_stringIcNS_11char_traitsIcEENS_9allocatorIcEEE15__get_long_sizeB8ue170006Ev, symObjAddr: 0x1B00, symBinAddr: 0x1000415C4, symSize: 0x28 }
  - { offsetInCU: 0x848D, offset: 0x2FDF0, size: 0x8, addend: 0x0, symName: __ZNKSt3__112basic_stringIcNS_11char_traitsIcEENS_9allocatorIcEEE16__get_short_sizeB8ue170006Ev, symObjAddr: 0x1B28, symBinAddr: 0x1000415EC, symSize: 0x34 }
  - { offsetInCU: 0x84B2, offset: 0x2FE15, size: 0x8, addend: 0x0, symName: __ZNSt3__114basic_iostreamIcNS_11char_traitsIcEEEC2B8ue170006EPNS_15basic_streambufIcS2_EE, symObjAddr: 0x1B5C, symBinAddr: 0x100041620, symSize: 0xAC }
  - { offsetInCU: 0x84F5, offset: 0x2FE58, size: 0x8, addend: 0x0, symName: __ZNSt3__115basic_stringbufIcNS_11char_traitsIcEENS_9allocatorIcEEEC1B8ue170006Ej, symObjAddr: 0x1C08, symBinAddr: 0x1000416CC, symSize: 0x34 }
  - { offsetInCU: 0x852C, offset: 0x2FE8F, size: 0x8, addend: 0x0, symName: __ZNSt3__113basic_ostreamIcNS_11char_traitsIcEEEC2B8ue170006Ev, symObjAddr: 0x1C3C, symBinAddr: 0x100041700, symSize: 0x34 }
  - { offsetInCU: 0x8561, offset: 0x2FEC4, size: 0x8, addend: 0x0, symName: __ZNSt3__115basic_stringbufIcNS_11char_traitsIcEENS_9allocatorIcEEEC2B8ue170006Ej, symObjAddr: 0x1C70, symBinAddr: 0x100041734, symSize: 0x60 }
  - { offsetInCU: 0x40, offset: 0x2FF94, size: 0x8, addend: 0x0, symName: _GImGui, symObjAddr: 0xE2250, symBinAddr: 0x10017FE38, symSize: 0x0 }
  - { offsetInCU: 0xD90A, offset: 0x3D85E, size: 0x8, addend: 0x0, symName: __Z18ImTextCharFromUtf8PjPKcS1_, symObjAddr: 0x119C, symBinAddr: 0x100042930, symSize: 0x364 }
  - { offsetInCU: 0xD935, offset: 0x3D889, size: 0x8, addend: 0x0, symName: __ZZ18ImTextCharFromUtf8PjPKcS1_E7lengths, symObjAddr: 0x4BBA0, symBinAddr: 0x10015BBB0, symSize: 0x0 }
  - { offsetInCU: 0xD94C, offset: 0x3D8A0, size: 0x8, addend: 0x0, symName: __ZZ18ImTextCharFromUtf8PjPKcS1_E5masks, symObjAddr: 0x4BBC0, symBinAddr: 0x10015BBD0, symSize: 0x0 }
  - { offsetInCU: 0xD963, offset: 0x3D8B7, size: 0x8, addend: 0x0, symName: __ZZ18ImTextCharFromUtf8PjPKcS1_E4mins, symObjAddr: 0x4BBD4, symBinAddr: 0x10015BBE4, symSize: 0x0 }
  - { offsetInCU: 0xD97A, offset: 0x3D8CE, size: 0x8, addend: 0x0, symName: __ZZ18ImTextCharFromUtf8PjPKcS1_E6shiftc, symObjAddr: 0x4BBE8, symBinAddr: 0x10015BBF8, symSize: 0x0 }
  - { offsetInCU: 0xD991, offset: 0x3D8E5, size: 0x8, addend: 0x0, symName: __ZZ18ImTextCharFromUtf8PjPKcS1_E6shifte, symObjAddr: 0x4BBFC, symBinAddr: 0x10015BC0C, symSize: 0x0 }
  - { offsetInCU: 0xDA34, offset: 0x3D988, size: 0x8, addend: 0x0, symName: __ZN15ImGuiTextBuffer11EmptyStringE, symObjAddr: 0xE2258, symBinAddr: 0x10017FE40, symSize: 0x0 }
  - { offsetInCU: 0xDA59, offset: 0x3D9AD, size: 0x8, addend: 0x0, symName: __ZN5ImGui15GetNavInputNameEi, symObjAddr: 0x2C8A4, symBinAddr: 0x10006E02C, symSize: 0x8C }
  - { offsetInCU: 0xDA84, offset: 0x3D9D8, size: 0x8, addend: 0x0, symName: __ZZN5ImGui15GetNavInputNameEiE5names, symObjAddr: 0x4BE30, symBinAddr: 0x100172068, symSize: 0x0 }
  - { offsetInCU: 0xDA9E, offset: 0x3D9F2, size: 0x8, addend: 0x0, symName: __ZN5ImGui17ShowMetricsWindowEPb, symObjAddr: 0x316DC, symBinAddr: 0x100072E64, symSize: 0x23AC }
  - { offsetInCU: 0xDAC5, offset: 0x3DA19, size: 0x8, addend: 0x0, symName: __ZZN5ImGui17ShowMetricsWindowEPbE3buf, symObjAddr: 0xE2268, symBinAddr: 0x100180818, symSize: 0x0 }
  - { offsetInCU: 0xE0F9, offset: 0x3E04D, size: 0x8, addend: 0x0, symName: __ZN5ImGui10IsNamedKeyEi, symObjAddr: 0x1AA4, symBinAddr: 0x100043238, symSize: 0x48 }
  - { offsetInCU: 0xE128, offset: 0x3E07C, size: 0x8, addend: 0x0, symName: __ZN5ImGui12IsGamepadKeyEi, symObjAddr: 0x1AEC, symBinAddr: 0x100043280, symSize: 0x48 }
  - { offsetInCU: 0xE157, offset: 0x3E0AB, size: 0x8, addend: 0x0, symName: __ZN5ImGui10GetKeyDataEi, symObjAddr: 0x1B34, symBinAddr: 0x1000432C8, symSize: 0x104 }
  - { offsetInCU: 0xE1A3, offset: 0x3E0F7, size: 0x8, addend: 0x0, symName: __ZN5ImGui11IsLegacyKeyEi, symObjAddr: 0x1EAC, symBinAddr: 0x100043640, symSize: 0x48 }
  - { offsetInCU: 0xE1D2, offset: 0x3E126, size: 0x8, addend: 0x0, symName: __ZN5ImGui8MemAllocEm, symObjAddr: 0x32E0, symBinAddr: 0x100044A74, symSize: 0x68 }
  - { offsetInCU: 0xE215, offset: 0x3E169, size: 0x8, addend: 0x0, symName: __ZN5ImGui7MemFreeEPv, symObjAddr: 0x3428, symBinAddr: 0x100044BBC, symSize: 0x80 }
  - { offsetInCU: 0xE254, offset: 0x3E1A8, size: 0x8, addend: 0x0, symName: __ZN5ImGui23ColorConvertU32ToFloat4Ej, symObjAddr: 0x4AF8, symBinAddr: 0x10004628C, symSize: 0xA4 }
  - { offsetInCU: 0xE291, offset: 0x3E1E5, size: 0x8, addend: 0x0, symName: __ZN5ImGui23ColorConvertFloat4ToU32ERK6ImVec4, symObjAddr: 0x4BE8, symBinAddr: 0x10004637C, symSize: 0xC8 }
  - { offsetInCU: 0xE2CE, offset: 0x3E222, size: 0x8, addend: 0x0, symName: __ZN5ImGui20ColorConvertRGBtoHSVEfffRfS0_S0_, symObjAddr: 0x4D20, symBinAddr: 0x1000464B4, symSize: 0x150 }
  - { offsetInCU: 0xE361, offset: 0x3E2B5, size: 0x8, addend: 0x0, symName: __ZN5ImGui20ColorConvertHSVtoRGBEfffRfS0_S0_, symObjAddr: 0x4EAC, symBinAddr: 0x100046640, symSize: 0x21C }
  - { offsetInCU: 0xE421, offset: 0x3E375, size: 0x8, addend: 0x0, symName: __ZN5ImGui16SetNextItemWidthEf, symObjAddr: 0x6100, symBinAddr: 0x100047894, symSize: 0x38 }
  - { offsetInCU: 0xE45B, offset: 0x3E3AF, size: 0x8, addend: 0x0, symName: __ZN5ImGui16CalcListClippingEifPiS0_, symObjAddr: 0x6BC8, symBinAddr: 0x10004835C, symSize: 0x2AC }
  - { offsetInCU: 0xE51B, offset: 0x3E46F, size: 0x8, addend: 0x0, symName: __ZN5ImGui18WindowRectRelToAbsEP11ImGuiWindowRK6ImRect, symObjAddr: 0x6FBC, symBinAddr: 0x100048750, symSize: 0x84 }
  - { offsetInCU: 0xE567, offset: 0x3E4BB, size: 0x8, addend: 0x0, symName: __ZN5ImGui8GetStyleEv, symObjAddr: 0x8BB4, symBinAddr: 0x10004A33C, symSize: 0x84 }
  - { offsetInCU: 0xE586, offset: 0x3E4DA, size: 0x8, addend: 0x0, symName: __ZN5ImGui11GetColorU32Eif, symObjAddr: 0x8C38, symBinAddr: 0x10004A3C0, symSize: 0x6C }
  - { offsetInCU: 0xE5E1, offset: 0x3E535, size: 0x8, addend: 0x0, symName: __ZN5ImGui11GetColorU32ERK6ImVec4, symObjAddr: 0x8CA4, symBinAddr: 0x10004A42C, symSize: 0x58 }
  - { offsetInCU: 0xE62D, offset: 0x3E581, size: 0x8, addend: 0x0, symName: __ZN5ImGui17GetStyleColorVec4Ei, symObjAddr: 0x8CFC, symBinAddr: 0x10004A484, symSize: 0x34 }
  - { offsetInCU: 0xE66B, offset: 0x3E5BF, size: 0x8, addend: 0x0, symName: __ZN5ImGui11GetColorU32Ej, symObjAddr: 0x8D30, symBinAddr: 0x10004A4B8, symSize: 0x90 }
  - { offsetInCU: 0xE6B8, offset: 0x3E60C, size: 0x8, addend: 0x0, symName: __ZN5ImGui14PushStyleColorEij, symObjAddr: 0x8DC0, symBinAddr: 0x10004A548, symSize: 0x9C }
  - { offsetInCU: 0xE70F, offset: 0x3E663, size: 0x8, addend: 0x0, symName: __ZN5ImGui14PushStyleColorEiRK6ImVec4, symObjAddr: 0x8F20, symBinAddr: 0x10004A6A8, symSize: 0x88 }
  - { offsetInCU: 0xE766, offset: 0x3E6BA, size: 0x8, addend: 0x0, symName: __ZN5ImGui13PopStyleColorEi, symObjAddr: 0x8FA8, symBinAddr: 0x10004A730, symSize: 0x98 }
  - { offsetInCU: 0xE7BC, offset: 0x3E710, size: 0x8, addend: 0x0, symName: __ZN5ImGui12PushStyleVarEif, symObjAddr: 0x9120, symBinAddr: 0x10004A8A8, symSize: 0xE0 }
  - { offsetInCU: 0xE830, offset: 0x3E784, size: 0x8, addend: 0x0, symName: __ZN5ImGui12PushStyleVarEiRK6ImVec2, symObjAddr: 0x938C, symBinAddr: 0x10004AB14, symSize: 0xF0 }
  - { offsetInCU: 0xE8A4, offset: 0x3E7F8, size: 0x8, addend: 0x0, symName: __ZN5ImGui11PopStyleVarEi, symObjAddr: 0x94C0, symBinAddr: 0x10004AC48, symSize: 0x138 }
  - { offsetInCU: 0xE918, offset: 0x3E86C, size: 0x8, addend: 0x0, symName: __ZN5ImGui17GetStyleColorNameEi, symObjAddr: 0x96D8, symBinAddr: 0x10004AE60, symSize: 0x3C4 }
  - { offsetInCU: 0xE946, offset: 0x3E89A, size: 0x8, addend: 0x0, symName: __ZN5ImGui19FindRenderedTextEndEPKcS1_, symObjAddr: 0x9B70, symBinAddr: 0x10004B2F8, symSize: 0xE4 }
  - { offsetInCU: 0xE993, offset: 0x3E8E7, size: 0x8, addend: 0x0, symName: __ZN5ImGui10RenderTextE6ImVec2PKcS2_b, symObjAddr: 0x9C54, symBinAddr: 0x10004B3DC, symSize: 0x14C }
  - { offsetInCU: 0xEA17, offset: 0x3E96B, size: 0x8, addend: 0x0, symName: __ZN5ImGui15LogRenderedTextEPK6ImVec2PKcS4_, symObjAddr: 0x9DA0, symBinAddr: 0x10004B528, symSize: 0x3A0 }
  - { offsetInCU: 0xEB35, offset: 0x3EA89, size: 0x8, addend: 0x0, symName: __ZN5ImGui17RenderTextWrappedE6ImVec2PKcS2_f, symObjAddr: 0xA140, symBinAddr: 0x10004B8C8, symSize: 0x118 }
  - { offsetInCU: 0xEBAA, offset: 0x3EAFE, size: 0x8, addend: 0x0, symName: __ZN5ImGui19RenderTextClippedExEP10ImDrawListRK6ImVec2S4_PKcS6_PS3_S4_PK6ImRect, symObjAddr: 0xA258, symBinAddr: 0x10004B9E0, symSize: 0x330 }
  - { offsetInCU: 0xECAA, offset: 0x3EBFE, size: 0x8, addend: 0x0, symName: __ZN5ImGui12CalcTextSizeEPKcS1_bf, symObjAddr: 0xA588, symBinAddr: 0x10004BD10, symSize: 0x104 }
  - { offsetInCU: 0xED50, offset: 0x3ECA4, size: 0x8, addend: 0x0, symName: __ZN5ImGui17RenderTextClippedERK6ImVec2S2_PKcS4_PS1_S2_PK6ImRect, symObjAddr: 0xA6D4, symBinAddr: 0x10004BE5C, symSize: 0xD8 }
  - { offsetInCU: 0xEE10, offset: 0x3ED64, size: 0x8, addend: 0x0, symName: __ZN5ImGui18RenderTextEllipsisEP10ImDrawListRK6ImVec2S4_ffPKcS6_PS3_, symObjAddr: 0xA7AC, symBinAddr: 0x10004BF34, symSize: 0x5B0 }
  - { offsetInCU: 0xEFBE, offset: 0x3EF12, size: 0x8, addend: 0x0, symName: __ZN5ImGui11RenderFrameE6ImVec2S0_jbf, symObjAddr: 0xAD5C, symBinAddr: 0x10004C4E4, symSize: 0x194 }
  - { offsetInCU: 0xF051, offset: 0x3EFA5, size: 0x8, addend: 0x0, symName: __ZN5ImGui17RenderFrameBorderE6ImVec2S0_f, symObjAddr: 0xAEF0, symBinAddr: 0x10004C678, symSize: 0x154 }
  - { offsetInCU: 0xF0C6, offset: 0x3F01A, size: 0x8, addend: 0x0, symName: __ZN5ImGui18RenderNavHighlightERK6ImRectji, symObjAddr: 0xB044, symBinAddr: 0x10004C7CC, symSize: 0x2C8 }
  - { offsetInCU: 0xF189, offset: 0x3F0DD, size: 0x8, addend: 0x0, symName: __ZN5ImGui17RenderMouseCursorE6ImVec2fijjj, symObjAddr: 0xB494, symBinAddr: 0x10004CC1C, symSize: 0x478 }
  - { offsetInCU: 0xF2DC, offset: 0x3F230, size: 0x8, addend: 0x0, symName: __ZN5ImGui21GetForegroundDrawListEP13ImGuiViewport, symObjAddr: 0xB9AC, symBinAddr: 0x10004D134, symSize: 0x30 }
  - { offsetInCU: 0xF30A, offset: 0x3F25E, size: 0x8, addend: 0x0, symName: __ZN5ImGui15DebugHookIdInfoEjiPKvS1_, symObjAddr: 0xC3F4, symBinAddr: 0x10004DB7C, symSize: 0x3EC }
  - { offsetInCU: 0xF3C3, offset: 0x3F317, size: 0x8, addend: 0x0, symName: __ZN5ImGui18WindowRectAbsToRelEP11ImGuiWindowRK6ImRect, symObjAddr: 0xC9A8, symBinAddr: 0x10004E130, symSize: 0x84 }
  - { offsetInCU: 0xF40F, offset: 0x3F363, size: 0x8, addend: 0x0, symName: __ZN5ImGui29GcCompactTransientMiscBuffersEv, symObjAddr: 0xCA2C, symBinAddr: 0x10004E1B4, symSize: 0x48 }
  - { offsetInCU: 0xF439, offset: 0x3F38D, size: 0x8, addend: 0x0, symName: __ZN5ImGui31GcCompactTransientWindowBuffersEP11ImGuiWindow, symObjAddr: 0xCB24, symBinAddr: 0x10004E2AC, symSize: 0x8C }
  - { offsetInCU: 0xF463, offset: 0x3F3B7, size: 0x8, addend: 0x0, symName: __ZN5ImGui29GcAwakeTransientWindowBuffersEP11ImGuiWindow, symObjAddr: 0xCCB8, symBinAddr: 0x10004E440, symSize: 0x64 }
  - { offsetInCU: 0xF48D, offset: 0x3F3E1, size: 0x8, addend: 0x0, symName: __ZN5ImGui11SetActiveIDEjP11ImGuiWindow, symObjAddr: 0xCE7C, symBinAddr: 0x10004E604, symSize: 0x364 }
  - { offsetInCU: 0xF4D5, offset: 0x3F429, size: 0x8, addend: 0x0, symName: __ZN5ImGui8DebugLogEPKcz, symObjAddr: 0xD1E0, symBinAddr: 0x10004E968, symSize: 0x34 }
  - { offsetInCU: 0xF50F, offset: 0x3F463, size: 0x8, addend: 0x0, symName: __ZN5ImGui13ClearActiveIDEv, symObjAddr: 0xD234, symBinAddr: 0x10004E9BC, symSize: 0x1C }
  - { offsetInCU: 0xF52A, offset: 0x3F47E, size: 0x8, addend: 0x0, symName: __ZN5ImGui12SetHoveredIDEj, symObjAddr: 0xD250, symBinAddr: 0x10004E9D8, symSize: 0x90 }
  - { offsetInCU: 0xF564, offset: 0x3F4B8, size: 0x8, addend: 0x0, symName: __ZN5ImGui12GetHoveredIDEv, symObjAddr: 0xD2E0, symBinAddr: 0x10004EA68, symSize: 0x54 }
  - { offsetInCU: 0xF593, offset: 0x3F4E7, size: 0x8, addend: 0x0, symName: __ZN5ImGui11KeepAliveIDEj, symObjAddr: 0xD334, symBinAddr: 0x10004EABC, symSize: 0x7C }
  - { offsetInCU: 0xF5CD, offset: 0x3F521, size: 0x8, addend: 0x0, symName: __ZN5ImGui14MarkItemEditedEj, symObjAddr: 0xD3B0, symBinAddr: 0x10004EB38, symSize: 0xE8 }
  - { offsetInCU: 0xF606, offset: 0x3F55A, size: 0x8, addend: 0x0, symName: __ZN5ImGui13IsItemHoveredEi, symObjAddr: 0xD498, symBinAddr: 0x10004EC20, symSize: 0x30C }
  - { offsetInCU: 0xF66F, offset: 0x3F5C3, size: 0x8, addend: 0x0, symName: __ZN5ImGui13IsItemFocusedEv, symObjAddr: 0xD7A4, symBinAddr: 0x10004EF2C, symSize: 0x88 }
  - { offsetInCU: 0xF69E, offset: 0x3F5F2, size: 0x8, addend: 0x0, symName: __ZN5ImGui13ItemHoverableERK6ImRectj, symObjAddr: 0xD948, symBinAddr: 0x10004F0D0, symSize: 0x340 }
  - { offsetInCU: 0xF708, offset: 0x3F65C, size: 0x8, addend: 0x0, symName: __ZN5ImGui19IsMouseHoveringRectERK6ImVec2S2_b, symObjAddr: 0xDC88, symBinAddr: 0x10004F410, symSize: 0x110 }
  - { offsetInCU: 0xF781, offset: 0x3F6D5, size: 0x8, addend: 0x0, symName: __ZN5ImGui21GetForegroundDrawListEv, symObjAddr: 0xDD98, symBinAddr: 0x10004F520, symSize: 0x40 }
  - { offsetInCU: 0xF7AF, offset: 0x3F703, size: 0x8, addend: 0x0, symName: __ZN5ImGui11IsClippedExERK6ImRectj, symObjAddr: 0xDDD8, symBinAddr: 0x10004F560, symSize: 0xF0 }
  - { offsetInCU: 0xF80A, offset: 0x3F75E, size: 0x8, addend: 0x0, symName: __ZN5ImGui15SetLastItemDataEjiiRK6ImRect, symObjAddr: 0xDF80, symBinAddr: 0x10004F708, symSize: 0x60 }
  - { offsetInCU: 0xF871, offset: 0x3F7C5, size: 0x8, addend: 0x0, symName: __ZN5ImGui19CalcWrapWidthForPosERK6ImVec2f, symObjAddr: 0xDFE0, symBinAddr: 0x10004F768, symSize: 0xDC }
  - { offsetInCU: 0xF8CC, offset: 0x3F820, size: 0x8, addend: 0x0, symName: __ZN5ImGui16GetClipboardTextEv, symObjAddr: 0xE0BC, symBinAddr: 0x10004F844, symSize: 0x6C }
  - { offsetInCU: 0xF8FA, offset: 0x3F84E, size: 0x8, addend: 0x0, symName: __ZN5ImGui16SetClipboardTextEPKc, symObjAddr: 0xE128, symBinAddr: 0x10004F8B0, symSize: 0x5C }
  - { offsetInCU: 0xF933, offset: 0x3F887, size: 0x8, addend: 0x0, symName: __ZN5ImGui10GetVersionEv, symObjAddr: 0xE184, symBinAddr: 0x10004F90C, symSize: 0xC }
  - { offsetInCU: 0xF952, offset: 0x3F8A6, size: 0x8, addend: 0x0, symName: __ZN5ImGui17GetCurrentContextEv, symObjAddr: 0xE190, symBinAddr: 0x10004F918, symSize: 0xC }
  - { offsetInCU: 0xF971, offset: 0x3F8C5, size: 0x8, addend: 0x0, symName: __ZN5ImGui17SetCurrentContextEP12ImGuiContext, symObjAddr: 0xE19C, symBinAddr: 0x10004F924, symSize: 0x1C }
  - { offsetInCU: 0xF99C, offset: 0x3F8F0, size: 0x8, addend: 0x0, symName: __ZN5ImGui21SetAllocatorFunctionsEPFPvmS0_EPFvS0_S0_ES0_, symObjAddr: 0xE1B8, symBinAddr: 0x10004F940, symSize: 0x3C }
  - { offsetInCU: 0xF9E5, offset: 0x3F939, size: 0x8, addend: 0x0, symName: __ZN5ImGui21GetAllocatorFunctionsEPPFPvmS0_EPPFvS0_S0_EPS0_, symObjAddr: 0xE1F4, symBinAddr: 0x10004F97C, symSize: 0x48 }
  - { offsetInCU: 0xFA2E, offset: 0x3F982, size: 0x8, addend: 0x0, symName: __ZN5ImGui13CreateContextEP11ImFontAtlas, symObjAddr: 0xE23C, symBinAddr: 0x10004F9C4, symSize: 0xB0 }
  - { offsetInCU: 0xFA7A, offset: 0x3F9CE, size: 0x8, addend: 0x0, symName: __ZN5ImGui10InitializeEv, symObjAddr: 0xE34C, symBinAddr: 0x10004FAD4, symSize: 0x194 }
  - { offsetInCU: 0xFAD2, offset: 0x3FA26, size: 0x8, addend: 0x0, symName: __ZN5ImGui14DestroyContextEP12ImGuiContext, symObjAddr: 0xE4E0, symBinAddr: 0x10004FC68, symSize: 0x90 }
  - { offsetInCU: 0xFB0B, offset: 0x3FA5F, size: 0x8, addend: 0x0, symName: __ZN5ImGui8ShutdownEv, symObjAddr: 0xE570, symBinAddr: 0x10004FCF8, symSize: 0x2FC }
  - { offsetInCU: 0xFB35, offset: 0x3FA89, size: 0x8, addend: 0x0, symName: __ZN5ImGui14AddContextHookEP12ImGuiContextPK16ImGuiContextHook, symObjAddr: 0xE8B0, symBinAddr: 0x100050038, symSize: 0x10C }
  - { offsetInCU: 0xFB81, offset: 0x3FAD5, size: 0x8, addend: 0x0, symName: __ZN5ImGui17RemoveContextHookEP12ImGuiContextj, symObjAddr: 0xEAC4, symBinAddr: 0x10005024C, symSize: 0xE8 }
  - { offsetInCU: 0xFBE6, offset: 0x3FB3A, size: 0x8, addend: 0x0, symName: __ZN5ImGui16CallContextHooksEP12ImGuiContext20ImGuiContextHookType, symObjAddr: 0xEC4C, symBinAddr: 0x1000503D4, symSize: 0xE0 }
  - { offsetInCU: 0xFC4B, offset: 0x3FB9F, size: 0x8, addend: 0x0, symName: __ZN5ImGui5GetIOEv, symObjAddr: 0xED2C, symBinAddr: 0x1000504B4, symSize: 0x80 }
  - { offsetInCU: 0xFC6A, offset: 0x3FBBE, size: 0x8, addend: 0x0, symName: __ZN5ImGui11GetDrawDataEv, symObjAddr: 0xEDAC, symBinAddr: 0x100050534, symSize: 0x70 }
  - { offsetInCU: 0xFCA7, offset: 0x3FBFB, size: 0x8, addend: 0x0, symName: __ZN5ImGui7GetTimeEv, symObjAddr: 0xEE1C, symBinAddr: 0x1000505A4, symSize: 0x10 }
  - { offsetInCU: 0xFCC6, offset: 0x3FC1A, size: 0x8, addend: 0x0, symName: __ZN5ImGui13GetFrameCountEv, symObjAddr: 0xEE2C, symBinAddr: 0x1000505B4, symSize: 0x10 }
  - { offsetInCU: 0xFCE5, offset: 0x3FC39, size: 0x8, addend: 0x0, symName: __ZN5ImGui21GetBackgroundDrawListEP13ImGuiViewport, symObjAddr: 0xEE3C, symBinAddr: 0x1000505C4, symSize: 0x30 }
  - { offsetInCU: 0xFD13, offset: 0x3FC67, size: 0x8, addend: 0x0, symName: __ZN5ImGui21GetBackgroundDrawListEv, symObjAddr: 0xF030, symBinAddr: 0x1000507B8, symSize: 0x40 }
  - { offsetInCU: 0xFD41, offset: 0x3FC95, size: 0x8, addend: 0x0, symName: __ZN5ImGui21GetDrawListSharedDataEv, symObjAddr: 0xF070, symBinAddr: 0x1000507F8, symSize: 0x14 }
  - { offsetInCU: 0xFD60, offset: 0x3FCB4, size: 0x8, addend: 0x0, symName: __ZN5ImGui22StartMouseMovingWindowEP11ImGuiWindow, symObjAddr: 0xF084, symBinAddr: 0x10005080C, symSize: 0x100 }
  - { offsetInCU: 0xFDA8, offset: 0x3FCFC, size: 0x8, addend: 0x0, symName: __ZN5ImGui11FocusWindowEP11ImGuiWindow, symObjAddr: 0xF184, symBinAddr: 0x10005090C, symSize: 0x2A8 }
  - { offsetInCU: 0xFDFF, offset: 0x3FD53, size: 0x8, addend: 0x0, symName: __ZN5ImGui26SetActiveIdUsingNavAndKeysEv, symObjAddr: 0xF42C, symBinAddr: 0x100050BB4, symSize: 0x88 }
  - { offsetInCU: 0xFE29, offset: 0x3FD7D, size: 0x8, addend: 0x0, symName: __ZN5ImGui31UpdateMouseMovingWindowNewFrameEv, symObjAddr: 0xF4B4, symBinAddr: 0x100050C3C, symSize: 0x1A4 }
  - { offsetInCU: 0xFE8D, offset: 0x3FDE1, size: 0x8, addend: 0x0, symName: __ZN5ImGui15IsMousePosValidEPK6ImVec2, symObjAddr: 0xF658, symBinAddr: 0x100050DE0, symSize: 0xEC }
  - { offsetInCU: 0xFED9, offset: 0x3FE2D, size: 0x8, addend: 0x0, symName: __ZN5ImGui12SetWindowPosEP11ImGuiWindowRK6ImVec2i, symObjAddr: 0xF744, symBinAddr: 0x100050ECC, symSize: 0x1C8 }
  - { offsetInCU: 0xFF3F, offset: 0x3FE93, size: 0x8, addend: 0x0, symName: __ZN5ImGui31UpdateMouseMovingWindowEndFrameEv, symObjAddr: 0xF90C, symBinAddr: 0x100051094, symSize: 0x328 }
  - { offsetInCU: 0xFFC1, offset: 0x3FF15, size: 0x8, addend: 0x0, symName: __ZN5ImGui11IsPopupOpenEji, symObjAddr: 0xFC34, symBinAddr: 0x1000513BC, symSize: 0x204 }
  - { offsetInCU: 0x1002A, offset: 0x3FF7E, size: 0x8, addend: 0x0, symName: __ZN5ImGui20GetTopMostPopupModalEv, symObjAddr: 0xFF70, symBinAddr: 0x1000516F8, symSize: 0xC0 }
  - { offsetInCU: 0x1008B, offset: 0x3FFDF, size: 0x8, addend: 0x0, symName: __ZN5ImGui13IsWindowAboveEP11ImGuiWindowS1_, symObjAddr: 0x10030, symBinAddr: 0x1000517B8, symSize: 0x14C }
  - { offsetInCU: 0x10120, offset: 0x40074, size: 0x8, addend: 0x0, symName: __ZN5ImGui21ClosePopupsOverWindowEP11ImGuiWindowb, symObjAddr: 0x1017C, symBinAddr: 0x100051904, symSize: 0x28C }
  - { offsetInCU: 0x101D5, offset: 0x40129, size: 0x8, addend: 0x0, symName: __ZN5ImGui34UpdateHoveredWindowAndCaptureFlagsEv, symObjAddr: 0x10408, symBinAddr: 0x100051B90, symSize: 0x640 }
  - { offsetInCU: 0x102B3, offset: 0x40207, size: 0x8, addend: 0x0, symName: __ZN5ImGui26IsWindowWithinBeginStackOfEP11ImGuiWindowS1_, symObjAddr: 0x10E54, symBinAddr: 0x1000525DC, symSize: 0xB4 }
  - { offsetInCU: 0x102F1, offset: 0x40245, size: 0x8, addend: 0x0, symName: __ZN5ImGui17GetMergedModFlagsEv, symObjAddr: 0x10F08, symBinAddr: 0x100052690, symSize: 0xA0 }
  - { offsetInCU: 0x1032F, offset: 0x40283, size: 0x8, addend: 0x0, symName: __ZN5ImGui8NewFrameEv, symObjAddr: 0x10FA8, symBinAddr: 0x100052730, symSize: 0xED4 }
  - { offsetInCU: 0x10466, offset: 0x403BA, size: 0x8, addend: 0x0, symName: __ZN5ImGuiL30ErrorCheckNewFrameSanityChecksEv, symObjAddr: 0x11F84, symBinAddr: 0x10005370C, symSize: 0x654 }
  - { offsetInCU: 0x104AE, offset: 0x40402, size: 0x8, addend: 0x0, symName: __ZN5ImGuiL14UpdateSettingsEv, symObjAddr: 0x125D8, symBinAddr: 0x100053D60, symSize: 0x15C }
  - { offsetInCU: 0x104D9, offset: 0x4042D, size: 0x8, addend: 0x0, symName: __ZN5ImGuiL23UpdateViewportsNewFrameEv, symObjAddr: 0x1279C, symBinAddr: 0x100053F24, symSize: 0x160 }
  - { offsetInCU: 0x1054D, offset: 0x404A1, size: 0x8, addend: 0x0, symName: __ZN5ImGui14SetCurrentFontEP6ImFont, symObjAddr: 0x128FC, symBinAddr: 0x100054084, symSize: 0x198 }
  - { offsetInCU: 0x10595, offset: 0x404E9, size: 0x8, addend: 0x0, symName: __ZN5ImGui14GetDefaultFontEv, symObjAddr: 0x12A94, symBinAddr: 0x10005421C, symSize: 0x70 }
  - { offsetInCU: 0x105C3, offset: 0x40517, size: 0x8, addend: 0x0, symName: __ZN5ImGui17UpdateInputEventsEb, symObjAddr: 0x12CA8, symBinAddr: 0x100054430, symSize: 0x9AC }
  - { offsetInCU: 0x10757, offset: 0x406AB, size: 0x8, addend: 0x0, symName: __ZN5ImGuiL20UpdateKeyboardInputsEv, symObjAddr: 0x13654, symBinAddr: 0x100054DDC, symSize: 0x5E8 }
  - { offsetInCU: 0x10879, offset: 0x407CD, size: 0x8, addend: 0x0, symName: __ZN5ImGuiL9NavUpdateEv, symObjAddr: 0x13C3C, symBinAddr: 0x1000553C4, symSize: 0x1214 }
  - { offsetInCU: 0x109AE, offset: 0x40902, size: 0x8, addend: 0x0, symName: __ZN5ImGuiL17UpdateMouseInputsEv, symObjAddr: 0x14E50, symBinAddr: 0x1000565D8, symSize: 0x61C }
  - { offsetInCU: 0x10A5C, offset: 0x409B0, size: 0x8, addend: 0x0, symName: __ZN5ImGuiL16UpdateMouseWheelEv, symObjAddr: 0x1546C, symBinAddr: 0x100056BF4, symSize: 0x708 }
  - { offsetInCU: 0x10B68, offset: 0x40ABC, size: 0x8, addend: 0x0, symName: __ZN5ImGui26FocusTopMostWindowUnderOneEP11ImGuiWindowS1_, symObjAddr: 0x15D88, symBinAddr: 0x100057510, symSize: 0x1A4 }
  - { offsetInCU: 0x10C33, offset: 0x40B87, size: 0x8, addend: 0x0, symName: __ZN5ImGuiL25UpdateDebugToolItemPickerEv, symObjAddr: 0x16150, symBinAddr: 0x1000578D8, symSize: 0x14C }
  - { offsetInCU: 0x10C6D, offset: 0x40BC1, size: 0x8, addend: 0x0, symName: __ZN5ImGuiL27UpdateDebugToolStackQueriesEv, symObjAddr: 0x1629C, symBinAddr: 0x100057A24, symSize: 0x234 }
  - { offsetInCU: 0x10CC5, offset: 0x40C19, size: 0x8, addend: 0x0, symName: __ZN5ImGui17SetNextWindowSizeERK6ImVec2i, symObjAddr: 0x164D0, symBinAddr: 0x100057C58, symSize: 0xE0 }
  - { offsetInCU: 0x10D0D, offset: 0x40C61, size: 0x8, addend: 0x0, symName: __ZN5ImGui5BeginEPKcPbi, symObjAddr: 0x165B0, symBinAddr: 0x100057D38, symSize: 0x3570 }
  - { offsetInCU: 0x111D0, offset: 0x41124, size: 0x8, addend: 0x0, symName: __ZN5ImGui18AddSettingsHandlerEPK20ImGuiSettingsHandler, symObjAddr: 0x1A17C, symBinAddr: 0x10005B904, symSize: 0x7C }
  - { offsetInCU: 0x11209, offset: 0x4115D, size: 0x8, addend: 0x0, symName: __ZN5ImGui21SaveIniSettingsToDiskEPKc, symObjAddr: 0x1A3D0, symBinAddr: 0x10005BB58, symSize: 0xAC }
  - { offsetInCU: 0x1126F, offset: 0x411C3, size: 0x8, addend: 0x0, symName: __ZN5ImGui12PushClipRectERK6ImVec2S2_b, symObjAddr: 0x1AE70, symBinAddr: 0x10005C5F8, symSize: 0x78 }
  - { offsetInCU: 0x112C6, offset: 0x4121A, size: 0x8, addend: 0x0, symName: __ZN5ImGui16GetCurrentWindowEv, symObjAddr: 0x1AEE8, symBinAddr: 0x10005C670, symSize: 0x30 }
  - { offsetInCU: 0x112F5, offset: 0x41249, size: 0x8, addend: 0x0, symName: __ZN5ImGui11PopClipRectEv, symObjAddr: 0x1AFBC, symBinAddr: 0x10005C744, symSize: 0x54 }
  - { offsetInCU: 0x1131F, offset: 0x41273, size: 0x8, addend: 0x0, symName: __ZN5ImGui43FindBottomMostVisibleWindowWithinBeginStackEP11ImGuiWindow, symObjAddr: 0x1B010, symBinAddr: 0x10005C798, symSize: 0x104 }
  - { offsetInCU: 0x113A5, offset: 0x412F9, size: 0x8, addend: 0x0, symName: __ZN5ImGui22FindWindowDisplayIndexEP11ImGuiWindow, symObjAddr: 0x1B114, symBinAddr: 0x10005C89C, symSize: 0x5C }
  - { offsetInCU: 0x113E2, offset: 0x41336, size: 0x8, addend: 0x0, symName: __ZN5ImGui8EndFrameEv, symObjAddr: 0x1B1E4, symBinAddr: 0x10005C96C, symSize: 0x4D0 }
  - { offsetInCU: 0x11472, offset: 0x413C6, size: 0x8, addend: 0x0, symName: __ZN5ImGuiL30ErrorCheckEndFrameSanityChecksEv, symObjAddr: 0x1B6B4, symBinAddr: 0x10005CE3C, symSize: 0x218 }
  - { offsetInCU: 0x114AC, offset: 0x41400, size: 0x8, addend: 0x0, symName: __ZN5ImGui15GetMainViewportEv, symObjAddr: 0x1B8CC, symBinAddr: 0x10005D054, symSize: 0x3C }
  - { offsetInCU: 0x114DA, offset: 0x4142E, size: 0x8, addend: 0x0, symName: __ZN5ImGui3EndEv, symObjAddr: 0x1B908, symBinAddr: 0x10005D090, symSize: 0x2B8 }
  - { offsetInCU: 0x11513, offset: 0x41467, size: 0x8, addend: 0x0, symName: __ZN5ImGuiL11NavEndFrameEv, symObjAddr: 0x1BBC0, symBinAddr: 0x10005D348, symSize: 0xB0 }
  - { offsetInCU: 0x1154D, offset: 0x414A1, size: 0x8, addend: 0x0, symName: __ZN5ImGui11IsMouseDownEi, symObjAddr: 0x1BC70, symBinAddr: 0x10005D3F8, symSize: 0xA0 }
  - { offsetInCU: 0x1158A, offset: 0x414DE, size: 0x8, addend: 0x0, symName: __ZN5ImGui13ClearDragDropEv, symObjAddr: 0x1BD10, symBinAddr: 0x10005D498, symSize: 0xAC }
  - { offsetInCU: 0x115B4, offset: 0x41508, size: 0x8, addend: 0x0, symName: __ZN5ImGui10SetTooltipEPKcz, symObjAddr: 0x1BDBC, symBinAddr: 0x10005D544, symSize: 0x34 }
  - { offsetInCU: 0x115EE, offset: 0x41542, size: 0x8, addend: 0x0, symName: __ZN5ImGui6RenderEv, symObjAddr: 0x1C054, symBinAddr: 0x10005D7DC, symSize: 0x4F4 }
  - { offsetInCU: 0x11711, offset: 0x41665, size: 0x8, addend: 0x0, symName: __ZN5ImGuiL23RenderDimmedBackgroundsEv, symObjAddr: 0x1C814, symBinAddr: 0x10005DF9C, symSize: 0x2E0 }
  - { offsetInCU: 0x117D1, offset: 0x41725, size: 0x8, addend: 0x0, symName: __ZN5ImGui12IsItemActiveEv, symObjAddr: 0x1CC80, symBinAddr: 0x10005E408, symSize: 0x74 }
  - { offsetInCU: 0x11800, offset: 0x41754, size: 0x8, addend: 0x0, symName: __ZN5ImGui15IsItemActivatedEv, symObjAddr: 0x1CCF4, symBinAddr: 0x10005E47C, symSize: 0xA4 }
  - { offsetInCU: 0x1182F, offset: 0x41783, size: 0x8, addend: 0x0, symName: __ZN5ImGui17IsItemDeactivatedEv, symObjAddr: 0x1CD98, symBinAddr: 0x10005E520, symSize: 0xD4 }
  - { offsetInCU: 0x1185E, offset: 0x417B2, size: 0x8, addend: 0x0, symName: __ZN5ImGui26IsItemDeactivatedAfterEditEv, symObjAddr: 0x1CE6C, symBinAddr: 0x10005E5F4, symSize: 0xB0 }
  - { offsetInCU: 0x1188C, offset: 0x417E0, size: 0x8, addend: 0x0, symName: __ZN5ImGui13IsItemClickedEi, symObjAddr: 0x1CF1C, symBinAddr: 0x10005E6A4, symSize: 0x54 }
  - { offsetInCU: 0x118BA, offset: 0x4180E, size: 0x8, addend: 0x0, symName: __ZN5ImGui14IsMouseClickedEib, symObjAddr: 0x1CF70, symBinAddr: 0x10005E6F8, symSize: 0x158 }
  - { offsetInCU: 0x11915, offset: 0x41869, size: 0x8, addend: 0x0, symName: __ZN5ImGui17IsItemToggledOpenEv, symObjAddr: 0x1D0C8, symBinAddr: 0x10005E850, symSize: 0x3C }
  - { offsetInCU: 0x11944, offset: 0x41898, size: 0x8, addend: 0x0, symName: __ZN5ImGui22IsItemToggledSelectionEv, symObjAddr: 0x1D104, symBinAddr: 0x10005E88C, symSize: 0x3C }
  - { offsetInCU: 0x11973, offset: 0x418C7, size: 0x8, addend: 0x0, symName: __ZN5ImGui16IsAnyItemHoveredEv, symObjAddr: 0x1D140, symBinAddr: 0x10005E8C8, symSize: 0x58 }
  - { offsetInCU: 0x119A2, offset: 0x418F6, size: 0x8, addend: 0x0, symName: __ZN5ImGui15IsAnyItemActiveEv, symObjAddr: 0x1D198, symBinAddr: 0x10005E920, symSize: 0x2C }
  - { offsetInCU: 0x119D1, offset: 0x41925, size: 0x8, addend: 0x0, symName: __ZN5ImGui16IsAnyItemFocusedEv, symObjAddr: 0x1D1C4, symBinAddr: 0x10005E94C, symSize: 0x60 }
  - { offsetInCU: 0x11A00, offset: 0x41954, size: 0x8, addend: 0x0, symName: __ZN5ImGui13IsItemVisibleEv, symObjAddr: 0x1D224, symBinAddr: 0x10005E9AC, symSize: 0x44 }
  - { offsetInCU: 0x11A2E, offset: 0x41982, size: 0x8, addend: 0x0, symName: __ZN5ImGui12IsItemEditedEv, symObjAddr: 0x1D268, symBinAddr: 0x10005E9F0, symSize: 0x2C }
  - { offsetInCU: 0x11A5D, offset: 0x419B1, size: 0x8, addend: 0x0, symName: __ZN5ImGui19SetItemAllowOverlapEv, symObjAddr: 0x1D294, symBinAddr: 0x10005EA1C, symSize: 0x8C }
  - { offsetInCU: 0x11A97, offset: 0x419EB, size: 0x8, addend: 0x0, symName: __ZN5ImGui22SetItemUsingMouseWheelEv, symObjAddr: 0x1D320, symBinAddr: 0x10005EAA8, symSize: 0x8C }
  - { offsetInCU: 0x11AD1, offset: 0x41A25, size: 0x8, addend: 0x0, symName: __ZN5ImGui20NavMoveRequestCancelEv, symObjAddr: 0x1D3D4, symBinAddr: 0x10005EB5C, symSize: 0x48 }
  - { offsetInCU: 0x11AFB, offset: 0x41A4F, size: 0x8, addend: 0x0, symName: __ZN5ImGui14GetItemRectMinEv, symObjAddr: 0x1D41C, symBinAddr: 0x10005EBA4, symSize: 0x30 }
  - { offsetInCU: 0x11B2A, offset: 0x41A7E, size: 0x8, addend: 0x0, symName: __ZN5ImGui14GetItemRectMaxEv, symObjAddr: 0x1D44C, symBinAddr: 0x10005EBD4, symSize: 0x30 }
  - { offsetInCU: 0x11B59, offset: 0x41AAD, size: 0x8, addend: 0x0, symName: __ZN5ImGui15GetItemRectSizeEv, symObjAddr: 0x1D47C, symBinAddr: 0x10005EC04, symSize: 0x44 }
  - { offsetInCU: 0x11B87, offset: 0x41ADB, size: 0x8, addend: 0x0, symName: __ZN5ImGui12BeginChildExEPKcjRK6ImVec2bi, symObjAddr: 0x1D508, symBinAddr: 0x10005EC90, symSize: 0x300 }
  - { offsetInCU: 0x11C79, offset: 0x41BCD, size: 0x8, addend: 0x0, symName: __ZN5ImGui21GetContentRegionAvailEv, symObjAddr: 0x1D808, symBinAddr: 0x10005EF90, symSize: 0x54 }
  - { offsetInCU: 0x11CA7, offset: 0x41BFB, size: 0x8, addend: 0x0, symName: __ZN5ImGui13NavInitWindowEP11ImGuiWindowb, symObjAddr: 0x1D85C, symBinAddr: 0x10005EFE4, symSize: 0x234 }
  - { offsetInCU: 0x11CFE, offset: 0x41C52, size: 0x8, addend: 0x0, symName: __ZN5ImGui10BeginChildEPKcRK6ImVec2bi, symObjAddr: 0x1DA90, symBinAddr: 0x10005F218, symSize: 0x70 }
  - { offsetInCU: 0x11D68, offset: 0x41CBC, size: 0x8, addend: 0x0, symName: __ZN5ImGui10BeginChildEjRK6ImVec2bi, symObjAddr: 0x1DB00, symBinAddr: 0x10005F288, symSize: 0x88 }
  - { offsetInCU: 0x11DC3, offset: 0x41D17, size: 0x8, addend: 0x0, symName: __ZN5ImGui8EndChildEv, symObjAddr: 0x1DB88, symBinAddr: 0x10005F310, symSize: 0x358 }
  - { offsetInCU: 0x11E37, offset: 0x41D8B, size: 0x8, addend: 0x0, symName: __ZN5ImGui8ItemSizeERK6ImVec2f, symObjAddr: 0x1DF1C, symBinAddr: 0x10005F6A4, symSize: 0x238 }
  - { offsetInCU: 0x11EBB, offset: 0x41E0F, size: 0x8, addend: 0x0, symName: __ZN5ImGui7ItemAddERK6ImRectjPS1_i, symObjAddr: 0x1E154, symBinAddr: 0x10005F8DC, symSize: 0x2A0 }
  - { offsetInCU: 0x11F43, offset: 0x41E97, size: 0x8, addend: 0x0, symName: __ZN5ImGui15BeginChildFrameEjRK6ImVec2i, symObjAddr: 0x1E3F4, symBinAddr: 0x10005FB7C, symSize: 0xD4 }
  - { offsetInCU: 0x11FBC, offset: 0x41F10, size: 0x8, addend: 0x0, symName: __ZN5ImGui13EndChildFrameEv, symObjAddr: 0x1E4C8, symBinAddr: 0x10005FC50, symSize: 0x14 }
  - { offsetInCU: 0x11FD7, offset: 0x41F2B, size: 0x8, addend: 0x0, symName: __ZN5ImGui14FindWindowByIDEj, symObjAddr: 0x1E4DC, symBinAddr: 0x10005FC64, symSize: 0x3C }
  - { offsetInCU: 0x12014, offset: 0x41F68, size: 0x8, addend: 0x0, symName: __ZN5ImGui16FindWindowByNameEPKc, symObjAddr: 0x1E518, symBinAddr: 0x10005FCA0, symSize: 0x38 }
  - { offsetInCU: 0x12051, offset: 0x41FA5, size: 0x8, addend: 0x0, symName: __ZN5ImGui25CalcWindowNextAutoFitSizeEP11ImGuiWindow, symObjAddr: 0x1E550, symBinAddr: 0x10005FCD8, symSize: 0x74 }
  - { offsetInCU: 0x120BB, offset: 0x4200F, size: 0x8, addend: 0x0, symName: __ZN5ImGui23GetWindowResizeCornerIDEP11ImGuiWindowi, symObjAddr: 0x1EE18, symBinAddr: 0x1000605A0, symSize: 0xBC }
  - { offsetInCU: 0x12107, offset: 0x4205B, size: 0x8, addend: 0x0, symName: __ZN5ImGui23GetWindowResizeBorderIDEP11ImGuiWindowi, symObjAddr: 0x1EED4, symBinAddr: 0x10006065C, symSize: 0xD4 }
  - { offsetInCU: 0x12162, offset: 0x420B6, size: 0x8, addend: 0x0, symName: __ZN5ImGui30UpdateWindowParentAndRootLinksEP11ImGuiWindowiS1_, symObjAddr: 0x1EFA8, symBinAddr: 0x100060730, symSize: 0x1AC }
  - { offsetInCU: 0x121AA, offset: 0x420FE, size: 0x8, addend: 0x0, symName: __ZN5ImGui13SetWindowSizeEP11ImGuiWindowRK6ImVec2i, symObjAddr: 0x1FAF0, symBinAddr: 0x100061278, symSize: 0x204 }
  - { offsetInCU: 0x12201, offset: 0x42155, size: 0x8, addend: 0x0, symName: __ZN5ImGui18SetWindowCollapsedEP11ImGuiWindowbi, symObjAddr: 0x1FCF4, symBinAddr: 0x10006147C, symSize: 0x98 }
  - { offsetInCU: 0x1224A, offset: 0x4219E, size: 0x8, addend: 0x0, symName: __ZN5ImGui17SetWindowViewportEP11ImGuiWindowP14ImGuiViewportP, symObjAddr: 0x1FD8C, symBinAddr: 0x100061514, symSize: 0x20 }
  - { offsetInCU: 0x12284, offset: 0x421D8, size: 0x8, addend: 0x0, symName: __ZN5ImGui20MarkIniSettingsDirtyEP11ImGuiWindow, symObjAddr: 0x1FE74, symBinAddr: 0x1000615FC, symSize: 0x6C }
  - { offsetInCU: 0x122BE, offset: 0x42212, size: 0x8, addend: 0x0, symName: __ZN5ImGui25FindBestWindowPosForPopupEP11ImGuiWindow, symObjAddr: 0x20130, symBinAddr: 0x1000618B8, symSize: 0x380 }
  - { offsetInCU: 0x12384, offset: 0x422D8, size: 0x8, addend: 0x0, symName: __ZN5ImGuiL17FindBlockingModalEP11ImGuiWindow, symObjAddr: 0x2060C, symBinAddr: 0x100061D94, symSize: 0x184 }
  - { offsetInCU: 0x12419, offset: 0x4236D, size: 0x8, addend: 0x0, symName: __ZN5ImGui26BringWindowToDisplayBehindEP11ImGuiWindowS1_, symObjAddr: 0x20790, symBinAddr: 0x100061F18, symSize: 0x1CC }
  - { offsetInCU: 0x124B9, offset: 0x4240D, size: 0x8, addend: 0x0, symName: __ZN5ImGuiL24UpdateWindowManualResizeEP11ImGuiWindowRK6ImVec2PiiPjRK6ImRect, symObjAddr: 0x2095C, symBinAddr: 0x1000620E4, symSize: 0xDB8 }
  - { offsetInCU: 0x12794, offset: 0x426E8, size: 0x8, addend: 0x0, symName: __ZN5ImGuiL23RenderWindowDecorationsEP11ImGuiWindowRK6ImRectbiPKjf, symObjAddr: 0x21B80, symBinAddr: 0x100063308, symSize: 0x7A8 }
  - { offsetInCU: 0x1294D, offset: 0x428A1, size: 0x8, addend: 0x0, symName: __ZN5ImGuiL28RenderWindowTitleBarContentsEP11ImGuiWindowRK6ImRectPKcPb, symObjAddr: 0x22390, symBinAddr: 0x100063B18, symSize: 0x62C }
  - { offsetInCU: 0x12ADF, offset: 0x42A33, size: 0x8, addend: 0x0, symName: __ZN5ImGui9LogFinishEv, symObjAddr: 0x229D4, symBinAddr: 0x10006415C, symSize: 0x13C }
  - { offsetInCU: 0x12B09, offset: 0x42A5D, size: 0x8, addend: 0x0, symName: __ZN5ImGui23BringWindowToFocusFrontEP11ImGuiWindow, symObjAddr: 0x22FD8, symBinAddr: 0x100064760, symSize: 0x228 }
  - { offsetInCU: 0x12B7D, offset: 0x42AD1, size: 0x8, addend: 0x0, symName: __ZN5ImGui25BringWindowToDisplayFrontEP11ImGuiWindow, symObjAddr: 0x23270, symBinAddr: 0x1000649F8, symSize: 0x170 }
  - { offsetInCU: 0x12BE2, offset: 0x42B36, size: 0x8, addend: 0x0, symName: __ZN5ImGui24BringWindowToDisplayBackEP11ImGuiWindow, symObjAddr: 0x233E0, symBinAddr: 0x100064B68, symSize: 0x12C }
  - { offsetInCU: 0x12C38, offset: 0x42B8C, size: 0x8, addend: 0x0, symName: __ZN5ImGui12SetNavWindowEP11ImGuiWindow, symObjAddr: 0x23654, symBinAddr: 0x100064DDC, symSize: 0xFC }
  - { offsetInCU: 0x12C71, offset: 0x42BC5, size: 0x8, addend: 0x0, symName: __ZN5ImGuiL20FindWindowFocusIndexEP11ImGuiWindow, symObjAddr: 0x23750, symBinAddr: 0x100064ED8, symSize: 0xC8 }
  - { offsetInCU: 0x12CBE, offset: 0x42C12, size: 0x8, addend: 0x0, symName: __ZN5ImGuiL28NavRestoreLastChildNavWindowEP11ImGuiWindow, symObjAddr: 0x23818, symBinAddr: 0x100064FA0, symSize: 0x5C }
  - { offsetInCU: 0x12CED, offset: 0x42C41, size: 0x8, addend: 0x0, symName: __ZN5ImGui8PushFontEP6ImFont, symObjAddr: 0x238E0, symBinAddr: 0x100065068, symSize: 0x88 }
  - { offsetInCU: 0x12D26, offset: 0x42C7A, size: 0x8, addend: 0x0, symName: __ZN5ImGui7PopFontEv, symObjAddr: 0x239EC, symBinAddr: 0x100065174, symSize: 0x90 }
  - { offsetInCU: 0x12D50, offset: 0x42CA4, size: 0x8, addend: 0x0, symName: __ZN5ImGui12PushItemFlagEib, symObjAddr: 0x23B7C, symBinAddr: 0x100065304, symSize: 0xE8 }
  - { offsetInCU: 0x12DA7, offset: 0x42CFB, size: 0x8, addend: 0x0, symName: __ZN5ImGui11PopItemFlagEv, symObjAddr: 0x23CD4, symBinAddr: 0x10006545C, symSize: 0x94 }
  - { offsetInCU: 0x12DD1, offset: 0x42D25, size: 0x8, addend: 0x0, symName: __ZN5ImGui13BeginDisabledEb, symObjAddr: 0x23DD4, symBinAddr: 0x10006555C, symSize: 0xF0 }
  - { offsetInCU: 0x12E19, offset: 0x42D6D, size: 0x8, addend: 0x0, symName: __ZN5ImGui11EndDisabledEv, symObjAddr: 0x23EC4, symBinAddr: 0x10006564C, symSize: 0x108 }
  - { offsetInCU: 0x12E52, offset: 0x42DA6, size: 0x8, addend: 0x0, symName: __ZN5ImGui22PushAllowKeyboardFocusEb, symObjAddr: 0x23FCC, symBinAddr: 0x100065754, symSize: 0x38 }
  - { offsetInCU: 0x12E7C, offset: 0x42DD0, size: 0x8, addend: 0x0, symName: __ZN5ImGui21PopAllowKeyboardFocusEv, symObjAddr: 0x24004, symBinAddr: 0x10006578C, symSize: 0x14 }
  - { offsetInCU: 0x12E97, offset: 0x42DEB, size: 0x8, addend: 0x0, symName: __ZN5ImGui16PushButtonRepeatEb, symObjAddr: 0x24018, symBinAddr: 0x1000657A0, symSize: 0x34 }
  - { offsetInCU: 0x12EC1, offset: 0x42E15, size: 0x8, addend: 0x0, symName: __ZN5ImGui15PopButtonRepeatEv, symObjAddr: 0x2404C, symBinAddr: 0x1000657D4, symSize: 0x14 }
  - { offsetInCU: 0x12EDC, offset: 0x42E30, size: 0x8, addend: 0x0, symName: __ZN5ImGui15PushTextWrapPosEf, symObjAddr: 0x24060, symBinAddr: 0x1000657E8, symSize: 0x44 }
  - { offsetInCU: 0x12F15, offset: 0x42E69, size: 0x8, addend: 0x0, symName: __ZN5ImGui14PopTextWrapPosEv, symObjAddr: 0x24128, symBinAddr: 0x1000658B0, symSize: 0x44 }
  - { offsetInCU: 0x12F3F, offset: 0x42E93, size: 0x8, addend: 0x0, symName: __ZN5ImGui15IsWindowChildOfEP11ImGuiWindowS1_b, symObjAddr: 0x24248, symBinAddr: 0x1000659D0, symSize: 0x108 }
  - { offsetInCU: 0x12F9A, offset: 0x42EEE, size: 0x8, addend: 0x0, symName: __ZN5ImGui15IsWindowHoveredEi, symObjAddr: 0x243C0, symBinAddr: 0x100065B48, symSize: 0x270 }
  - { offsetInCU: 0x13021, offset: 0x42F75, size: 0x8, addend: 0x0, symName: __ZN5ImGui15IsWindowFocusedEi, symObjAddr: 0x24630, symBinAddr: 0x100065DB8, symSize: 0x16C }
  - { offsetInCU: 0x1308B, offset: 0x42FDF, size: 0x8, addend: 0x0, symName: __ZN5ImGui20IsWindowNavFocusableEP11ImGuiWindow, symObjAddr: 0x2479C, symBinAddr: 0x100065F24, symSize: 0x6C }
  - { offsetInCU: 0x130BA, offset: 0x4300E, size: 0x8, addend: 0x0, symName: __ZN5ImGui14GetWindowWidthEv, symObjAddr: 0x24808, symBinAddr: 0x100065F90, symSize: 0x24 }
  - { offsetInCU: 0x130E9, offset: 0x4303D, size: 0x8, addend: 0x0, symName: __ZN5ImGui15GetWindowHeightEv, symObjAddr: 0x2482C, symBinAddr: 0x100065FB4, symSize: 0x24 }
  - { offsetInCU: 0x13118, offset: 0x4306C, size: 0x8, addend: 0x0, symName: __ZN5ImGui12GetWindowPosEv, symObjAddr: 0x24850, symBinAddr: 0x100065FD8, symSize: 0x38 }
  - { offsetInCU: 0x13156, offset: 0x430AA, size: 0x8, addend: 0x0, symName: __ZN5ImGui12SetWindowPosERK6ImVec2i, symObjAddr: 0x24920, symBinAddr: 0x1000660A8, symSize: 0x38 }
  - { offsetInCU: 0x1319E, offset: 0x430F2, size: 0x8, addend: 0x0, symName: __ZN5ImGui20GetCurrentWindowReadEv, symObjAddr: 0x24958, symBinAddr: 0x1000660E0, symSize: 0x20 }
  - { offsetInCU: 0x131CD, offset: 0x43121, size: 0x8, addend: 0x0, symName: __ZN5ImGui12SetWindowPosEPKcRK6ImVec2i, symObjAddr: 0x24978, symBinAddr: 0x100066100, symSize: 0x58 }
  - { offsetInCU: 0x1322A, offset: 0x4317E, size: 0x8, addend: 0x0, symName: __ZN5ImGui13GetWindowSizeEv, symObjAddr: 0x249D0, symBinAddr: 0x100066158, symSize: 0x34 }
  - { offsetInCU: 0x13258, offset: 0x431AC, size: 0x8, addend: 0x0, symName: __ZN5ImGui13SetWindowSizeERK6ImVec2i, symObjAddr: 0x24A04, symBinAddr: 0x10006618C, symSize: 0x38 }
  - { offsetInCU: 0x13291, offset: 0x431E5, size: 0x8, addend: 0x0, symName: __ZN5ImGui13SetWindowSizeEPKcRK6ImVec2i, symObjAddr: 0x24A3C, symBinAddr: 0x1000661C4, symSize: 0x58 }
  - { offsetInCU: 0x132EE, offset: 0x43242, size: 0x8, addend: 0x0, symName: __ZN5ImGui20SetWindowHitTestHoleEP11ImGuiWindowRK6ImVec2S4_, symObjAddr: 0x24A94, symBinAddr: 0x10006621C, symSize: 0xA8 }
  - { offsetInCU: 0x13336, offset: 0x4328A, size: 0x8, addend: 0x0, symName: __ZN5ImGui18SetWindowCollapsedEbi, symObjAddr: 0x24B70, symBinAddr: 0x1000662F8, symSize: 0x44 }
  - { offsetInCU: 0x1336F, offset: 0x432C3, size: 0x8, addend: 0x0, symName: __ZN5ImGui17IsWindowCollapsedEv, symObjAddr: 0x24BB4, symBinAddr: 0x10006633C, symSize: 0x2C }
  - { offsetInCU: 0x1339D, offset: 0x432F1, size: 0x8, addend: 0x0, symName: __ZN5ImGui17IsWindowAppearingEv, symObjAddr: 0x24BE0, symBinAddr: 0x100066368, symSize: 0x2C }
  - { offsetInCU: 0x133CB, offset: 0x4331F, size: 0x8, addend: 0x0, symName: __ZN5ImGui18SetWindowCollapsedEPKcbi, symObjAddr: 0x24C0C, symBinAddr: 0x100066394, symSize: 0x64 }
  - { offsetInCU: 0x13428, offset: 0x4337C, size: 0x8, addend: 0x0, symName: __ZN5ImGui14SetWindowFocusEv, symObjAddr: 0x24C70, symBinAddr: 0x1000663F8, symSize: 0x20 }
  - { offsetInCU: 0x13443, offset: 0x43397, size: 0x8, addend: 0x0, symName: __ZN5ImGui14SetWindowFocusEPKc, symObjAddr: 0x24C90, symBinAddr: 0x100066418, symSize: 0x6C }
  - { offsetInCU: 0x13482, offset: 0x433D6, size: 0x8, addend: 0x0, symName: __ZN5ImGui16SetNextWindowPosERK6ImVec2iS2_, symObjAddr: 0x24CFC, symBinAddr: 0x100066484, symSize: 0xF4 }
  - { offsetInCU: 0x134D9, offset: 0x4342D, size: 0x8, addend: 0x0, symName: __ZN5ImGui28SetNextWindowSizeConstraintsERK6ImVec2S2_PFvP21ImGuiSizeCallbackDataEPv, symObjAddr: 0x24DF0, symBinAddr: 0x100066578, symSize: 0x7C }
  - { offsetInCU: 0x1353F, offset: 0x43493, size: 0x8, addend: 0x0, symName: __ZN5ImGui24SetNextWindowContentSizeERK6ImVec2, symObjAddr: 0x24E6C, symBinAddr: 0x1000665F4, symSize: 0x54 }
  - { offsetInCU: 0x13578, offset: 0x434CC, size: 0x8, addend: 0x0, symName: __ZN5ImGui19SetNextWindowScrollERK6ImVec2, symObjAddr: 0x24EC0, symBinAddr: 0x100066648, symSize: 0x3C }
  - { offsetInCU: 0x135B2, offset: 0x43506, size: 0x8, addend: 0x0, symName: __ZN5ImGui22SetNextWindowCollapsedEbi, symObjAddr: 0x24EFC, symBinAddr: 0x100066684, symSize: 0xF0 }
  - { offsetInCU: 0x135FA, offset: 0x4354E, size: 0x8, addend: 0x0, symName: __ZN5ImGui18SetNextWindowFocusEv, symObjAddr: 0x24FEC, symBinAddr: 0x100066774, symSize: 0x28 }
  - { offsetInCU: 0x13625, offset: 0x43579, size: 0x8, addend: 0x0, symName: __ZN5ImGui20SetNextWindowBgAlphaEf, symObjAddr: 0x25014, symBinAddr: 0x10006679C, symSize: 0x40 }
  - { offsetInCU: 0x1365F, offset: 0x435B3, size: 0x8, addend: 0x0, symName: __ZN5ImGui17GetWindowDrawListEv, symObjAddr: 0x25054, symBinAddr: 0x1000667DC, symSize: 0x28 }
  - { offsetInCU: 0x1368D, offset: 0x435E1, size: 0x8, addend: 0x0, symName: __ZN5ImGui7GetFontEv, symObjAddr: 0x2507C, symBinAddr: 0x100066804, symSize: 0x10 }
  - { offsetInCU: 0x136AC, offset: 0x43600, size: 0x8, addend: 0x0, symName: __ZN5ImGui11GetFontSizeEv, symObjAddr: 0x2508C, symBinAddr: 0x100066814, symSize: 0x10 }
  - { offsetInCU: 0x136CB, offset: 0x4361F, size: 0x8, addend: 0x0, symName: __ZN5ImGui22GetFontTexUvWhitePixelEv, symObjAddr: 0x2509C, symBinAddr: 0x100066824, symSize: 0x24 }
  - { offsetInCU: 0x136EA, offset: 0x4363E, size: 0x8, addend: 0x0, symName: __ZN5ImGui18SetWindowFontScaleEf, symObjAddr: 0x250C0, symBinAddr: 0x100066848, symSize: 0x8C }
  - { offsetInCU: 0x13732, offset: 0x43686, size: 0x8, addend: 0x0, symName: __ZN5ImGui12ActivateItemEj, symObjAddr: 0x2514C, symBinAddr: 0x1000668D4, symSize: 0x3C }
  - { offsetInCU: 0x1376C, offset: 0x436C0, size: 0x8, addend: 0x0, symName: __ZN5ImGui14PushFocusScopeEj, symObjAddr: 0x25188, symBinAddr: 0x100066910, symSize: 0x58 }
  - { offsetInCU: 0x137B4, offset: 0x43708, size: 0x8, addend: 0x0, symName: __ZN5ImGui13PopFocusScopeEv, symObjAddr: 0x251E0, symBinAddr: 0x100066968, symSize: 0xA0 }
  - { offsetInCU: 0x137ED, offset: 0x43741, size: 0x8, addend: 0x0, symName: __ZN5ImGui20SetKeyboardFocusHereEi, symObjAddr: 0x252EC, symBinAddr: 0x100066A74, symSize: 0x1C8 }
  - { offsetInCU: 0x13844, offset: 0x43798, size: 0x8, addend: 0x0, symName: __ZN5ImGui20NavMoveRequestSubmitEiiii, symObjAddr: 0x254B4, symBinAddr: 0x100066C3C, symSize: 0x180 }
  - { offsetInCU: 0x138AA, offset: 0x437FE, size: 0x8, addend: 0x0, symName: __ZN5ImGui33NavMoveRequestResolveWithLastItemEP16ImGuiNavItemData, symObjAddr: 0x25634, symBinAddr: 0x100066DBC, symSize: 0x44 }
  - { offsetInCU: 0x138E3, offset: 0x43837, size: 0x8, addend: 0x0, symName: __ZN5ImGui19SetItemDefaultFocusEv, symObjAddr: 0x25678, symBinAddr: 0x100066E00, symSize: 0x14C }
  - { offsetInCU: 0x1391C, offset: 0x43870, size: 0x8, addend: 0x0, symName: __ZN5ImGuiL23NavUpdateAnyRequestFlagEv, symObjAddr: 0x257C4, symBinAddr: 0x100066F4C, symSize: 0xDC }
  - { offsetInCU: 0x13947, offset: 0x4389B, size: 0x8, addend: 0x0, symName: __ZN5ImGui14ScrollToRectExEP11ImGuiWindowRK6ImRecti, symObjAddr: 0x258A0, symBinAddr: 0x100067028, symSize: 0x7A0 }
  - { offsetInCU: 0x13A5D, offset: 0x439B1, size: 0x8, addend: 0x0, symName: __ZN5ImGui15SetStateStorageEP12ImGuiStorage, symObjAddr: 0x26040, symBinAddr: 0x1000677C8, symSize: 0x5C }
  - { offsetInCU: 0x13A97, offset: 0x439EB, size: 0x8, addend: 0x0, symName: __ZN5ImGui15GetStateStorageEv, symObjAddr: 0x2609C, symBinAddr: 0x100067824, symSize: 0x24 }
  - { offsetInCU: 0x13AC6, offset: 0x43A1A, size: 0x8, addend: 0x0, symName: __ZN5ImGui6PushIDEPKc, symObjAddr: 0x260C0, symBinAddr: 0x100067848, symSize: 0x58 }
  - { offsetInCU: 0x13B1D, offset: 0x43A71, size: 0x8, addend: 0x0, symName: __ZN5ImGui6PushIDEPKcS1_, symObjAddr: 0x26118, symBinAddr: 0x1000678A0, symSize: 0x5C }
  - { offsetInCU: 0x13B83, offset: 0x43AD7, size: 0x8, addend: 0x0, symName: __ZN5ImGui6PushIDEPKv, symObjAddr: 0x26174, symBinAddr: 0x1000678FC, symSize: 0x54 }
  - { offsetInCU: 0x13BDA, offset: 0x43B2E, size: 0x8, addend: 0x0, symName: __ZN5ImGui6PushIDEi, symObjAddr: 0x261C8, symBinAddr: 0x100067950, symSize: 0x54 }
  - { offsetInCU: 0x13C31, offset: 0x43B85, size: 0x8, addend: 0x0, symName: __ZN5ImGui14PushOverrideIDEj, symObjAddr: 0x2621C, symBinAddr: 0x1000679A4, symSize: 0x78 }
  - { offsetInCU: 0x13C79, offset: 0x43BCD, size: 0x8, addend: 0x0, symName: __ZN5ImGui13GetIDWithSeedEPKcS1_j, symObjAddr: 0x26294, symBinAddr: 0x100067A1C, symSize: 0xB8 }
  - { offsetInCU: 0x13CE3, offset: 0x43C37, size: 0x8, addend: 0x0, symName: __ZN5ImGui5PopIDEv, symObjAddr: 0x2634C, symBinAddr: 0x100067AD4, symSize: 0x70 }
  - { offsetInCU: 0x13D0D, offset: 0x43C61, size: 0x8, addend: 0x0, symName: __ZN5ImGui5GetIDEPKc, symObjAddr: 0x263BC, symBinAddr: 0x100067B44, symSize: 0x3C }
  - { offsetInCU: 0x13D4A, offset: 0x43C9E, size: 0x8, addend: 0x0, symName: __ZN5ImGui5GetIDEPKcS1_, symObjAddr: 0x263F8, symBinAddr: 0x100067B80, symSize: 0x40 }
  - { offsetInCU: 0x13D96, offset: 0x43CEA, size: 0x8, addend: 0x0, symName: __ZN5ImGui5GetIDEPKv, symObjAddr: 0x26438, symBinAddr: 0x100067BC0, symSize: 0x38 }
  - { offsetInCU: 0x13DD3, offset: 0x43D27, size: 0x8, addend: 0x0, symName: __ZN5ImGui13IsRectVisibleERK6ImVec2, symObjAddr: 0x26470, symBinAddr: 0x100067BF8, symSize: 0x80 }
  - { offsetInCU: 0x13E10, offset: 0x43D64, size: 0x8, addend: 0x0, symName: __ZN5ImGui13IsRectVisibleERK6ImVec2S2_, symObjAddr: 0x264F0, symBinAddr: 0x100067C78, symSize: 0x60 }
  - { offsetInCU: 0x13E5C, offset: 0x43DB0, size: 0x8, addend: 0x0, symName: __ZN5ImGui11GetKeyIndexEi, symObjAddr: 0x26550, symBinAddr: 0x100067CD8, symSize: 0x84 }
  - { offsetInCU: 0x13EA8, offset: 0x43DFC, size: 0x8, addend: 0x0, symName: __ZN5ImGui10GetKeyNameEi, symObjAddr: 0x265D4, symBinAddr: 0x100067D5C, symSize: 0x120 }
  - { offsetInCU: 0x13EF3, offset: 0x43E47, size: 0x8, addend: 0x0, symName: __ZN5ImGui25CalcTypematicRepeatAmountEffff, symObjAddr: 0x266F4, symBinAddr: 0x100067E7C, symSize: 0x170 }
  - { offsetInCU: 0x13F7C, offset: 0x43ED0, size: 0x8, addend: 0x0, symName: __ZN5ImGui19GetKeyPressedAmountEiff, symObjAddr: 0x26864, symBinAddr: 0x100067FEC, symSize: 0x68 }
  - { offsetInCU: 0x13FF5, offset: 0x43F49, size: 0x8, addend: 0x0, symName: __ZN5ImGui9IsKeyDownEi, symObjAddr: 0x268CC, symBinAddr: 0x100068054, symSize: 0x68 }
  - { offsetInCU: 0x14032, offset: 0x43F86, size: 0x8, addend: 0x0, symName: __ZN5ImGui12IsKeyPressedEib, symObjAddr: 0x26934, symBinAddr: 0x1000680BC, symSize: 0x148 }
  - { offsetInCU: 0x140AB, offset: 0x43FFF, size: 0x8, addend: 0x0, symName: __ZN5ImGui13IsKeyReleasedEi, symObjAddr: 0x26A7C, symBinAddr: 0x100068204, symSize: 0x80 }
  - { offsetInCU: 0x140E8, offset: 0x4403C, size: 0x8, addend: 0x0, symName: __ZN5ImGui15IsMouseReleasedEi, symObjAddr: 0x26AFC, symBinAddr: 0x100068284, symSize: 0xA4 }
  - { offsetInCU: 0x14125, offset: 0x44079, size: 0x8, addend: 0x0, symName: __ZN5ImGui20IsMouseDoubleClickedEi, symObjAddr: 0x26BA0, symBinAddr: 0x100068328, symSize: 0xA8 }
  - { offsetInCU: 0x14162, offset: 0x440B6, size: 0x8, addend: 0x0, symName: __ZN5ImGui20GetMouseClickedCountEi, symObjAddr: 0x26C48, symBinAddr: 0x1000683D0, symSize: 0x9C }
  - { offsetInCU: 0x1419F, offset: 0x440F3, size: 0x8, addend: 0x0, symName: __ZN5ImGui24IsMouseDragPastThresholdEif, symObjAddr: 0x26CE4, symBinAddr: 0x10006846C, symSize: 0xDC }
  - { offsetInCU: 0x141EB, offset: 0x4413F, size: 0x8, addend: 0x0, symName: __ZN5ImGui15IsMouseDraggingEif, symObjAddr: 0x26DC0, symBinAddr: 0x100068548, symSize: 0xE0 }
  - { offsetInCU: 0x14237, offset: 0x4418B, size: 0x8, addend: 0x0, symName: __ZN5ImGui11GetMousePosEv, symObjAddr: 0x26EA0, symBinAddr: 0x100068628, symSize: 0x30 }
  - { offsetInCU: 0x14266, offset: 0x441BA, size: 0x8, addend: 0x0, symName: __ZN5ImGui32GetMousePosOnOpeningCurrentPopupEv, symObjAddr: 0x26ED0, symBinAddr: 0x100068658, symSize: 0x88 }
  - { offsetInCU: 0x14294, offset: 0x441E8, size: 0x8, addend: 0x0, symName: __ZN5ImGui14IsAnyMouseDownEv, symObjAddr: 0x26F58, symBinAddr: 0x1000686E0, symSize: 0x94 }
  - { offsetInCU: 0x142E0, offset: 0x44234, size: 0x8, addend: 0x0, symName: __ZN5ImGui17GetMouseDragDeltaEif, symObjAddr: 0x26FEC, symBinAddr: 0x100068774, symSize: 0x1A0 }
  - { offsetInCU: 0x1432C, offset: 0x44280, size: 0x8, addend: 0x0, symName: __ZN5ImGui19ResetMouseDragDeltaEi, symObjAddr: 0x2718C, symBinAddr: 0x100068914, symSize: 0xA8 }
  - { offsetInCU: 0x14365, offset: 0x442B9, size: 0x8, addend: 0x0, symName: __ZN5ImGui14GetMouseCursorEv, symObjAddr: 0x27234, symBinAddr: 0x1000689BC, symSize: 0x24 }
  - { offsetInCU: 0x14394, offset: 0x442E8, size: 0x8, addend: 0x0, symName: __ZN5ImGui14SetMouseCursorEi, symObjAddr: 0x27258, symBinAddr: 0x1000689E0, symSize: 0x2C }
  - { offsetInCU: 0x143CE, offset: 0x44322, size: 0x8, addend: 0x0, symName: __ZN5ImGui31SetNextFrameWantCaptureKeyboardEb, symObjAddr: 0x27284, symBinAddr: 0x100068A0C, symSize: 0x44 }
  - { offsetInCU: 0x14408, offset: 0x4435C, size: 0x8, addend: 0x0, symName: __ZN5ImGui28SetNextFrameWantCaptureMouseEb, symObjAddr: 0x272C8, symBinAddr: 0x100068A50, symSize: 0x44 }
  - { offsetInCU: 0x14442, offset: 0x44396, size: 0x8, addend: 0x0, symName: __ZN5ImGui30DebugCheckVersionAndDataLayoutEPKcmmmmmm, symObjAddr: 0x2771C, symBinAddr: 0x100068EA4, symSize: 0x3AC }
  - { offsetInCU: 0x144D9, offset: 0x4442D, size: 0x8, addend: 0x0, symName: __ZN5ImGui25ErrorCheckEndFrameRecoverEPFvPvPKczES0_, symObjAddr: 0x27AC8, symBinAddr: 0x100069250, symSize: 0x154 }
  - { offsetInCU: 0x1453E, offset: 0x44492, size: 0x8, addend: 0x0, symName: __ZN5ImGui26ErrorCheckEndWindowRecoverEPFvPvPKczES0_, symObjAddr: 0x27C1C, symBinAddr: 0x1000693A4, symSize: 0x548 }
  - { offsetInCU: 0x145A4, offset: 0x444F8, size: 0x8, addend: 0x0, symName: __ZN5ImGui8EndGroupEv, symObjAddr: 0x28164, symBinAddr: 0x1000698EC, symSize: 0x440 }
  - { offsetInCU: 0x14628, offset: 0x4457C, size: 0x8, addend: 0x0, symName: __ZN5ImGui8SameLineEff, symObjAddr: 0x285A4, symBinAddr: 0x100069D2C, symSize: 0x14C }
  - { offsetInCU: 0x14680, offset: 0x445D4, size: 0x8, addend: 0x0, symName: __ZN5ImGuiL14NavProcessItemEv, symObjAddr: 0x286F0, symBinAddr: 0x100069E78, symSize: 0x480 }
  - { offsetInCU: 0x1476A, offset: 0x446BE, size: 0x8, addend: 0x0, symName: __ZN5ImGui18GetCursorScreenPosEv, symObjAddr: 0x28B70, symBinAddr: 0x10006A2F8, symSize: 0x34 }
  - { offsetInCU: 0x14798, offset: 0x446EC, size: 0x8, addend: 0x0, symName: __ZN5ImGui18SetCursorScreenPosERK6ImVec2, symObjAddr: 0x28BA4, symBinAddr: 0x10006A32C, symSize: 0x5C }
  - { offsetInCU: 0x147D1, offset: 0x44725, size: 0x8, addend: 0x0, symName: __ZN5ImGui12GetCursorPosEv, symObjAddr: 0x28C00, symBinAddr: 0x10006A388, symSize: 0x5C }
  - { offsetInCU: 0x147FF, offset: 0x44753, size: 0x8, addend: 0x0, symName: __ZN5ImGui13GetCursorPosXEv, symObjAddr: 0x28C5C, symBinAddr: 0x10006A3E4, symSize: 0x40 }
  - { offsetInCU: 0x1482D, offset: 0x44781, size: 0x8, addend: 0x0, symName: __ZN5ImGui13GetCursorPosYEv, symObjAddr: 0x28C9C, symBinAddr: 0x10006A424, symSize: 0x40 }
  - { offsetInCU: 0x1485B, offset: 0x447AF, size: 0x8, addend: 0x0, symName: __ZN5ImGui12SetCursorPosERK6ImVec2, symObjAddr: 0x28CDC, symBinAddr: 0x10006A464, symSize: 0x88 }
  - { offsetInCU: 0x14894, offset: 0x447E8, size: 0x8, addend: 0x0, symName: __ZN5ImGui13SetCursorPosXEf, symObjAddr: 0x28D64, symBinAddr: 0x10006A4EC, symSize: 0x64 }
  - { offsetInCU: 0x148CD, offset: 0x44821, size: 0x8, addend: 0x0, symName: __ZN5ImGui13SetCursorPosYEf, symObjAddr: 0x28DC8, symBinAddr: 0x10006A550, symSize: 0x64 }
  - { offsetInCU: 0x14906, offset: 0x4485A, size: 0x8, addend: 0x0, symName: __ZN5ImGui17GetCursorStartPosEv, symObjAddr: 0x28E2C, symBinAddr: 0x10006A5B4, symSize: 0x44 }
  - { offsetInCU: 0x14934, offset: 0x44888, size: 0x8, addend: 0x0, symName: __ZN5ImGui6IndentEf, symObjAddr: 0x28E70, symBinAddr: 0x10006A5F8, symSize: 0x9C }
  - { offsetInCU: 0x1497C, offset: 0x448D0, size: 0x8, addend: 0x0, symName: __ZN5ImGui8UnindentEf, symObjAddr: 0x28F0C, symBinAddr: 0x10006A694, symSize: 0x9C }
  - { offsetInCU: 0x149C4, offset: 0x44918, size: 0x8, addend: 0x0, symName: __ZN5ImGui13PushItemWidthEf, symObjAddr: 0x28FA8, symBinAddr: 0x10006A730, symSize: 0x94 }
  - { offsetInCU: 0x14A0C, offset: 0x44960, size: 0x8, addend: 0x0, symName: __ZN5ImGui20PushMultiItemsWidthsEif, symObjAddr: 0x2903C, symBinAddr: 0x10006A7C4, symSize: 0x180 }
  - { offsetInCU: 0x14AAD, offset: 0x44A01, size: 0x8, addend: 0x0, symName: __ZN5ImGui12PopItemWidthEv, symObjAddr: 0x291BC, symBinAddr: 0x10006A944, symSize: 0x44 }
  - { offsetInCU: 0x14AD7, offset: 0x44A2B, size: 0x8, addend: 0x0, symName: __ZN5ImGui13CalcItemWidthEv, symObjAddr: 0x29200, symBinAddr: 0x10006A988, symSize: 0xCC }
  - { offsetInCU: 0x14B40, offset: 0x44A94, size: 0x8, addend: 0x0, symName: __ZN5ImGui22GetContentRegionMaxAbsEv, symObjAddr: 0x292CC, symBinAddr: 0x10006AA54, symSize: 0x78 }
  - { offsetInCU: 0x14B8D, offset: 0x44AE1, size: 0x8, addend: 0x0, symName: __ZN5ImGui12CalcItemSizeE6ImVec2ff, symObjAddr: 0x29344, symBinAddr: 0x10006AACC, symSize: 0x158 }
  - { offsetInCU: 0x14C06, offset: 0x44B5A, size: 0x8, addend: 0x0, symName: __ZN5ImGui17GetTextLineHeightEv, symObjAddr: 0x2949C, symBinAddr: 0x10006AC24, symSize: 0x20 }
  - { offsetInCU: 0x14C35, offset: 0x44B89, size: 0x8, addend: 0x0, symName: __ZN5ImGui28GetTextLineHeightWithSpacingEv, symObjAddr: 0x294BC, symBinAddr: 0x10006AC44, symSize: 0x2C }
  - { offsetInCU: 0x14C64, offset: 0x44BB8, size: 0x8, addend: 0x0, symName: __ZN5ImGui14GetFrameHeightEv, symObjAddr: 0x294E8, symBinAddr: 0x10006AC70, symSize: 0x30 }
  - { offsetInCU: 0x14C93, offset: 0x44BE7, size: 0x8, addend: 0x0, symName: __ZN5ImGui25GetFrameHeightWithSpacingEv, symObjAddr: 0x29518, symBinAddr: 0x10006ACA0, symSize: 0x3C }
  - { offsetInCU: 0x14CC2, offset: 0x44C16, size: 0x8, addend: 0x0, symName: __ZN5ImGui19GetContentRegionMaxEv, symObjAddr: 0x29554, symBinAddr: 0x10006ACDC, symSize: 0xA0 }
  - { offsetInCU: 0x14D0E, offset: 0x44C62, size: 0x8, addend: 0x0, symName: __ZN5ImGui25GetWindowContentRegionMinEv, symObjAddr: 0x295F4, symBinAddr: 0x10006AD7C, symSize: 0x4C }
  - { offsetInCU: 0x14D3C, offset: 0x44C90, size: 0x8, addend: 0x0, symName: __ZN5ImGui25GetWindowContentRegionMaxEv, symObjAddr: 0x29640, symBinAddr: 0x10006ADC8, symSize: 0x4C }
  - { offsetInCU: 0x14D6A, offset: 0x44CBE, size: 0x8, addend: 0x0, symName: __ZN5ImGui10BeginGroupEv, symObjAddr: 0x2968C, symBinAddr: 0x10006AE14, symSize: 0x1C8 }
  - { offsetInCU: 0x14DB2, offset: 0x44D06, size: 0x8, addend: 0x0, symName: __ZN5ImGui12ScrollToItemEi, symObjAddr: 0x29934, symBinAddr: 0x10006B0BC, symSize: 0x54 }
  - { offsetInCU: 0x14DFA, offset: 0x44D4E, size: 0x8, addend: 0x0, symName: __ZN5ImGui12ScrollToRectEP11ImGuiWindowRK6ImRecti, symObjAddr: 0x29988, symBinAddr: 0x10006B110, symSize: 0x3C }
  - { offsetInCU: 0x14E42, offset: 0x44D96, size: 0x8, addend: 0x0, symName: __ZN5ImGui17SetScrollFromPosXEP11ImGuiWindowff, symObjAddr: 0x299C4, symBinAddr: 0x10006B14C, symSize: 0xC0 }
  - { offsetInCU: 0x14E8A, offset: 0x44DDE, size: 0x8, addend: 0x0, symName: __ZN5ImGui17SetScrollFromPosYEP11ImGuiWindowff, symObjAddr: 0x29A84, symBinAddr: 0x10006B20C, symSize: 0xF4 }
  - { offsetInCU: 0x14EE1, offset: 0x44E35, size: 0x8, addend: 0x0, symName: __ZN5ImGui10GetScrollXEv, symObjAddr: 0x29B78, symBinAddr: 0x10006B300, symSize: 0x24 }
  - { offsetInCU: 0x14F10, offset: 0x44E64, size: 0x8, addend: 0x0, symName: __ZN5ImGui10GetScrollYEv, symObjAddr: 0x29B9C, symBinAddr: 0x10006B324, symSize: 0x24 }
  - { offsetInCU: 0x14F3F, offset: 0x44E93, size: 0x8, addend: 0x0, symName: __ZN5ImGui13GetScrollMaxXEv, symObjAddr: 0x29BC0, symBinAddr: 0x10006B348, symSize: 0x24 }
  - { offsetInCU: 0x14F6E, offset: 0x44EC2, size: 0x8, addend: 0x0, symName: __ZN5ImGui13GetScrollMaxYEv, symObjAddr: 0x29BE4, symBinAddr: 0x10006B36C, symSize: 0x24 }
  - { offsetInCU: 0x14F9D, offset: 0x44EF1, size: 0x8, addend: 0x0, symName: __ZN5ImGui10SetScrollXEP11ImGuiWindowf, symObjAddr: 0x29C08, symBinAddr: 0x10006B390, symSize: 0x34 }
  - { offsetInCU: 0x14FD7, offset: 0x44F2B, size: 0x8, addend: 0x0, symName: __ZN5ImGui10SetScrollYEP11ImGuiWindowf, symObjAddr: 0x29C3C, symBinAddr: 0x10006B3C4, symSize: 0x34 }
  - { offsetInCU: 0x15011, offset: 0x44F65, size: 0x8, addend: 0x0, symName: __ZN5ImGui10SetScrollXEf, symObjAddr: 0x29C70, symBinAddr: 0x10006B3F8, symSize: 0x38 }
  - { offsetInCU: 0x1504A, offset: 0x44F9E, size: 0x8, addend: 0x0, symName: __ZN5ImGui10SetScrollYEf, symObjAddr: 0x29CA8, symBinAddr: 0x10006B430, symSize: 0x38 }
  - { offsetInCU: 0x15083, offset: 0x44FD7, size: 0x8, addend: 0x0, symName: __ZN5ImGui17SetScrollFromPosXEff, symObjAddr: 0x29CE0, symBinAddr: 0x10006B468, symSize: 0x40 }
  - { offsetInCU: 0x150CB, offset: 0x4501F, size: 0x8, addend: 0x0, symName: __ZN5ImGui17SetScrollFromPosYEff, symObjAddr: 0x29D20, symBinAddr: 0x10006B4A8, symSize: 0x40 }
  - { offsetInCU: 0x15113, offset: 0x45067, size: 0x8, addend: 0x0, symName: __ZN5ImGui14SetScrollHereXEf, symObjAddr: 0x29D60, symBinAddr: 0x10006B4E8, symSize: 0xB4 }
  - { offsetInCU: 0x15179, offset: 0x450CD, size: 0x8, addend: 0x0, symName: __ZN5ImGui14SetScrollHereYEf, symObjAddr: 0x29E44, symBinAddr: 0x10006B5CC, symSize: 0xC0 }
  - { offsetInCU: 0x151DF, offset: 0x45133, size: 0x8, addend: 0x0, symName: __ZN5ImGui12BeginTooltipEv, symObjAddr: 0x29F04, symBinAddr: 0x10006B68C, symSize: 0x1C }
  - { offsetInCU: 0x151FA, offset: 0x4514E, size: 0x8, addend: 0x0, symName: __ZN5ImGui14BeginTooltipExEii, symObjAddr: 0x29F20, symBinAddr: 0x10006B6A8, symSize: 0x224 }
  - { offsetInCU: 0x15292, offset: 0x451E6, size: 0x8, addend: 0x0, symName: __ZN5ImGui10EndTooltipEv, symObjAddr: 0x2A144, symBinAddr: 0x10006B8CC, symSize: 0x50 }
  - { offsetInCU: 0x152AD, offset: 0x45201, size: 0x8, addend: 0x0, symName: __ZN5ImGui11SetTooltipVEPKcPc, symObjAddr: 0x2A194, symBinAddr: 0x10006B91C, symSize: 0x3C }
  - { offsetInCU: 0x152E6, offset: 0x4523A, size: 0x8, addend: 0x0, symName: __ZN5ImGui11IsPopupOpenEPKci, symObjAddr: 0x2A1D0, symBinAddr: 0x10006B958, symSize: 0xC8 }
  - { offsetInCU: 0x15341, offset: 0x45295, size: 0x8, addend: 0x0, symName: __ZN5ImGui30GetTopMostAndVisiblePopupModalEv, symObjAddr: 0x2A298, symBinAddr: 0x10006BA20, symSize: 0xDC }
  - { offsetInCU: 0x153A1, offset: 0x452F5, size: 0x8, addend: 0x0, symName: __ZN5ImGui9OpenPopupEPKci, symObjAddr: 0x2A374, symBinAddr: 0x10006BAFC, symSize: 0x9C }
  - { offsetInCU: 0x153F8, offset: 0x4534C, size: 0x8, addend: 0x0, symName: __ZN5ImGui11OpenPopupExEji, symObjAddr: 0x2A410, symBinAddr: 0x10006BB98, symSize: 0x24C }
  - { offsetInCU: 0x1546D, offset: 0x453C1, size: 0x8, addend: 0x0, symName: __ZN5ImGui9OpenPopupEji, symObjAddr: 0x2A65C, symBinAddr: 0x10006BDE4, symSize: 0x2C }
  - { offsetInCU: 0x154A6, offset: 0x453FA, size: 0x8, addend: 0x0, symName: __ZN5ImGuiL22NavCalcPreferredRefPosEv, symObjAddr: 0x2A6B4, symBinAddr: 0x10006BE3C, symSize: 0x28C }
  - { offsetInCU: 0x1555B, offset: 0x454AF, size: 0x8, addend: 0x0, symName: __ZN5ImGui17ClosePopupToLevelEib, symObjAddr: 0x2A940, symBinAddr: 0x10006C0C8, symSize: 0x1E0 }
  - { offsetInCU: 0x155C1, offset: 0x45515, size: 0x8, addend: 0x0, symName: __ZN5ImGui23ClosePopupsExceptModalsEv, symObjAddr: 0x2AB20, symBinAddr: 0x10006C2A8, symSize: 0xE4 }
  - { offsetInCU: 0x15617, offset: 0x4556B, size: 0x8, addend: 0x0, symName: __ZN5ImGui17CloseCurrentPopupEv, symObjAddr: 0x2AC04, symBinAddr: 0x10006C38C, symSize: 0x238 }
  - { offsetInCU: 0x156A0, offset: 0x455F4, size: 0x8, addend: 0x0, symName: __ZN5ImGui12BeginPopupExEji, symObjAddr: 0x2AE3C, symBinAddr: 0x10006C5C4, symSize: 0x164 }
  - { offsetInCU: 0x1570A, offset: 0x4565E, size: 0x8, addend: 0x0, symName: __ZN5ImGui8EndPopupEv, symObjAddr: 0x2AFA0, symBinAddr: 0x10006C728, symSize: 0x160 }
  - { offsetInCU: 0x15743, offset: 0x45697, size: 0x8, addend: 0x0, symName: __ZN5ImGui10BeginPopupEPKci, symObjAddr: 0x2B100, symBinAddr: 0x10006C888, symSize: 0xC4 }
  - { offsetInCU: 0x1579E, offset: 0x456F2, size: 0x8, addend: 0x0, symName: __ZN5ImGui15BeginPopupModalEPKcPbi, symObjAddr: 0x2B1C4, symBinAddr: 0x10006C94C, symSize: 0x1A4 }
  - { offsetInCU: 0x15843, offset: 0x45797, size: 0x8, addend: 0x0, symName: __ZN5ImGui25NavMoveRequestTryWrappingEP11ImGuiWindowi, symObjAddr: 0x2B3B4, symBinAddr: 0x10006CB3C, symSize: 0xD4 }
  - { offsetInCU: 0x1588B, offset: 0x457DF, size: 0x8, addend: 0x0, symName: __ZN5ImGui20OpenPopupOnItemClickEPKci, symObjAddr: 0x2B488, symBinAddr: 0x10006CC10, symSize: 0xF0 }
  - { offsetInCU: 0x1590E, offset: 0x45862, size: 0x8, addend: 0x0, symName: __ZN5ImGui21BeginPopupContextItemEPKci, symObjAddr: 0x2B578, symBinAddr: 0x10006CD00, symSize: 0x138 }
  - { offsetInCU: 0x15987, offset: 0x458DB, size: 0x8, addend: 0x0, symName: __ZN5ImGui23BeginPopupContextWindowEPKci, symObjAddr: 0x2B6B0, symBinAddr: 0x10006CE38, symSize: 0xE0 }
  - { offsetInCU: 0x15A00, offset: 0x45954, size: 0x8, addend: 0x0, symName: __ZN5ImGui21BeginPopupContextVoidEPKci, symObjAddr: 0x2B790, symBinAddr: 0x10006CF18, symSize: 0xD4 }
  - { offsetInCU: 0x15A79, offset: 0x459CD, size: 0x8, addend: 0x0, symName: __ZN5ImGui27FindBestWindowPosForPopupExERK6ImVec2S2_PiRK6ImRectS6_24ImGuiPopupPositionPolicy, symObjAddr: 0x2B864, symBinAddr: 0x10006CFEC, symSize: 0x800 }
  - { offsetInCU: 0x15C0A, offset: 0x45B5E, size: 0x8, addend: 0x0, symName: __ZN5ImGui25GetPopupAllowedExtentRectEP11ImGuiWindow, symObjAddr: 0x2C194, symBinAddr: 0x10006D91C, symSize: 0x104 }
  - { offsetInCU: 0x15C65, offset: 0x45BB9, size: 0x8, addend: 0x0, symName: __ZN5ImGui8SetNavIDEj13ImGuiNavLayerjRK6ImRect, symObjAddr: 0x2C340, symBinAddr: 0x10006DAC8, symSize: 0x134 }
  - { offsetInCU: 0x15CCB, offset: 0x45C1F, size: 0x8, addend: 0x0, symName: __ZN5ImGui10SetFocusIDEjP11ImGuiWindow, symObjAddr: 0x2C474, symBinAddr: 0x10006DBFC, symSize: 0x180 }
  - { offsetInCU: 0x15D22, offset: 0x45C76, size: 0x8, addend: 0x0, symName: __ZN5ImGui28NavMoveRequestButNoResultYetEv, symObjAddr: 0x2C678, symBinAddr: 0x10006DE00, symSize: 0x80 }
  - { offsetInCU: 0x15D51, offset: 0x45CA5, size: 0x8, addend: 0x0, symName: __ZN5ImGuiL20NavApplyItemToResultEP16ImGuiNavItemData, symObjAddr: 0x2C730, symBinAddr: 0x10006DEB8, symSize: 0xA0 }
  - { offsetInCU: 0x15D9A, offset: 0x45CEE, size: 0x8, addend: 0x0, symName: __ZN5ImGui21NavMoveRequestForwardEiiii, symObjAddr: 0x2C7D0, symBinAddr: 0x10006DF58, symSize: 0xD4 }
  - { offsetInCU: 0x15E00, offset: 0x45D54, size: 0x8, addend: 0x0, symName: __ZN5ImGui17GetNavInputAmountEi16ImGuiNavReadMode, symObjAddr: 0x2C930, symBinAddr: 0x10006E0B8, symSize: 0x264 }
  - { offsetInCU: 0x15E5B, offset: 0x45DAF, size: 0x8, addend: 0x0, symName: __ZN5ImGui19GetNavInputAmount2dEi16ImGuiNavReadModeff, symObjAddr: 0x2CB94, symBinAddr: 0x10006E31C, symSize: 0x2D0 }
  - { offsetInCU: 0x15EC5, offset: 0x45E19, size: 0x8, addend: 0x0, symName: __ZN5ImGui14IsNavInputDownEi, symObjAddr: 0x2CE64, symBinAddr: 0x10006E5EC, symSize: 0x38 }
  - { offsetInCU: 0x15F03, offset: 0x45E57, size: 0x8, addend: 0x0, symName: __ZN5ImGui25NavInitRequestApplyResultEv, symObjAddr: 0x2CEDC, symBinAddr: 0x10006E664, symSize: 0x110 }
  - { offsetInCU: 0x15F2D, offset: 0x45E81, size: 0x8, addend: 0x0, symName: __ZN5ImGuiL28NavRestoreHighlightAfterMoveEv, symObjAddr: 0x2CFEC, symBinAddr: 0x10006E774, symSize: 0x4C }
  - { offsetInCU: 0x15F58, offset: 0x45EAC, size: 0x8, addend: 0x0, symName: __ZN5ImGui25NavMoveRequestApplyResultEv, symObjAddr: 0x2D038, symBinAddr: 0x10006E7C0, symSize: 0x6DC }
  - { offsetInCU: 0x15FCB, offset: 0x45F1F, size: 0x8, addend: 0x0, symName: __ZN5ImGui16IsDragDropActiveEv, symObjAddr: 0x2D714, symBinAddr: 0x10006EE9C, symSize: 0x2C }
  - { offsetInCU: 0x15FFA, offset: 0x45F4E, size: 0x8, addend: 0x0, symName: __ZN5ImGui19BeginDragDropSourceEi, symObjAddr: 0x2D7F0, symBinAddr: 0x10006EF78, symSize: 0x560 }
  - { offsetInCU: 0x160D9, offset: 0x4602D, size: 0x8, addend: 0x0, symName: __ZN5ImGui17EndDragDropSourceEv, symObjAddr: 0x2DD50, symBinAddr: 0x10006F4D8, symSize: 0x114 }
  - { offsetInCU: 0x16103, offset: 0x46057, size: 0x8, addend: 0x0, symName: __ZN5ImGui18SetDragDropPayloadEPKcPKvmi, symObjAddr: 0x2DE64, symBinAddr: 0x10006F5EC, symSize: 0x3B0 }
  - { offsetInCU: 0x1617C, offset: 0x460D0, size: 0x8, addend: 0x0, symName: __ZN5ImGui25BeginDragDropTargetCustomERK6ImRectj, symObjAddr: 0x2E27C, symBinAddr: 0x10006FA04, symSize: 0x1FC }
  - { offsetInCU: 0x161E6, offset: 0x4613A, size: 0x8, addend: 0x0, symName: __ZN5ImGui19BeginDragDropTargetEv, symObjAddr: 0x2E478, symBinAddr: 0x10006FC00, symSize: 0x238 }
  - { offsetInCU: 0x16250, offset: 0x461A4, size: 0x8, addend: 0x0, symName: __ZN5ImGui30IsDragDropPayloadBeingAcceptedEv, symObjAddr: 0x2E6B0, symBinAddr: 0x10006FE38, symSize: 0x5C }
  - { offsetInCU: 0x1627F, offset: 0x461D3, size: 0x8, addend: 0x0, symName: __ZN5ImGui21AcceptDragDropPayloadEPKci, symObjAddr: 0x2E70C, symBinAddr: 0x10006FE94, symSize: 0x34C }
  - { offsetInCU: 0x16318, offset: 0x4626C, size: 0x8, addend: 0x0, symName: __ZN5ImGui18GetDragDropPayloadEv, symObjAddr: 0x2EAC4, symBinAddr: 0x10007024C, symSize: 0x54 }
  - { offsetInCU: 0x16347, offset: 0x4629B, size: 0x8, addend: 0x0, symName: __ZN5ImGui17EndDragDropTargetEv, symObjAddr: 0x2EB18, symBinAddr: 0x1000702A0, symSize: 0xAC }
  - { offsetInCU: 0x16371, offset: 0x462C5, size: 0x8, addend: 0x0, symName: __ZN5ImGui7LogTextEPKcz, symObjAddr: 0x2EBC4, symBinAddr: 0x10007034C, symSize: 0x64 }
  - { offsetInCU: 0x163BA, offset: 0x4630E, size: 0x8, addend: 0x0, symName: __ZN5ImGui8LogTextVEPKcPc, symObjAddr: 0x2ECF8, symBinAddr: 0x100070480, symSize: 0x5C }
  - { offsetInCU: 0x16402, offset: 0x46356, size: 0x8, addend: 0x0, symName: __ZN5ImGui8LogBeginE12ImGuiLogTypei, symObjAddr: 0x2ED54, symBinAddr: 0x1000704DC, symSize: 0x1A8 }
  - { offsetInCU: 0x16459, offset: 0x463AD, size: 0x8, addend: 0x0, symName: __ZN5ImGui24LogSetNextTextDecorationEPKcS1_, symObjAddr: 0x2EF20, symBinAddr: 0x1000706A8, symSize: 0x38 }
  - { offsetInCU: 0x164A2, offset: 0x463F6, size: 0x8, addend: 0x0, symName: __ZN5ImGui8LogToTTYEi, symObjAddr: 0x2EF58, symBinAddr: 0x1000706E0, symSize: 0x68 }
  - { offsetInCU: 0x164DB, offset: 0x4642F, size: 0x8, addend: 0x0, symName: __ZN5ImGui9LogToFileEiPKc, symObjAddr: 0x2EFC0, symBinAddr: 0x100070748, symSize: 0x100 }
  - { offsetInCU: 0x16532, offset: 0x46486, size: 0x8, addend: 0x0, symName: __ZN5ImGui14LogToClipboardEi, symObjAddr: 0x2F0C0, symBinAddr: 0x100070848, symSize: 0x54 }
  - { offsetInCU: 0x1656B, offset: 0x464BF, size: 0x8, addend: 0x0, symName: __ZN5ImGui11LogToBufferEi, symObjAddr: 0x2F114, symBinAddr: 0x10007089C, symSize: 0x54 }
  - { offsetInCU: 0x165A4, offset: 0x464F8, size: 0x8, addend: 0x0, symName: __ZN5ImGui10LogButtonsEv, symObjAddr: 0x2F1C4, symBinAddr: 0x10007094C, symSize: 0x188 }
  - { offsetInCU: 0x165FB, offset: 0x4654F, size: 0x8, addend: 0x0, symName: __ZN5ImGui20MarkIniSettingsDirtyEv, symObjAddr: 0x2F34C, symBinAddr: 0x100070AD4, symSize: 0x4C }
  - { offsetInCU: 0x16626, offset: 0x4657A, size: 0x8, addend: 0x0, symName: __ZN5ImGui23CreateNewWindowSettingsEPKc, symObjAddr: 0x2F398, symBinAddr: 0x100070B20, symSize: 0x114 }
  - { offsetInCU: 0x166A5, offset: 0x465F9, size: 0x8, addend: 0x0, symName: __ZN5ImGui18FindWindowSettingsEj, symObjAddr: 0x2F5A4, symBinAddr: 0x100070D2C, symSize: 0xA8 }
  - { offsetInCU: 0x166FF, offset: 0x46653, size: 0x8, addend: 0x0, symName: __ZN5ImGui26FindOrCreateWindowSettingsEPKc, symObjAddr: 0x2F800, symBinAddr: 0x100070F88, symSize: 0x68 }
  - { offsetInCU: 0x16742, offset: 0x46696, size: 0x8, addend: 0x0, symName: __ZN5ImGui19FindSettingsHandlerEPKc, symObjAddr: 0x2F868, symBinAddr: 0x100070FF0, symSize: 0xCC }
  - { offsetInCU: 0x167AB, offset: 0x466FF, size: 0x8, addend: 0x0, symName: __ZN5ImGui21RemoveSettingsHandlerEPKc, symObjAddr: 0x2F9C8, symBinAddr: 0x100071150, symSize: 0x60 }
  - { offsetInCU: 0x167F9, offset: 0x4674D, size: 0x8, addend: 0x0, symName: __ZN5ImGui16ClearIniSettingsEv, symObjAddr: 0x2FBF8, symBinAddr: 0x100071380, symSize: 0xE8 }
  - { offsetInCU: 0x16840, offset: 0x46794, size: 0x8, addend: 0x0, symName: __ZN5ImGui23LoadIniSettingsFromDiskEPKc, symObjAddr: 0x2FCE0, symBinAddr: 0x100071468, symSize: 0x84 }
  - { offsetInCU: 0x16888, offset: 0x467DC, size: 0x8, addend: 0x0, symName: __ZN5ImGui25LoadIniSettingsFromMemoryEPKcm, symObjAddr: 0x2FD64, symBinAddr: 0x1000714EC, symSize: 0x544 }
  - { offsetInCU: 0x169C3, offset: 0x46917, size: 0x8, addend: 0x0, symName: __ZN5ImGui23SaveIniSettingsToMemoryEPm, symObjAddr: 0x302A8, symBinAddr: 0x100071A30, symSize: 0x124 }
  - { offsetInCU: 0x16A3A, offset: 0x4698E, size: 0x8, addend: 0x0, symName: __ZN5ImGui28DebugRenderViewportThumbnailEP10ImDrawListP14ImGuiViewportPRK6ImRect, symObjAddr: 0x304F4, symBinAddr: 0x100071C7C, symSize: 0x5C4 }
  - { offsetInCU: 0x16B3B, offset: 0x46A8F, size: 0x8, addend: 0x0, symName: __ZN5ImGui17DebugTextEncodingEPKc, symObjAddr: 0x30B10, symBinAddr: 0x100072298, symSize: 0x27C }
  - { offsetInCU: 0x16BCB, offset: 0x46B1F, size: 0x8, addend: 0x0, symName: __ZN5ImGui13ShowFontAtlasEP11ImFontAtlas, symObjAddr: 0x30D8C, symBinAddr: 0x100072514, symSize: 0x178 }
  - { offsetInCU: 0x16C5B, offset: 0x46BAF, size: 0x8, addend: 0x0, symName: __ZN5ImGui13DebugNodeFontEP6ImFont, symObjAddr: 0x30FA4, symBinAddr: 0x10007272C, symSize: 0x738 }
  - { offsetInCU: 0x16DF5, offset: 0x46D49, size: 0x8, addend: 0x0, symName: __ZN5ImGui18ShowDebugLogWindowEPb, symObjAddr: 0x33A88, symBinAddr: 0x100075210, symSize: 0x28C }
  - { offsetInCU: 0x16E2E, offset: 0x46D82, size: 0x8, addend: 0x0, symName: __ZN5ImGui19ShowStackToolWindowEPb, symObjAddr: 0x33D14, symBinAddr: 0x10007549C, symSize: 0x650 }
  - { offsetInCU: 0x16F8B, offset: 0x46EDF, size: 0x8, addend: 0x0, symName: __ZN5ImGui20DebugStartItemPickerEv, symObjAddr: 0x343CC, symBinAddr: 0x100075B54, symSize: 0x2C }
  - { offsetInCU: 0x16FB6, offset: 0x46F0A, size: 0x8, addend: 0x0, symName: __ZN5ImGui20DebugNodeWindowsListEP8ImVectorIP11ImGuiWindowEPKc, symObjAddr: 0x34A9C, symBinAddr: 0x100076224, symSize: 0xD0 }
  - { offsetInCU: 0x1700C, offset: 0x46F60, size: 0x8, addend: 0x0, symName: __ZN5ImGui38DebugNodeWindowsListByBeginStackParentEPP11ImGuiWindowiS1_, symObjAddr: 0x34B9C, symBinAddr: 0x100076324, symSize: 0x130 }
  - { offsetInCU: 0x1709D, offset: 0x46FF1, size: 0x8, addend: 0x0, symName: __ZN5ImGui17DebugNodeDrawListEP11ImGuiWindowPK10ImDrawListPKc, symObjAddr: 0x34D38, symBinAddr: 0x1000764C0, symSize: 0xB20 }
  - { offsetInCU: 0x172C4, offset: 0x47218, size: 0x8, addend: 0x0, symName: __ZN5ImGui17DebugNodeViewportEP14ImGuiViewportP, symObjAddr: 0x35A88, symBinAddr: 0x100077210, symSize: 0x22C }
  - { offsetInCU: 0x17345, offset: 0x47299, size: 0x8, addend: 0x0, symName: __ZN5ImGui15DebugNodeTabBarEP11ImGuiTabBarPKc, symObjAddr: 0x35D54, symBinAddr: 0x1000774DC, symSize: 0x5C0 }
  - { offsetInCU: 0x17466, offset: 0x473BA, size: 0x8, addend: 0x0, symName: __ZN5ImGui23DebugNodeWindowSettingsEP19ImGuiWindowSettings, symObjAddr: 0x36344, symBinAddr: 0x100077ACC, symSize: 0xA0 }
  - { offsetInCU: 0x17490, offset: 0x473E4, size: 0x8, addend: 0x0, symName: __ZN5ImGui21GetForegroundDrawListEP11ImGuiWindow, symObjAddr: 0x36730, symBinAddr: 0x100077EB8, symSize: 0x20 }
  - { offsetInCU: 0x174BE, offset: 0x47412, size: 0x8, addend: 0x0, symName: __ZN5ImGui16DebugNodeColumnsEP15ImGuiOldColumns, symObjAddr: 0x36750, symBinAddr: 0x100077ED8, symSize: 0x178 }
  - { offsetInCU: 0x17505, offset: 0x47459, size: 0x8, addend: 0x0, symName: __ZN5ImGui38DebugNodeDrawCmdShowMeshAndBoundingBoxEP10ImDrawListPKS0_PK9ImDrawCmdbb, symObjAddr: 0x369FC, symBinAddr: 0x100078184, symSize: 0x39C }
  - { offsetInCU: 0x17627, offset: 0x4757B, size: 0x8, addend: 0x0, symName: __ZN5ImGui18DebugNodeFontGlyphEP6ImFontPK11ImFontGlyph, symObjAddr: 0x36F04, symBinAddr: 0x10007868C, symSize: 0x130 }
  - { offsetInCU: 0x1765C, offset: 0x475B0, size: 0x8, addend: 0x0, symName: __ZN5ImGui16DebugNodeStorageEP12ImGuiStoragePKc, symObjAddr: 0x37034, symBinAddr: 0x1000787BC, symSize: 0x104 }
  - { offsetInCU: 0x176CF, offset: 0x47623, size: 0x8, addend: 0x0, symName: __ZN5ImGui15DebugNodeWindowEP11ImGuiWindowPKc, symObjAddr: 0x372A8, symBinAddr: 0x100078A30, symSize: 0x8E8 }
  - { offsetInCU: 0x177AD, offset: 0x47701, size: 0x8, addend: 0x0, symName: __ZN5ImGui9DebugLogVEPKcPc, symObjAddr: 0x37C38, symBinAddr: 0x1000793C0, symSize: 0xD4 }
  - { offsetInCU: 0x17804, offset: 0x47758, size: 0x8, addend: 0x0, symName: __ZN5ImGuiL34RenderDimmedBackgroundBehindWindowEP11ImGuiWindowj, symObjAddr: 0x3CDC8, symBinAddr: 0x10007E550, symSize: 0x1B8 }
  - { offsetInCU: 0x17888, offset: 0x477DC, size: 0x8, addend: 0x0, symName: __ZN5ImGuiL24RenderWindowOuterBordersEP11ImGuiWindow, symObjAddr: 0x3E274, symBinAddr: 0x10007F9FC, symSize: 0x424 }
  - { offsetInCU: 0x1793A, offset: 0x4788E, size: 0x8, addend: 0x0, symName: __ZN5ImGuiL31NavProcessItemForTabbingRequestEj, symObjAddr: 0x3EA38, symBinAddr: 0x1000801C0, symSize: 0x1CC }
  - { offsetInCU: 0x17983, offset: 0x478D7, size: 0x8, addend: 0x0, symName: __ZN5ImGuiL12NavScoreItemEP16ImGuiNavItemData, symObjAddr: 0x3EC04, symBinAddr: 0x10008038C, symSize: 0x65C }
  - { offsetInCU: 0x17AA6, offset: 0x479FA, size: 0x8, addend: 0x0, symName: __ZN5ImGuiL35NavSaveLastChildNavWindowIntoParentEP11ImGuiWindow, symObjAddr: 0x3F430, symBinAddr: 0x100080BB8, symSize: 0xD0 }
  - { offsetInCU: 0x17AE0, offset: 0x47A34, size: 0x8, addend: 0x0, symName: __ZN5ImGuiL18NavUpdateWindowingEv, symObjAddr: 0x3F500, symBinAddr: 0x100080C88, symSize: 0xCD0 }
  - { offsetInCU: 0x17C60, offset: 0x47BB4, size: 0x8, addend: 0x0, symName: __ZN5ImGuiL22NavUpdateCancelRequestEv, symObjAddr: 0x401D0, symBinAddr: 0x100081958, symSize: 0x2F8 }
  - { offsetInCU: 0x17CC6, offset: 0x47C1A, size: 0x8, addend: 0x0, symName: __ZN5ImGui14IsNavInputTestEi16ImGuiNavReadMode, symObjAddr: 0x404C8, symBinAddr: 0x100081C50, symSize: 0x38 }
  - { offsetInCU: 0x17D03, offset: 0x47C57, size: 0x8, addend: 0x0, symName: __ZN5ImGuiL26NavUpdateCreateMoveRequestEv, symObjAddr: 0x40500, symBinAddr: 0x100081C88, symSize: 0x9B8 }
  - { offsetInCU: 0x17E22, offset: 0x47D76, size: 0x8, addend: 0x0, symName: __ZN5ImGuiL29NavUpdateCreateTabbingRequestEv, symObjAddr: 0x40EB8, symBinAddr: 0x100082640, symSize: 0x1FC }
  - { offsetInCU: 0x17E89, offset: 0x47DDD, size: 0x8, addend: 0x0, symName: __ZN5ImGuiL15NavRestoreLayerE13ImGuiNavLayer, symObjAddr: 0x4130C, symBinAddr: 0x100082A94, symSize: 0x14C }
  - { offsetInCU: 0x17EEF, offset: 0x47E43, size: 0x8, addend: 0x0, symName: __ZN5ImGui23IsActiveIdUsingNavInputEi, symObjAddr: 0x41458, symBinAddr: 0x100082BE0, symSize: 0x3C }
  - { offsetInCU: 0x17F2D, offset: 0x47E81, size: 0x8, addend: 0x0, symName: __ZN5ImGui21IsActiveIdUsingNavDirEi, symObjAddr: 0x41494, symBinAddr: 0x100082C1C, symSize: 0x3C }
  - { offsetInCU: 0x17F6B, offset: 0x47EBF, size: 0x8, addend: 0x0, symName: __ZN5ImGuiL23NavUpdatePageUpPageDownEv, symObjAddr: 0x414D0, symBinAddr: 0x100082C58, symSize: 0x510 }
  - { offsetInCU: 0x18020, offset: 0x47F74, size: 0x8, addend: 0x0, symName: __ZN5ImGui18IsActiveIdUsingKeyEi, symObjAddr: 0x41A74, symBinAddr: 0x1000831FC, symSize: 0x40 }
  - { offsetInCU: 0x1805D, offset: 0x47FB1, size: 0x8, addend: 0x0, symName: __ZN5ImGuiL25NavUpdateWindowingOverlayEv, symObjAddr: 0x41AB4, symBinAddr: 0x10008323C, symSize: 0x2E4 }
  - { offsetInCU: 0x180E2, offset: 0x48036, size: 0x8, addend: 0x0, symName: __ZN5ImGuiL30NavUpdateCreateWrappingRequestEv, symObjAddr: 0x41D98, symBinAddr: 0x100083520, symSize: 0x2F4 }
  - { offsetInCU: 0x18158, offset: 0x480AC, size: 0x8, addend: 0x0, symName: __ZN5ImGui20TableGetInstanceDataEP10ImGuiTablei, symObjAddr: 0x424FC, symBinAddr: 0x100083C84, symSize: 0x64 }
  - { offsetInCU: 0x181BB, offset: 0x4810F, size: 0x8, addend: 0x0, symName: __ZL17GCrc32LookupTable, symObjAddr: 0x4B7A0, symBinAddr: 0x10015B7B0, symSize: 0x0 }
  - { offsetInCU: 0x181E9, offset: 0x4813D, size: 0x8, addend: 0x0, symName: __ZL13GStyleVarInfo, symObjAddr: 0x4BC20, symBinAddr: 0x10015BC30, symSize: 0x0 }
  - { offsetInCU: 0x1826C, offset: 0x481C0, size: 0x8, addend: 0x0, symName: __ZL21GImAllocatorAllocFunc, symObjAddr: 0x4BE20, symBinAddr: 0x100172058, symSize: 0x0 }
  - { offsetInCU: 0x182A7, offset: 0x481FB, size: 0x8, addend: 0x0, symName: __ZL20GImAllocatorUserData, symObjAddr: 0xE2260, symBinAddr: 0x100180810, symSize: 0x0 }
  - { offsetInCU: 0x182C2, offset: 0x48216, size: 0x8, addend: 0x0, symName: __ZL20GImAllocatorFreeFunc, symObjAddr: 0x4BE28, symBinAddr: 0x100172060, symSize: 0x0 }
  - { offsetInCU: 0x1831E, offset: 0x48272, size: 0x8, addend: 0x0, symName: __ZL15resize_grip_def, symObjAddr: 0x4BD4C, symBinAddr: 0x10015BD5C, symSize: 0x0 }
  - { offsetInCU: 0x18389, offset: 0x482DD, size: 0x8, addend: 0x0, symName: __ZL17resize_border_def, symObjAddr: 0x4BDAC, symBinAddr: 0x10015BDBC, symSize: 0x0 }
  - { offsetInCU: 0x183F4, offset: 0x48348, size: 0x8, addend: 0x0, symName: __ZL9GKeyNames, symObjAddr: 0x4BED0, symBinAddr: 0x10016E268, symSize: 0x0 }
  - { offsetInCU: 0x18B61, offset: 0x48AB5, size: 0x8, addend: 0x0, symName: __ZN10ImGuiStyleC2Ev, symObjAddr: 0x0, symBinAddr: 0x100041794, symSize: 0x340 }
  - { offsetInCU: 0x18B8D, offset: 0x48AE1, size: 0x8, addend: 0x0, symName: __ZN6ImVec2C1Ev, symObjAddr: 0x340, symBinAddr: 0x100041AD4, symSize: 0x2C }
  - { offsetInCU: 0x18BB5, offset: 0x48B09, size: 0x8, addend: 0x0, symName: __ZN6ImVec4C1Ev, symObjAddr: 0x36C, symBinAddr: 0x100041B00, symSize: 0x2C }
  - { offsetInCU: 0x18BDD, offset: 0x48B31, size: 0x8, addend: 0x0, symName: __ZN6ImVec2C1Eff, symObjAddr: 0x398, symBinAddr: 0x100041B2C, symSize: 0x3C }
  - { offsetInCU: 0x18C21, offset: 0x48B75, size: 0x8, addend: 0x0, symName: __ZN10ImGuiStyleC1Ev, symObjAddr: 0x3D4, symBinAddr: 0x100041B68, symSize: 0x2C }
  - { offsetInCU: 0x18C4D, offset: 0x48BA1, size: 0x8, addend: 0x0, symName: __ZN10ImGuiStyle13ScaleAllSizesEf, symObjAddr: 0x400, symBinAddr: 0x100041B94, symSize: 0x368 }
  - { offsetInCU: 0x18C84, offset: 0x48BD8, size: 0x8, addend: 0x0, symName: __ZL7ImFloorRK6ImVec2, symObjAddr: 0x768, symBinAddr: 0x100041EFC, symSize: 0x4C }
  - { offsetInCU: 0x18CB3, offset: 0x48C07, size: 0x8, addend: 0x0, symName: __ZmlRK6ImVec2f, symObjAddr: 0x7B4, symBinAddr: 0x100041F48, symSize: 0x50 }
  - { offsetInCU: 0x18CF1, offset: 0x48C45, size: 0x8, addend: 0x0, symName: __ZL7ImFloorf, symObjAddr: 0x804, symBinAddr: 0x100041F98, symSize: 0x1C }
  - { offsetInCU: 0x18D20, offset: 0x48C74, size: 0x8, addend: 0x0, symName: __ZN7ImGuiIOC2Ev, symObjAddr: 0x820, symBinAddr: 0x100041FB4, symSize: 0x3FC }
  - { offsetInCU: 0x18DC0, offset: 0x48D14, size: 0x8, addend: 0x0, symName: __ZN8ImVectorItEC1Ev, symObjAddr: 0xC1C, symBinAddr: 0x1000423B0, symSize: 0x2C }
  - { offsetInCU: 0x18DE8, offset: 0x48D3C, size: 0x8, addend: 0x0, symName: __ZL30GetClipboardTextFn_DefaultImplPv, symObjAddr: 0xC48, symBinAddr: 0x1000423DC, symSize: 0x68 }
  - { offsetInCU: 0x18E22, offset: 0x48D76, size: 0x8, addend: 0x0, symName: __ZL30SetClipboardTextFn_DefaultImplPvPKc, symObjAddr: 0xCB0, symBinAddr: 0x100042444, symSize: 0xC8 }
  - { offsetInCU: 0x18E76, offset: 0x48DCA, size: 0x8, addend: 0x0, symName: __ZL32SetPlatformImeDataFn_DefaultImplP13ImGuiViewportP20ImGuiPlatformImeData, symObjAddr: 0xD78, symBinAddr: 0x10004250C, symSize: 0x14 }
  - { offsetInCU: 0x18EA8, offset: 0x48DFC, size: 0x8, addend: 0x0, symName: __ZN8ImVectorItED1Ev, symObjAddr: 0xD8C, symBinAddr: 0x100042520, symSize: 0x2C }
  - { offsetInCU: 0x18ED0, offset: 0x48E24, size: 0x8, addend: 0x0, symName: __ZN7ImGuiIOC1Ev, symObjAddr: 0xDB8, symBinAddr: 0x10004254C, symSize: 0x2C }
  - { offsetInCU: 0x18EFC, offset: 0x48E50, size: 0x8, addend: 0x0, symName: __ZN7ImGuiIO17AddInputCharacterEj, symObjAddr: 0xDE4, symBinAddr: 0x100042578, symSize: 0xFC }
  - { offsetInCU: 0x18F51, offset: 0x48EA5, size: 0x8, addend: 0x0, symName: __ZN15ImGuiInputEventC1Ev, symObjAddr: 0xEE0, symBinAddr: 0x100042674, symSize: 0x2C }
  - { offsetInCU: 0x18F79, offset: 0x48ECD, size: 0x8, addend: 0x0, symName: __ZN8ImVectorI15ImGuiInputEventE9push_backERKS0_, symObjAddr: 0xF0C, symBinAddr: 0x1000426A0, symSize: 0x98 }
  - { offsetInCU: 0x18FAD, offset: 0x48F01, size: 0x8, addend: 0x0, symName: __ZN7ImGuiIO22AddInputCharacterUTF16Et, symObjAddr: 0xFA4, symBinAddr: 0x100042738, symSize: 0x154 }
  - { offsetInCU: 0x18FF3, offset: 0x48F47, size: 0x8, addend: 0x0, symName: __ZN7ImGuiIO22AddInputCharactersUTF8EPKc, symObjAddr: 0x10F8, symBinAddr: 0x10004288C, symSize: 0xA4 }
  - { offsetInCU: 0x19047, offset: 0x48F9B, size: 0x8, addend: 0x0, symName: __ZN7ImGuiIO20ClearInputCharactersEv, symObjAddr: 0x1500, symBinAddr: 0x100042C94, symSize: 0x30 }
  - { offsetInCU: 0x1906F, offset: 0x48FC3, size: 0x8, addend: 0x0, symName: __ZN8ImVectorItE6resizeEi, symObjAddr: 0x1530, symBinAddr: 0x100042CC4, symSize: 0x68 }
  - { offsetInCU: 0x190A3, offset: 0x48FF7, size: 0x8, addend: 0x0, symName: __ZN7ImGuiIO14ClearInputKeysEv, symObjAddr: 0x1598, symBinAddr: 0x100042D2C, symSize: 0x10C }
  - { offsetInCU: 0x19105, offset: 0x49059, size: 0x8, addend: 0x0, symName: __ZN7ImGuiIO17AddKeyAnalogEventEibf, symObjAddr: 0x16A4, symBinAddr: 0x100042E38, symSize: 0x400 }
  - { offsetInCU: 0x191DE, offset: 0x49132, size: 0x8, addend: 0x0, symName: __ZN8ImVectorI15ImGuiInputEventEixEi, symObjAddr: 0x1C38, symBinAddr: 0x1000433CC, symSize: 0xA8 }
  - { offsetInCU: 0x19212, offset: 0x49166, size: 0x8, addend: 0x0, symName: __ZN7ImGuiIO11AddKeyEventEib, symObjAddr: 0x1CE0, symBinAddr: 0x100043474, symSize: 0x7C }
  - { offsetInCU: 0x19258, offset: 0x491AC, size: 0x8, addend: 0x0, symName: __ZN7ImGuiIO21SetKeyEventNativeDataEiiii, symObjAddr: 0x1D5C, symBinAddr: 0x1000434F0, symSize: 0x150 }
  - { offsetInCU: 0x192CB, offset: 0x4921F, size: 0x8, addend: 0x0, symName: __ZN7ImGuiIO21SetAppAcceptingEventsEb, symObjAddr: 0x1EF4, symBinAddr: 0x100043688, symSize: 0x30 }
  - { offsetInCU: 0x19302, offset: 0x49256, size: 0x8, addend: 0x0, symName: __ZN7ImGuiIO16AddMousePosEventEff, symObjAddr: 0x1F24, symBinAddr: 0x1000436B8, symSize: 0xF0 }
  - { offsetInCU: 0x19366, offset: 0x492BA, size: 0x8, addend: 0x0, symName: __ZN7ImGuiIO19AddMouseButtonEventEib, symObjAddr: 0x2014, symBinAddr: 0x1000437A8, symSize: 0x160 }
  - { offsetInCU: 0x193CA, offset: 0x4931E, size: 0x8, addend: 0x0, symName: __ZN7ImGuiIO18AddMouseWheelEventEff, symObjAddr: 0x2174, symBinAddr: 0x100043908, symSize: 0x11C }
  - { offsetInCU: 0x1942E, offset: 0x49382, size: 0x8, addend: 0x0, symName: __ZN7ImGuiIO13AddFocusEventEb, symObjAddr: 0x2290, symBinAddr: 0x100043A24, symSize: 0xC8 }
  - { offsetInCU: 0x19483, offset: 0x493D7, size: 0x8, addend: 0x0, symName: __Z25ImBezierCubicClosestPointRK6ImVec2S1_S1_S1_S1_i, symObjAddr: 0x2358, symBinAddr: 0x100043AEC, symSize: 0x174 }
  - { offsetInCU: 0x19590, offset: 0x494E4, size: 0x8, addend: 0x0, symName: __Z18ImLineClosestPointRK6ImVec2S1_S1_, symObjAddr: 0x24CC, symBinAddr: 0x100043C60, symSize: 0x120 }
  - { offsetInCU: 0x19618, offset: 0x4956C, size: 0x8, addend: 0x0, symName: __ZL11ImLengthSqrRK6ImVec2, symObjAddr: 0x25EC, symBinAddr: 0x100043D80, symSize: 0x38 }
  - { offsetInCU: 0x19647, offset: 0x4959B, size: 0x8, addend: 0x0, symName: __ZmiRK6ImVec2S1_, symObjAddr: 0x2624, symBinAddr: 0x100043DB8, symSize: 0x58 }
  - { offsetInCU: 0x19685, offset: 0x495D9, size: 0x8, addend: 0x0, symName: __Z34ImBezierCubicClosestPointCasteljauRK6ImVec2S1_S1_S1_S1_f, symObjAddr: 0x267C, symBinAddr: 0x100043E10, symSize: 0x100 }
  - { offsetInCU: 0x1972B, offset: 0x4967F, size: 0x8, addend: 0x0, symName: __ZL38ImBezierCubicClosestPointCasteljauStepRK6ImVec2RS_S2_Rffffffffffi, symObjAddr: 0x277C, symBinAddr: 0x100043F10, symSize: 0x3E4 }
  - { offsetInCU: 0x19962, offset: 0x498B6, size: 0x8, addend: 0x0, symName: __ZplRK6ImVec2S1_, symObjAddr: 0x2B60, symBinAddr: 0x1000442F4, symSize: 0x58 }
  - { offsetInCU: 0x199A0, offset: 0x498F4, size: 0x8, addend: 0x0, symName: __ZdvRK6ImVec2f, symObjAddr: 0x2BB8, symBinAddr: 0x10004434C, symSize: 0x50 }
  - { offsetInCU: 0x199DE, offset: 0x49932, size: 0x8, addend: 0x0, symName: __Z23ImTriangleContainsPointRK6ImVec2S1_S1_S1_, symObjAddr: 0x2C08, symBinAddr: 0x10004439C, symSize: 0x1A8 }
  - { offsetInCU: 0x19A67, offset: 0x499BB, size: 0x8, addend: 0x0, symName: __Z27ImTriangleBarycentricCoordsRK6ImVec2S1_S1_S1_RfS2_S2_, symObjAddr: 0x2DB0, symBinAddr: 0x100044544, symSize: 0x100 }
  - { offsetInCU: 0x19B27, offset: 0x49A7B, size: 0x8, addend: 0x0, symName: __Z22ImTriangleClosestPointRK6ImVec2S1_S1_S1_, symObjAddr: 0x2EB0, symBinAddr: 0x100044644, symSize: 0x168 }
  - { offsetInCU: 0x19BED, offset: 0x49B41, size: 0x8, addend: 0x0, symName: __ZL5ImMinIfET_S0_S0_, symObjAddr: 0x3018, symBinAddr: 0x1000447AC, symSize: 0x48 }
  - { offsetInCU: 0x19C34, offset: 0x49B88, size: 0x8, addend: 0x0, symName: __Z9ImStricmpPKcS0_, symObjAddr: 0x3060, symBinAddr: 0x1000447F4, symSize: 0xAC }
  - { offsetInCU: 0x19C80, offset: 0x49BD4, size: 0x8, addend: 0x0, symName: __Z7toupperi, symObjAddr: 0x310C, symBinAddr: 0x1000448A0, symSize: 0x24 }
  - { offsetInCU: 0x19CAE, offset: 0x49C02, size: 0x8, addend: 0x0, symName: __Z10ImStrnicmpPKcS0_m, symObjAddr: 0x3130, symBinAddr: 0x1000448C4, symSize: 0xDC }
  - { offsetInCU: 0x19D09, offset: 0x49C5D, size: 0x8, addend: 0x0, symName: __Z9ImStrncpyPcPKcm, symObjAddr: 0x320C, symBinAddr: 0x1000449A0, symSize: 0x80 }
  - { offsetInCU: 0x19D51, offset: 0x49CA5, size: 0x8, addend: 0x0, symName: __Z8ImStrdupPKc, symObjAddr: 0x328C, symBinAddr: 0x100044A20, symSize: 0x54 }
  - { offsetInCU: 0x19D9D, offset: 0x49CF1, size: 0x8, addend: 0x0, symName: __Z11ImStrdupcpyPcPmPKc, symObjAddr: 0x3348, symBinAddr: 0x100044ADC, symSize: 0xE0 }
  - { offsetInCU: 0x19E07, offset: 0x49D5B, size: 0x8, addend: 0x0, symName: __Z13ImStrchrRangePKcS0_c, symObjAddr: 0x34A8, symBinAddr: 0x100044C3C, symSize: 0x44 }
  - { offsetInCU: 0x19E62, offset: 0x49DB6, size: 0x8, addend: 0x0, symName: __Z6memchrB8ue170006Ua9enable_ifIXLb1EEEPKvim, symObjAddr: 0x34EC, symBinAddr: 0x100044C80, symSize: 0x34 }
  - { offsetInCU: 0x19EAA, offset: 0x49DFE, size: 0x8, addend: 0x0, symName: __Z9ImStrlenWPKt, symObjAddr: 0x3520, symBinAddr: 0x100044CB4, symSize: 0x4C }
  - { offsetInCU: 0x19EE8, offset: 0x49E3C, size: 0x8, addend: 0x0, symName: __Z13ImStreolRangePKcS0_, symObjAddr: 0x356C, symBinAddr: 0x100044D00, symSize: 0x6C }
  - { offsetInCU: 0x19F34, offset: 0x49E88, size: 0x8, addend: 0x0, symName: __Z9ImStrbolWPKtS0_, symObjAddr: 0x35D8, symBinAddr: 0x100044D6C, symSize: 0x70 }
  - { offsetInCU: 0x19F72, offset: 0x49EC6, size: 0x8, addend: 0x0, symName: __Z9ImStristrPKcS0_S0_S0_, symObjAddr: 0x3648, symBinAddr: 0x100044DDC, symSize: 0x1E0 }
  - { offsetInCU: 0x1A016, offset: 0x49F6A, size: 0x8, addend: 0x0, symName: __Z15ImStrTrimBlanksPc, symObjAddr: 0x3828, symBinAddr: 0x100044FBC, symSize: 0x180 }
  - { offsetInCU: 0x1A05E, offset: 0x49FB2, size: 0x8, addend: 0x0, symName: __Z14ImStrSkipBlankPKc, symObjAddr: 0x39A8, symBinAddr: 0x10004513C, symSize: 0x6C }
  - { offsetInCU: 0x1A08D, offset: 0x49FE1, size: 0x8, addend: 0x0, symName: __Z14ImFormatStringPcmPKcz, symObjAddr: 0x3A14, symBinAddr: 0x1000451A8, symSize: 0xC4 }
  - { offsetInCU: 0x1A0F8, offset: 0x4A04C, size: 0x8, addend: 0x0, symName: __Z15ImFormatStringVPcmPKcS_, symObjAddr: 0x3AD8, symBinAddr: 0x10004526C, symSize: 0xBC }
  - { offsetInCU: 0x1A162, offset: 0x4A0B6, size: 0x8, addend: 0x0, symName: __Z26ImFormatStringToTempBufferPPKcS1_S0_z, symObjAddr: 0x3B94, symBinAddr: 0x100045328, symSize: 0xA0 }
  - { offsetInCU: 0x1A1D8, offset: 0x4A12C, size: 0x8, addend: 0x0, symName: __Z27ImFormatStringToTempBufferVPPKcS1_S0_Pc, symObjAddr: 0x3C34, symBinAddr: 0x1000453C8, symSize: 0x98 }
  - { offsetInCU: 0x1A24D, offset: 0x4A1A1, size: 0x8, addend: 0x0, symName: __Z10ImHashDataPKvmj, symObjAddr: 0x3CCC, symBinAddr: 0x100045460, symSize: 0x90 }
  - { offsetInCU: 0x1A2C7, offset: 0x4A21B, size: 0x8, addend: 0x0, symName: __Z9ImHashStrPKcmj, symObjAddr: 0x3D5C, symBinAddr: 0x1000454F0, symSize: 0x1C0 }
  - { offsetInCU: 0x1A37B, offset: 0x4A2CF, size: 0x8, addend: 0x0, symName: __Z10ImFileOpenPKcS0_, symObjAddr: 0x3F1C, symBinAddr: 0x1000456B0, symSize: 0x2C }
  - { offsetInCU: 0x1A3B8, offset: 0x4A30C, size: 0x8, addend: 0x0, symName: __Z11ImFileCloseP7__sFILE, symObjAddr: 0x3F48, symBinAddr: 0x1000456DC, symSize: 0x30 }
  - { offsetInCU: 0x1A3E6, offset: 0x4A33A, size: 0x8, addend: 0x0, symName: __Z13ImFileGetSizeP7__sFILE, symObjAddr: 0x3F78, symBinAddr: 0x10004570C, symSize: 0xB8 }
  - { offsetInCU: 0x1A432, offset: 0x4A386, size: 0x8, addend: 0x0, symName: __Z10ImFileReadPvyyP7__sFILE, symObjAddr: 0x4030, symBinAddr: 0x1000457C4, symSize: 0x3C }
  - { offsetInCU: 0x1A48D, offset: 0x4A3E1, size: 0x8, addend: 0x0, symName: __Z11ImFileWritePKvyyP7__sFILE, symObjAddr: 0x406C, symBinAddr: 0x100045800, symSize: 0x3C }
  - { offsetInCU: 0x1A4E8, offset: 0x4A43C, size: 0x8, addend: 0x0, symName: __Z18ImFileLoadToMemoryPKcS0_Pmi, symObjAddr: 0x40A8, symBinAddr: 0x10004583C, symSize: 0x1E4 }
  - { offsetInCU: 0x1A570, offset: 0x4A4C4, size: 0x8, addend: 0x0, symName: __ZL5ImMinIiET_S0_S0_, symObjAddr: 0x428C, symBinAddr: 0x100045A20, symSize: 0x48 }
  - { offsetInCU: 0x1A5B7, offset: 0x4A50B, size: 0x8, addend: 0x0, symName: __Z17ImTextStrFromUtf8PtiPKcS1_PS1_, symObjAddr: 0x42D4, symBinAddr: 0x100045A68, symSize: 0x154 }
  - { offsetInCU: 0x1A65C, offset: 0x4A5B0, size: 0x8, addend: 0x0, symName: __Z24ImTextCountCharsFromUtf8PKcS0_, symObjAddr: 0x4428, symBinAddr: 0x100045BBC, symSize: 0xC8 }
  - { offsetInCU: 0x1A6C5, offset: 0x4A619, size: 0x8, addend: 0x0, symName: __Z16ImTextCharToUtf8Pcj, symObjAddr: 0x44F0, symBinAddr: 0x100045C84, symSize: 0x48 }
  - { offsetInCU: 0x1A711, offset: 0x4A665, size: 0x8, addend: 0x0, symName: __ZL23ImTextCharToUtf8_inlinePcij, symObjAddr: 0x4538, symBinAddr: 0x100045CCC, symSize: 0x1C4 }
  - { offsetInCU: 0x1A75E, offset: 0x4A6B2, size: 0x8, addend: 0x0, symName: __Z28ImTextCountUtf8BytesFromCharPKcS0_, symObjAddr: 0x46FC, symBinAddr: 0x100045E90, symSize: 0x34 }
  - { offsetInCU: 0x1A7AA, offset: 0x4A6FE, size: 0x8, addend: 0x0, symName: __Z15ImTextStrToUtf8PciPKtS1_, symObjAddr: 0x4730, symBinAddr: 0x100045EC4, symSize: 0x14C }
  - { offsetInCU: 0x1A840, offset: 0x4A794, size: 0x8, addend: 0x0, symName: __Z27ImTextCountUtf8BytesFromStrPKtS0_, symObjAddr: 0x487C, symBinAddr: 0x100046010, symSize: 0xD8 }
  - { offsetInCU: 0x1A8A9, offset: 0x4A7FD, size: 0x8, addend: 0x0, symName: __ZL28ImTextCountUtf8BytesFromCharj, symObjAddr: 0x4954, symBinAddr: 0x1000460E8, symSize: 0xA0 }
  - { offsetInCU: 0x1A8D8, offset: 0x4A82C, size: 0x8, addend: 0x0, symName: __Z18ImAlphaBlendColorsjj, symObjAddr: 0x49F4, symBinAddr: 0x100046188, symSize: 0xC8 }
  - { offsetInCU: 0x1A951, offset: 0x4A8A5, size: 0x8, addend: 0x0, symName: __ZL6ImLerpIiET_S0_S0_f, symObjAddr: 0x4ABC, symBinAddr: 0x100046250, symSize: 0x3C }
  - { offsetInCU: 0x1A9A7, offset: 0x4A8FB, size: 0x8, addend: 0x0, symName: __ZN6ImVec4C1Effff, symObjAddr: 0x4B9C, symBinAddr: 0x100046330, symSize: 0x4C }
  - { offsetInCU: 0x1AA0B, offset: 0x4A95F, size: 0x8, addend: 0x0, symName: __ZL10ImSaturatef, symObjAddr: 0x4CB0, symBinAddr: 0x100046444, symSize: 0x70 }
  - { offsetInCU: 0x1AA3A, offset: 0x4A98E, size: 0x8, addend: 0x0, symName: __ZL6ImSwapIfEvRT_S1_, symObjAddr: 0x4E70, symBinAddr: 0x100046604, symSize: 0x3C }
  - { offsetInCU: 0x1AA8C, offset: 0x4A9E0, size: 0x8, addend: 0x0, symName: __ZN12ImGuiStorage14BuildSortByKeyEv, symObjAddr: 0x50E0, symBinAddr: 0x100046874, symSize: 0x38 }
  - { offsetInCU: 0x1AAD7, offset: 0x4AA2B, size: 0x8, addend: 0x0, symName: __ZL7ImQsortPvmmPFiPKvS1_E, symObjAddr: 0x5118, symBinAddr: 0x1000468AC, symSize: 0x54 }
  - { offsetInCU: 0x1AB2F, offset: 0x4AA83, size: 0x8, addend: 0x0, symName: __ZZN12ImGuiStorage14BuildSortByKeyEvEN10StaticFunc16PairComparerByIDEPKvS2_, symObjAddr: 0x516C, symBinAddr: 0x100046900, symSize: 0x78 }
  - { offsetInCU: 0x1AB66, offset: 0x4AABA, size: 0x8, addend: 0x0, symName: __ZNK12ImGuiStorage6GetIntEji, symObjAddr: 0x51E4, symBinAddr: 0x100046978, symSize: 0x9C }
  - { offsetInCU: 0x1ABBB, offset: 0x4AB0F, size: 0x8, addend: 0x0, symName: __ZL10LowerBoundR8ImVectorIN12ImGuiStorage16ImGuiStoragePairEEj, symObjAddr: 0x5280, symBinAddr: 0x100046A14, symSize: 0xE0 }
  - { offsetInCU: 0x1AC52, offset: 0x4ABA6, size: 0x8, addend: 0x0, symName: __ZNK8ImVectorIN12ImGuiStorage16ImGuiStoragePairEE3endEv, symObjAddr: 0x5360, symBinAddr: 0x100046AF4, symSize: 0x20 }
  - { offsetInCU: 0x1AC77, offset: 0x4ABCB, size: 0x8, addend: 0x0, symName: __ZNK12ImGuiStorage7GetBoolEjb, symObjAddr: 0x5380, symBinAddr: 0x100046B14, symSize: 0x58 }
  - { offsetInCU: 0x1ACBD, offset: 0x4AC11, size: 0x8, addend: 0x0, symName: __ZNK12ImGuiStorage8GetFloatEjf, symObjAddr: 0x53D8, symBinAddr: 0x100046B6C, symSize: 0x9C }
  - { offsetInCU: 0x1AD12, offset: 0x4AC66, size: 0x8, addend: 0x0, symName: __ZNK12ImGuiStorage10GetVoidPtrEj, symObjAddr: 0x5474, symBinAddr: 0x100046C08, symSize: 0x94 }
  - { offsetInCU: 0x1AD58, offset: 0x4ACAC, size: 0x8, addend: 0x0, symName: __ZN12ImGuiStorage9GetIntRefEji, symObjAddr: 0x5508, symBinAddr: 0x100046C9C, symSize: 0xB8 }
  - { offsetInCU: 0x1ADAD, offset: 0x4AD01, size: 0x8, addend: 0x0, symName: __ZN8ImVectorIN12ImGuiStorage16ImGuiStoragePairEE3endEv, symObjAddr: 0x55C0, symBinAddr: 0x100046D54, symSize: 0x20 }
  - { offsetInCU: 0x1ADD2, offset: 0x4AD26, size: 0x8, addend: 0x0, symName: __ZN8ImVectorIN12ImGuiStorage16ImGuiStoragePairEE6insertEPKS1_RS3_, symObjAddr: 0x55E0, symBinAddr: 0x100046D74, symSize: 0x178 }
  - { offsetInCU: 0x1AE24, offset: 0x4AD78, size: 0x8, addend: 0x0, symName: __ZN12ImGuiStorage16ImGuiStoragePairC1Eji, symObjAddr: 0x5758, symBinAddr: 0x100046EEC, symSize: 0x3C }
  - { offsetInCU: 0x1AE6A, offset: 0x4ADBE, size: 0x8, addend: 0x0, symName: __ZN12ImGuiStorage10GetBoolRefEjb, symObjAddr: 0x5794, symBinAddr: 0x100046F28, symSize: 0x4C }
  - { offsetInCU: 0x1AEB0, offset: 0x4AE04, size: 0x8, addend: 0x0, symName: __ZN12ImGuiStorage11GetFloatRefEjf, symObjAddr: 0x57E0, symBinAddr: 0x100046F74, symSize: 0xB8 }
  - { offsetInCU: 0x1AF05, offset: 0x4AE59, size: 0x8, addend: 0x0, symName: __ZN12ImGuiStorage16ImGuiStoragePairC1Ejf, symObjAddr: 0x5898, symBinAddr: 0x10004702C, symSize: 0x3C }
  - { offsetInCU: 0x1AF4B, offset: 0x4AE9F, size: 0x8, addend: 0x0, symName: __ZN12ImGuiStorage13GetVoidPtrRefEjPv, symObjAddr: 0x58D4, symBinAddr: 0x100047068, symSize: 0xB8 }
  - { offsetInCU: 0x1AFA0, offset: 0x4AEF4, size: 0x8, addend: 0x0, symName: __ZN12ImGuiStorage16ImGuiStoragePairC1EjPv, symObjAddr: 0x598C, symBinAddr: 0x100047120, symSize: 0x3C }
  - { offsetInCU: 0x1AFE6, offset: 0x4AF3A, size: 0x8, addend: 0x0, symName: __ZN12ImGuiStorage6SetIntEji, symObjAddr: 0x59C8, symBinAddr: 0x10004715C, symSize: 0xBC }
  - { offsetInCU: 0x1B03B, offset: 0x4AF8F, size: 0x8, addend: 0x0, symName: __ZN12ImGuiStorage7SetBoolEjb, symObjAddr: 0x5A84, symBinAddr: 0x100047218, symSize: 0x4C }
  - { offsetInCU: 0x1B081, offset: 0x4AFD5, size: 0x8, addend: 0x0, symName: __ZN12ImGuiStorage8SetFloatEjf, symObjAddr: 0x5AD0, symBinAddr: 0x100047264, symSize: 0xBC }
  - { offsetInCU: 0x1B0D6, offset: 0x4B02A, size: 0x8, addend: 0x0, symName: __ZN12ImGuiStorage10SetVoidPtrEjPv, symObjAddr: 0x5B8C, symBinAddr: 0x100047320, symSize: 0xBC }
  - { offsetInCU: 0x1B12B, offset: 0x4B07F, size: 0x8, addend: 0x0, symName: __ZN12ImGuiStorage9SetAllIntEi, symObjAddr: 0x5C48, symBinAddr: 0x1000473DC, symSize: 0x7C }
  - { offsetInCU: 0x1B17F, offset: 0x4B0D3, size: 0x8, addend: 0x0, symName: __ZN8ImVectorIN12ImGuiStorage16ImGuiStoragePairEEixEi, symObjAddr: 0x5CC4, symBinAddr: 0x100047458, symSize: 0xA0 }
  - { offsetInCU: 0x1B1B3, offset: 0x4B107, size: 0x8, addend: 0x0, symName: __ZN15ImGuiTextFilterC2EPKc, symObjAddr: 0x5D64, symBinAddr: 0x1000474F8, symSize: 0xA8 }
  - { offsetInCU: 0x1B1EE, offset: 0x4B142, size: 0x8, addend: 0x0, symName: __ZN8ImVectorIN15ImGuiTextFilter14ImGuiTextRangeEEC1Ev, symObjAddr: 0x5E0C, symBinAddr: 0x1000475A0, symSize: 0x2C }
  - { offsetInCU: 0x1B216, offset: 0x4B16A, size: 0x8, addend: 0x0, symName: __ZN15ImGuiTextFilter5BuildEv, symObjAddr: 0x5E38, symBinAddr: 0x1000475CC, symSize: 0x1D4 }
  - { offsetInCU: 0x1B287, offset: 0x4B1DB, size: 0x8, addend: 0x0, symName: __ZN8ImVectorIN15ImGuiTextFilter14ImGuiTextRangeEED1Ev, symObjAddr: 0x600C, symBinAddr: 0x1000477A0, symSize: 0x2C }
  - { offsetInCU: 0x1B2AF, offset: 0x4B203, size: 0x8, addend: 0x0, symName: __ZN15ImGuiTextFilterC1EPKc, symObjAddr: 0x6038, symBinAddr: 0x1000477CC, symSize: 0x34 }
  - { offsetInCU: 0x1B2EA, offset: 0x4B23E, size: 0x8, addend: 0x0, symName: __ZN15ImGuiTextFilter4DrawEPKcf, symObjAddr: 0x606C, symBinAddr: 0x100047800, symSize: 0x94 }
  - { offsetInCU: 0x1B33F, offset: 0x4B293, size: 0x8, addend: 0x0, symName: __ZNK15ImGuiTextFilter14ImGuiTextRange5splitEcP8ImVectorIS0_E, symObjAddr: 0x6138, symBinAddr: 0x1000478CC, symSize: 0x114 }
  - { offsetInCU: 0x1B3A3, offset: 0x4B2F7, size: 0x8, addend: 0x0, symName: __ZN8ImVectorIN15ImGuiTextFilter14ImGuiTextRangeEE6resizeEi, symObjAddr: 0x624C, symBinAddr: 0x1000479E0, symSize: 0x68 }
  - { offsetInCU: 0x1B3D7, offset: 0x4B32B, size: 0x8, addend: 0x0, symName: __ZN8ImVectorIN15ImGuiTextFilter14ImGuiTextRangeEE9push_backERKS1_, symObjAddr: 0x62B4, symBinAddr: 0x100047A48, symSize: 0x84 }
  - { offsetInCU: 0x1B40B, offset: 0x4B35F, size: 0x8, addend: 0x0, symName: __ZN15ImGuiTextFilter14ImGuiTextRangeC1EPKcS2_, symObjAddr: 0x6338, symBinAddr: 0x100047ACC, symSize: 0x3C }
  - { offsetInCU: 0x1B451, offset: 0x4B3A5, size: 0x8, addend: 0x0, symName: __ZN8ImVectorIN15ImGuiTextFilter14ImGuiTextRangeEEixEi, symObjAddr: 0x6374, symBinAddr: 0x100047B08, symSize: 0xA0 }
  - { offsetInCU: 0x1B485, offset: 0x4B3D9, size: 0x8, addend: 0x0, symName: __ZL14ImCharIsBlankAc, symObjAddr: 0x6414, symBinAddr: 0x100047BA8, symSize: 0x48 }
  - { offsetInCU: 0x1B4B4, offset: 0x4B408, size: 0x8, addend: 0x0, symName: __ZNK15ImGuiTextFilter14ImGuiTextRange5emptyEv, symObjAddr: 0x645C, symBinAddr: 0x100047BF0, symSize: 0x28 }
  - { offsetInCU: 0x1B4D9, offset: 0x4B42D, size: 0x8, addend: 0x0, symName: __ZNK15ImGuiTextFilter10PassFilterEPKcS1_, symObjAddr: 0x6484, symBinAddr: 0x100047C18, symSize: 0x1C4 }
  - { offsetInCU: 0x1B559, offset: 0x4B4AD, size: 0x8, addend: 0x0, symName: __ZNK8ImVectorIN15ImGuiTextFilter14ImGuiTextRangeEE5emptyEv, symObjAddr: 0x6648, symBinAddr: 0x100047DDC, symSize: 0x24 }
  - { offsetInCU: 0x1B57E, offset: 0x4B4D2, size: 0x8, addend: 0x0, symName: __ZNK8ImVectorIN15ImGuiTextFilter14ImGuiTextRangeEEixEi, symObjAddr: 0x666C, symBinAddr: 0x100047E00, symSize: 0xA0 }
  - { offsetInCU: 0x1B5B2, offset: 0x4B506, size: 0x8, addend: 0x0, symName: __ZN15ImGuiTextBuffer6appendEPKcS1_, symObjAddr: 0x670C, symBinAddr: 0x100047EA0, symSize: 0x174 }
  - { offsetInCU: 0x1B642, offset: 0x4B596, size: 0x8, addend: 0x0, symName: __ZN8ImVectorIcE7reserveEi, symObjAddr: 0x6880, symBinAddr: 0x100048014, symSize: 0xAC }
  - { offsetInCU: 0x1B685, offset: 0x4B5D9, size: 0x8, addend: 0x0, symName: __ZN8ImVectorIcE6resizeEi, symObjAddr: 0x692C, symBinAddr: 0x1000480C0, symSize: 0x68 }
  - { offsetInCU: 0x1B6B9, offset: 0x4B60D, size: 0x8, addend: 0x0, symName: __ZN8ImVectorIcEixEi, symObjAddr: 0x6994, symBinAddr: 0x100048128, symSize: 0xA0 }
  - { offsetInCU: 0x1B6ED, offset: 0x4B641, size: 0x8, addend: 0x0, symName: __ZN15ImGuiTextBuffer7appendfEPKcz, symObjAddr: 0x6A34, symBinAddr: 0x1000481C8, symSize: 0x3C }
  - { offsetInCU: 0x1B734, offset: 0x4B688, size: 0x8, addend: 0x0, symName: __ZN15ImGuiTextBuffer8appendfvEPKcPc, symObjAddr: 0x6A70, symBinAddr: 0x100048204, symSize: 0x158 }
  - { offsetInCU: 0x1B7D3, offset: 0x4B727, size: 0x8, addend: 0x0, symName: __ZL26GetSkipItemForListClippingv, symObjAddr: 0x6E74, symBinAddr: 0x100048608, symSize: 0x60 }
  - { offsetInCU: 0x1B802, offset: 0x4B756, size: 0x8, addend: 0x0, symName: __ZN6ImRect3AddERKS_, symObjAddr: 0x6ED4, symBinAddr: 0x100048668, symSize: 0xE8 }
  - { offsetInCU: 0x1B836, offset: 0x4B78A, size: 0x8, addend: 0x0, symName: __ZL7ImClampIiET_S0_S0_S0_, symObjAddr: 0x7040, symBinAddr: 0x1000487D4, symSize: 0x7C }
  - { offsetInCU: 0x1B88C, offset: 0x4B7E0, size: 0x8, addend: 0x0, symName: __ZN16ImGuiListClipperC2Ev, symObjAddr: 0x70BC, symBinAddr: 0x100048850, symSize: 0x28 }
  - { offsetInCU: 0x1B8B8, offset: 0x4B80C, size: 0x8, addend: 0x0, symName: __ZN16ImGuiListClipperC1Ev, symObjAddr: 0x70E4, symBinAddr: 0x100048878, symSize: 0x2C }
  - { offsetInCU: 0x1B8E4, offset: 0x4B838, size: 0x8, addend: 0x0, symName: __ZN16ImGuiListClipperD2Ev, symObjAddr: 0x7110, symBinAddr: 0x1000488A4, symSize: 0x34 }
  - { offsetInCU: 0x1B910, offset: 0x4B864, size: 0x8, addend: 0x0, symName: __ZN16ImGuiListClipper3EndEv, symObjAddr: 0x7144, symBinAddr: 0x1000488D8, symSize: 0x170 }
  - { offsetInCU: 0x1B95C, offset: 0x4B8B0, size: 0x8, addend: 0x0, symName: __ZN16ImGuiListClipperD1Ev, symObjAddr: 0x72C0, symBinAddr: 0x100048A48, symSize: 0x2C }
  - { offsetInCU: 0x1B988, offset: 0x4B8DC, size: 0x8, addend: 0x0, symName: __ZN16ImGuiListClipper5BeginEif, symObjAddr: 0x72EC, symBinAddr: 0x100048A74, symSize: 0x19C }
  - { offsetInCU: 0x1BA10, offset: 0x4B964, size: 0x8, addend: 0x0, symName: __ZN8ImVectorI20ImGuiListClipperDataE6resizeEiRKS0_, symObjAddr: 0x7488, symBinAddr: 0x100048C10, symSize: 0xEC }
  - { offsetInCU: 0x1BA70, offset: 0x4B9C4, size: 0x8, addend: 0x0, symName: __ZN20ImGuiListClipperDataC1Ev, symObjAddr: 0x7574, symBinAddr: 0x100048CFC, symSize: 0x2C }
  - { offsetInCU: 0x1BA98, offset: 0x4B9EC, size: 0x8, addend: 0x0, symName: __ZN20ImGuiListClipperDataD1Ev, symObjAddr: 0x75A0, symBinAddr: 0x100048D28, symSize: 0x2C }
  - { offsetInCU: 0x1BAC4, offset: 0x4BA18, size: 0x8, addend: 0x0, symName: __ZN8ImVectorI20ImGuiListClipperDataEixEi, symObjAddr: 0x75CC, symBinAddr: 0x100048D54, symSize: 0xA8 }
  - { offsetInCU: 0x1BAF8, offset: 0x4BA4C, size: 0x8, addend: 0x0, symName: __ZN20ImGuiListClipperData5ResetEP16ImGuiListClipper, symObjAddr: 0x7674, symBinAddr: 0x100048DFC, symSize: 0x40 }
  - { offsetInCU: 0x1BB2C, offset: 0x4BA80, size: 0x8, addend: 0x0, symName: __ZL34ImGuiListClipper_SeekCursorForItemP16ImGuiListClipperi, symObjAddr: 0x76B4, symBinAddr: 0x100048E3C, symSize: 0x84 }
  - { offsetInCU: 0x1BB84, offset: 0x4BAD8, size: 0x8, addend: 0x0, symName: __ZN16ImGuiListClipper26ForceDisplayRangeByIndicesEii, symObjAddr: 0x7738, symBinAddr: 0x100048EC0, symSize: 0x134 }
  - { offsetInCU: 0x1BBD9, offset: 0x4BB2D, size: 0x8, addend: 0x0, symName: __ZN8ImVectorI21ImGuiListClipperRangeE9push_backERKS0_, symObjAddr: 0x786C, symBinAddr: 0x100048FF4, symSize: 0x98 }
  - { offsetInCU: 0x1BC0D, offset: 0x4BB61, size: 0x8, addend: 0x0, symName: __ZN21ImGuiListClipperRange11FromIndicesEii, symObjAddr: 0x7904, symBinAddr: 0x10004908C, symSize: 0x98 }
  - { offsetInCU: 0x1BC4F, offset: 0x4BBA3, size: 0x8, addend: 0x0, symName: __ZN16ImGuiListClipper4StepEv, symObjAddr: 0x799C, symBinAddr: 0x100049124, symSize: 0xCC4 }
  - { offsetInCU: 0x1BD90, offset: 0x4BCE4, size: 0x8, addend: 0x0, symName: __ZN8ImVectorI21ImGuiListClipperRangeE10push_frontERKS0_, symObjAddr: 0x8660, symBinAddr: 0x100049DE8, symSize: 0x60 }
  - { offsetInCU: 0x1BDC4, offset: 0x4BD18, size: 0x8, addend: 0x0, symName: __ZL5ImMaxIiET_S0_S0_, symObjAddr: 0x86C0, symBinAddr: 0x100049E48, symSize: 0x48 }
  - { offsetInCU: 0x1BE0B, offset: 0x4BD5F, size: 0x8, addend: 0x0, symName: __ZN8ImVectorI21ImGuiListClipperRangeEixEi, symObjAddr: 0x8708, symBinAddr: 0x100049E90, symSize: 0xA8 }
  - { offsetInCU: 0x1BE3F, offset: 0x4BD93, size: 0x8, addend: 0x0, symName: __ZL40ImIsFloatAboveGuaranteedIntegerPrecisionf, symObjAddr: 0x87B0, symBinAddr: 0x100049F38, symSize: 0x58 }
  - { offsetInCU: 0x1BE6E, offset: 0x4BDC2, size: 0x8, addend: 0x0, symName: __ZN21ImGuiListClipperRange13FromPositionsEffii, symObjAddr: 0x8808, symBinAddr: 0x100049F90, symSize: 0xB4 }
  - { offsetInCU: 0x1BECE, offset: 0x4BE22, size: 0x8, addend: 0x0, symName: __ZL34ImGuiListClipper_SortAndFuseRangesR8ImVectorI21ImGuiListClipperRangeEi, symObjAddr: 0x88BC, symBinAddr: 0x10004A044, symSize: 0x2F8 }
  - { offsetInCU: 0x1BF64, offset: 0x4BEB8, size: 0x8, addend: 0x0, symName: __ZN13ImGuiColorModC1Ev, symObjAddr: 0x8E5C, symBinAddr: 0x10004A5E4, symSize: 0x2C }
  - { offsetInCU: 0x1BF90, offset: 0x4BEE4, size: 0x8, addend: 0x0, symName: __ZN8ImVectorI13ImGuiColorModE9push_backERKS0_, symObjAddr: 0x8E88, symBinAddr: 0x10004A610, symSize: 0x98 }
  - { offsetInCU: 0x1BFC4, offset: 0x4BF18, size: 0x8, addend: 0x0, symName: __ZN8ImVectorI13ImGuiColorModE4backEv, symObjAddr: 0x9040, symBinAddr: 0x10004A7C8, symSize: 0x74 }
  - { offsetInCU: 0x1BFE9, offset: 0x4BF3D, size: 0x8, addend: 0x0, symName: __ZN8ImVectorI13ImGuiColorModE8pop_backEv, symObjAddr: 0x90B4, symBinAddr: 0x10004A83C, symSize: 0x6C }
  - { offsetInCU: 0x1C00E, offset: 0x4BF62, size: 0x8, addend: 0x0, symName: __ZL15GetStyleVarInfoi, symObjAddr: 0x9200, symBinAddr: 0x10004A988, symSize: 0x94 }
  - { offsetInCU: 0x1C03D, offset: 0x4BF91, size: 0x8, addend: 0x0, symName: __ZNK17ImGuiStyleVarInfo9GetVarPtrEP10ImGuiStyle, symObjAddr: 0x9294, symBinAddr: 0x10004AA1C, symSize: 0x24 }
  - { offsetInCU: 0x1C071, offset: 0x4BFC5, size: 0x8, addend: 0x0, symName: __ZN8ImVectorI13ImGuiStyleModE9push_backERKS0_, symObjAddr: 0x92B8, symBinAddr: 0x10004AA40, symSize: 0x98 }
  - { offsetInCU: 0x1C0A5, offset: 0x4BFF9, size: 0x8, addend: 0x0, symName: __ZN13ImGuiStyleModC1Eif, symObjAddr: 0x9350, symBinAddr: 0x10004AAD8, symSize: 0x3C }
  - { offsetInCU: 0x1C0EB, offset: 0x4C03F, size: 0x8, addend: 0x0, symName: __ZN13ImGuiStyleModC1Ei6ImVec2, symObjAddr: 0x947C, symBinAddr: 0x10004AC04, symSize: 0x44 }
  - { offsetInCU: 0x1C131, offset: 0x4C085, size: 0x8, addend: 0x0, symName: __ZN8ImVectorI13ImGuiStyleModE4backEv, symObjAddr: 0x95F8, symBinAddr: 0x10004AD80, symSize: 0x74 }
  - { offsetInCU: 0x1C156, offset: 0x4C0AA, size: 0x8, addend: 0x0, symName: __ZN8ImVectorI13ImGuiStyleModE8pop_backEv, symObjAddr: 0x966C, symBinAddr: 0x10004ADF4, symSize: 0x6C }
  - { offsetInCU: 0x1C17B, offset: 0x4C0CF, size: 0x8, addend: 0x0, symName: __ZL5ImMaxIfET_S0_S0_, symObjAddr: 0xA68C, symBinAddr: 0x10004BE14, symSize: 0x48 }
  - { offsetInCU: 0x1C1C2, offset: 0x4C116, size: 0x8, addend: 0x0, symName: __ZN6ImRect8ClipWithERKS_, symObjAddr: 0xB30C, symBinAddr: 0x10004CA94, symSize: 0x68 }
  - { offsetInCU: 0x1C1F6, offset: 0x4C14A, size: 0x8, addend: 0x0, symName: __ZN6ImRect6ExpandERK6ImVec2, symObjAddr: 0xB374, symBinAddr: 0x10004CAFC, symSize: 0x68 }
  - { offsetInCU: 0x1C22A, offset: 0x4C17E, size: 0x8, addend: 0x0, symName: __ZNK6ImRect8ContainsERKS_, symObjAddr: 0xB3DC, symBinAddr: 0x10004CB64, symSize: 0xB8 }
  - { offsetInCU: 0x1C25E, offset: 0x4C1B2, size: 0x8, addend: 0x0, symName: __ZN8ImVectorIP14ImGuiViewportPEixEi, symObjAddr: 0xB90C, symBinAddr: 0x10004D094, symSize: 0xA0 }
  - { offsetInCU: 0x1C292, offset: 0x4C1E6, size: 0x8, addend: 0x0, symName: __ZN11ImGuiWindowC2EP12ImGuiContextPKc, symObjAddr: 0xB9DC, symBinAddr: 0x10004D164, symSize: 0x448 }
  - { offsetInCU: 0x1C2DC, offset: 0x4C230, size: 0x8, addend: 0x0, symName: __ZN8ImVectorIjEC1Ev, symObjAddr: 0xBE24, symBinAddr: 0x10004D5AC, symSize: 0x2C }
  - { offsetInCU: 0x1C309, offset: 0x4C25D, size: 0x8, addend: 0x0, symName: __ZN19ImGuiWindowTempDataC1Ev, symObjAddr: 0xBE50, symBinAddr: 0x10004D5D8, symSize: 0x2C }
  - { offsetInCU: 0x1C335, offset: 0x4C289, size: 0x8, addend: 0x0, symName: __ZN6ImRectC1Ev, symObjAddr: 0xBE7C, symBinAddr: 0x10004D604, symSize: 0x2C }
  - { offsetInCU: 0x1C35D, offset: 0x4C2B1, size: 0x8, addend: 0x0, symName: __ZN8ImVec2ihC1Ev, symObjAddr: 0xBEA8, symBinAddr: 0x10004D630, symSize: 0x2C }
  - { offsetInCU: 0x1C385, offset: 0x4C2D9, size: 0x8, addend: 0x0, symName: __ZN12ImGuiStorageC1Ev, symObjAddr: 0xBED4, symBinAddr: 0x10004D65C, symSize: 0x2C }
  - { offsetInCU: 0x1C3B1, offset: 0x4C305, size: 0x8, addend: 0x0, symName: __ZN8ImVectorI15ImGuiOldColumnsEC1Ev, symObjAddr: 0xBF00, symBinAddr: 0x10004D688, symSize: 0x2C }
  - { offsetInCU: 0x1C3D9, offset: 0x4C32D, size: 0x8, addend: 0x0, symName: __ZN10ImDrawListC1EPK20ImDrawListSharedData, symObjAddr: 0xBF2C, symBinAddr: 0x10004D6B4, symSize: 0x34 }
  - { offsetInCU: 0x1C410, offset: 0x4C364, size: 0x8, addend: 0x0, symName: __ZN8ImVectorIjE9push_backERKj, symObjAddr: 0xBF60, symBinAddr: 0x10004D6E8, symSize: 0x84 }
  - { offsetInCU: 0x1C444, offset: 0x4C398, size: 0x8, addend: 0x0, symName: __ZN11ImGuiWindow5GetIDEPKcS1_, symObjAddr: 0xBFE4, symBinAddr: 0x10004D76C, symSize: 0xCC }
  - { offsetInCU: 0x1C4B7, offset: 0x4C40B, size: 0x8, addend: 0x0, symName: __ZN10ImDrawListD1Ev, symObjAddr: 0xC0B0, symBinAddr: 0x10004D838, symSize: 0x2C }
  - { offsetInCU: 0x1C4DF, offset: 0x4C433, size: 0x8, addend: 0x0, symName: __ZN8ImVectorI15ImGuiOldColumnsED1Ev, symObjAddr: 0xC0DC, symBinAddr: 0x10004D864, symSize: 0x2C }
  - { offsetInCU: 0x1C507, offset: 0x4C45B, size: 0x8, addend: 0x0, symName: __ZN12ImGuiStorageD1Ev, symObjAddr: 0xC108, symBinAddr: 0x10004D890, symSize: 0x2C }
  - { offsetInCU: 0x1C533, offset: 0x4C487, size: 0x8, addend: 0x0, symName: __ZN19ImGuiWindowTempDataD1Ev, symObjAddr: 0xC134, symBinAddr: 0x10004D8BC, symSize: 0x2C }
  - { offsetInCU: 0x1C55F, offset: 0x4C4B3, size: 0x8, addend: 0x0, symName: __ZN8ImVectorIjED1Ev, symObjAddr: 0xC160, symBinAddr: 0x10004D8E8, symSize: 0x2C }
  - { offsetInCU: 0x1C587, offset: 0x4C4DB, size: 0x8, addend: 0x0, symName: __ZN11ImGuiWindowC1EP12ImGuiContextPKc, symObjAddr: 0xC18C, symBinAddr: 0x10004D914, symSize: 0x3C }
  - { offsetInCU: 0x1C5D1, offset: 0x4C525, size: 0x8, addend: 0x0, symName: __ZN11ImGuiWindowD2Ev, symObjAddr: 0xC1C8, symBinAddr: 0x10004D950, symSize: 0xD4 }
  - { offsetInCU: 0x1C5FD, offset: 0x4C551, size: 0x8, addend: 0x0, symName: __Z9IM_DELETEIcEvPT_, symObjAddr: 0xC29C, symBinAddr: 0x10004DA24, symSize: 0x3C }
  - { offsetInCU: 0x1C630, offset: 0x4C584, size: 0x8, addend: 0x0, symName: __ZN8ImVectorI15ImGuiOldColumnsE14clear_destructEv, symObjAddr: 0xC2D8, symBinAddr: 0x10004DA60, symSize: 0x80 }
  - { offsetInCU: 0x1C672, offset: 0x4C5C6, size: 0x8, addend: 0x0, symName: __ZN11ImGuiWindowD1Ev, symObjAddr: 0xC358, symBinAddr: 0x10004DAE0, symSize: 0x2C }
  - { offsetInCU: 0x1C69E, offset: 0x4C5F2, size: 0x8, addend: 0x0, symName: __ZN8ImVectorIjE4backEv, symObjAddr: 0xC384, symBinAddr: 0x10004DB0C, symSize: 0x70 }
  - { offsetInCU: 0x1C6C3, offset: 0x4C617, size: 0x8, addend: 0x0, symName: __ZN11ImGuiWindow5GetIDEPKv, symObjAddr: 0xC808, symBinAddr: 0x10004DF90, symSize: 0x98 }
  - { offsetInCU: 0x1C727, offset: 0x4C67B, size: 0x8, addend: 0x0, symName: __ZN11ImGuiWindow5GetIDEi, symObjAddr: 0xC8A0, symBinAddr: 0x10004E028, symSize: 0x98 }
  - { offsetInCU: 0x1C78B, offset: 0x4C6DF, size: 0x8, addend: 0x0, symName: __ZN11ImGuiWindow18GetIDFromRectangleERK6ImRect, symObjAddr: 0xC938, symBinAddr: 0x10004E0C0, symSize: 0x70 }
  - { offsetInCU: 0x1C7EF, offset: 0x4C743, size: 0x8, addend: 0x0, symName: __ZN8ImVectorIiE5clearEv, symObjAddr: 0xCA74, symBinAddr: 0x10004E1FC, symSize: 0x58 }
  - { offsetInCU: 0x1C814, offset: 0x4C768, size: 0x8, addend: 0x0, symName: __ZN8ImVectorI14ImGuiGroupDataE5clearEv, symObjAddr: 0xCACC, symBinAddr: 0x10004E254, symSize: 0x58 }
  - { offsetInCU: 0x1C839, offset: 0x4C78D, size: 0x8, addend: 0x0, symName: __ZN8ImVectorIjE5clearEv, symObjAddr: 0xCBB0, symBinAddr: 0x10004E338, symSize: 0x58 }
  - { offsetInCU: 0x1C85E, offset: 0x4C7B2, size: 0x8, addend: 0x0, symName: __ZN8ImVectorIP11ImGuiWindowE5clearEv, symObjAddr: 0xCC08, symBinAddr: 0x10004E390, symSize: 0x58 }
  - { offsetInCU: 0x1C883, offset: 0x4C7D7, size: 0x8, addend: 0x0, symName: __ZN8ImVectorIfE5clearEv, symObjAddr: 0xCC60, symBinAddr: 0x10004E3E8, symSize: 0x58 }
  - { offsetInCU: 0x1C8A8, offset: 0x4C7FC, size: 0x8, addend: 0x0, symName: __ZN8ImVectorItE7reserveEi, symObjAddr: 0xCD1C, symBinAddr: 0x10004E4A4, symSize: 0xAC }
  - { offsetInCU: 0x1C8EB, offset: 0x4C83F, size: 0x8, addend: 0x0, symName: __ZN8ImVectorI10ImDrawVertE7reserveEi, symObjAddr: 0xCDC8, symBinAddr: 0x10004E550, symSize: 0xB4 }
  - { offsetInCU: 0x1C92E, offset: 0x4C882, size: 0x8, addend: 0x0, symName: __ZN10ImBitArrayILi133ELin512EE12ClearAllBitsEv, symObjAddr: 0xD214, symBinAddr: 0x10004E99C, symSize: 0x20 }
  - { offsetInCU: 0x1C953, offset: 0x4C8A7, size: 0x8, addend: 0x0, symName: __ZL24IsWindowContentHoverableP11ImGuiWindowi, symObjAddr: 0xD82C, symBinAddr: 0x10004EFB4, symSize: 0x11C }
  - { offsetInCU: 0x1C9B5, offset: 0x4C909, size: 0x8, addend: 0x0, symName: __ZNK6ImRect8OverlapsERKS_, symObjAddr: 0xDEC8, symBinAddr: 0x10004F650, symSize: 0xB8 }
  - { offsetInCU: 0x1C9E9, offset: 0x4C93D, size: 0x8, addend: 0x0, symName: __Znwm12ImNewWrapperPv, symObjAddr: 0xE2EC, symBinAddr: 0x10004FA74, symSize: 0x18 }
  - { offsetInCU: 0x1CA2E, offset: 0x4C982, size: 0x8, addend: 0x0, symName: __ZN12ImGuiContextC1EP11ImFontAtlas, symObjAddr: 0xE304, symBinAddr: 0x10004FA8C, symSize: 0x34 }
  - { offsetInCU: 0x1CA65, offset: 0x4C9B9, size: 0x8, addend: 0x0, symName: __ZdlPv12ImNewWrapperS_, symObjAddr: 0xE338, symBinAddr: 0x10004FAC0, symSize: 0x14 }
  - { offsetInCU: 0x1CAA2, offset: 0x4C9F6, size: 0x8, addend: 0x0, symName: __Z9IM_DELETEI12ImGuiContextEvPT_, symObjAddr: 0xE86C, symBinAddr: 0x10004FFF4, symSize: 0x44 }
  - { offsetInCU: 0x1CAD5, offset: 0x4CA29, size: 0x8, addend: 0x0, symName: __ZN8ImVectorI16ImGuiContextHookE9push_backERKS0_, symObjAddr: 0xE9BC, symBinAddr: 0x100050144, symSize: 0x90 }
  - { offsetInCU: 0x1CB09, offset: 0x4CA5D, size: 0x8, addend: 0x0, symName: __ZN8ImVectorI16ImGuiContextHookE4backEv, symObjAddr: 0xEA4C, symBinAddr: 0x1000501D4, symSize: 0x78 }
  - { offsetInCU: 0x1CB2E, offset: 0x4CA82, size: 0x8, addend: 0x0, symName: __ZN8ImVectorI16ImGuiContextHookEixEi, symObjAddr: 0xEBAC, symBinAddr: 0x100050334, symSize: 0xA0 }
  - { offsetInCU: 0x1CB62, offset: 0x4CAB6, size: 0x8, addend: 0x0, symName: __ZL19GetViewportDrawListP14ImGuiViewportPmPKc, symObjAddr: 0xEE6C, symBinAddr: 0x1000505F4, symSize: 0x1C4 }
  - { offsetInCU: 0x1CBCD, offset: 0x4CB21, size: 0x8, addend: 0x0, symName: __ZNK11ImGuiWindow12TitleBarRectEv, symObjAddr: 0xFE38, symBinAddr: 0x1000515C0, symSize: 0x80 }
  - { offsetInCU: 0x1CBF2, offset: 0x4CB46, size: 0x8, addend: 0x0, symName: __ZNK6ImRect8ContainsERK6ImVec2, symObjAddr: 0xFEB8, symBinAddr: 0x100051640, symSize: 0xB8 }
  - { offsetInCU: 0x1CC26, offset: 0x4CB7A, size: 0x8, addend: 0x0, symName: __ZL5ImMaxRK6ImVec2S1_, symObjAddr: 0x10A48, symBinAddr: 0x1000521D0, symSize: 0xC0 }
  - { offsetInCU: 0x1CC64, offset: 0x4CBB8, size: 0x8, addend: 0x0, symName: __ZL17FindHoveredWindowv, symObjAddr: 0x10B08, symBinAddr: 0x100052290, symSize: 0x34C }
  - { offsetInCU: 0x1CD43, offset: 0x4CC97, size: 0x8, addend: 0x0, symName: __ZN8ImVectorI16ImGuiContextHookE5eraseEPKS0_, symObjAddr: 0x11E7C, symBinAddr: 0x100053604, symSize: 0x108 }
  - { offsetInCU: 0x1CD86, offset: 0x4CCDA, size: 0x8, addend: 0x0, symName: __ZN8ImVectorIjE6resizeEi, symObjAddr: 0x12734, symBinAddr: 0x100053EBC, symSize: 0x68 }
  - { offsetInCU: 0x1CDBA, offset: 0x4CD0E, size: 0x8, addend: 0x0, symName: __ZNK6ImFont8IsLoadedEv, symObjAddr: 0x12B04, symBinAddr: 0x10005428C, symSize: 0x24 }
  - { offsetInCU: 0x1CDDF, offset: 0x4CD33, size: 0x8, addend: 0x0, symName: __ZN6ImRectC1Effff, symObjAddr: 0x12B28, symBinAddr: 0x1000542B0, symSize: 0x4C }
  - { offsetInCU: 0x1CE43, offset: 0x4CD97, size: 0x8, addend: 0x0, symName: __ZNK14ImGuiViewportP11GetMainRectEv, symObjAddr: 0x12B74, symBinAddr: 0x1000542FC, symSize: 0x58 }
  - { offsetInCU: 0x1CE68, offset: 0x4CDBC, size: 0x8, addend: 0x0, symName: __ZNK6ImRect6ToVec4Ev, symObjAddr: 0x12BCC, symBinAddr: 0x100054354, symSize: 0x48 }
  - { offsetInCU: 0x1CE8D, offset: 0x4CDE1, size: 0x8, addend: 0x0, symName: __ZN10ImDrawData5ClearEv, symObjAddr: 0x12C14, symBinAddr: 0x10005439C, symSize: 0x2C }
  - { offsetInCU: 0x1CEB2, offset: 0x4CE06, size: 0x8, addend: 0x0, symName: __ZN8ImVectorI15ImGuiInputEventE6resizeEi, symObjAddr: 0x12C40, symBinAddr: 0x1000543C8, symSize: 0x68 }
  - { offsetInCU: 0x1CEE6, offset: 0x4CE3A, size: 0x8, addend: 0x0, symName: __ZN8ImVectorIP11ImGuiWindowEixEi, symObjAddr: 0x15B74, symBinAddr: 0x1000572FC, symSize: 0xA0 }
  - { offsetInCU: 0x1CF1A, offset: 0x4CE6E, size: 0x8, addend: 0x0, symName: __ZN8ImVectorIfEixEi, symObjAddr: 0x15C14, symBinAddr: 0x10005739C, symSize: 0xA0 }
  - { offsetInCU: 0x1CF4E, offset: 0x4CEA2, size: 0x8, addend: 0x0, symName: __ZN6ImPoolI10ImGuiTableE10GetByIndexEi, symObjAddr: 0x15CB4, symBinAddr: 0x10005743C, symSize: 0x2C }
  - { offsetInCU: 0x1CF82, offset: 0x4CED6, size: 0x8, addend: 0x0, symName: __ZN8ImVectorI18ImGuiTableTempDataEixEi, symObjAddr: 0x15CE0, symBinAddr: 0x100057468, symSize: 0xA8 }
  - { offsetInCU: 0x1CFB6, offset: 0x4CF0A, size: 0x8, addend: 0x0, symName: __ZN8ImVectorI20ImGuiWindowStackDataE6resizeEi, symObjAddr: 0x15F2C, symBinAddr: 0x1000576B4, symSize: 0x68 }
  - { offsetInCU: 0x1CFEA, offset: 0x4CF3E, size: 0x8, addend: 0x0, symName: __ZN8ImVectorI14ImGuiPopupDataE6resizeEi, symObjAddr: 0x15F94, symBinAddr: 0x10005771C, symSize: 0x68 }
  - { offsetInCU: 0x1D01E, offset: 0x4CF72, size: 0x8, addend: 0x0, symName: __ZN8ImVectorIiE6resizeEi, symObjAddr: 0x15FFC, symBinAddr: 0x100057784, symSize: 0x68 }
  - { offsetInCU: 0x1D052, offset: 0x4CFA6, size: 0x8, addend: 0x0, symName: __ZN8ImVectorIiE9push_backERKi, symObjAddr: 0x16064, symBinAddr: 0x1000577EC, symSize: 0x84 }
  - { offsetInCU: 0x1D086, offset: 0x4CFDA, size: 0x8, addend: 0x0, symName: __ZN8ImVectorI14ImGuiGroupDataE6resizeEi, symObjAddr: 0x160E8, symBinAddr: 0x100057870, symSize: 0x68 }
  - { offsetInCU: 0x1D0BA, offset: 0x4D00E, size: 0x8, addend: 0x0, symName: __ZN20ImGuiSettingsHandlerC1Ev, symObjAddr: 0x19B20, symBinAddr: 0x10005B2A8, symSize: 0x2C }
  - { offsetInCU: 0x1D0E2, offset: 0x4D036, size: 0x8, addend: 0x0, symName: __ZL30WindowSettingsHandler_ClearAllP12ImGuiContextP20ImGuiSettingsHandler, symObjAddr: 0x19B4C, symBinAddr: 0x10005B2D4, symSize: 0x90 }
  - { offsetInCU: 0x1D144, offset: 0x4D098, size: 0x8, addend: 0x0, symName: __ZL30WindowSettingsHandler_ReadOpenP12ImGuiContextP20ImGuiSettingsHandlerPKc, symObjAddr: 0x19BDC, symBinAddr: 0x10005B364, symSize: 0x7C }
  - { offsetInCU: 0x1D1A7, offset: 0x4D0FB, size: 0x8, addend: 0x0, symName: __ZL30WindowSettingsHandler_ReadLineP12ImGuiContextP20ImGuiSettingsHandlerPvPKc, symObjAddr: 0x19C58, symBinAddr: 0x10005B3E0, symSize: 0x138 }
  - { offsetInCU: 0x1D233, offset: 0x4D187, size: 0x8, addend: 0x0, symName: __ZL30WindowSettingsHandler_ApplyAllP12ImGuiContextP20ImGuiSettingsHandler, symObjAddr: 0x19D90, symBinAddr: 0x10005B518, symSize: 0xC4 }
  - { offsetInCU: 0x1D2AA, offset: 0x4D1FE, size: 0x8, addend: 0x0, symName: __ZL30WindowSettingsHandler_WriteAllP12ImGuiContextP20ImGuiSettingsHandlerP15ImGuiTextBuffer, symObjAddr: 0x19E54, symBinAddr: 0x10005B5DC, symSize: 0x328 }
  - { offsetInCU: 0x1D385, offset: 0x4D2D9, size: 0x8, addend: 0x0, symName: __ZN14ImGuiViewportPC1Ev, symObjAddr: 0x1A1F8, symBinAddr: 0x10005B980, symSize: 0x2C }
  - { offsetInCU: 0x1D3AD, offset: 0x4D301, size: 0x8, addend: 0x0, symName: __ZN8ImVectorIP14ImGuiViewportPE9push_backERKS1_, symObjAddr: 0x1A224, symBinAddr: 0x10005B9AC, symSize: 0x84 }
  - { offsetInCU: 0x1D3E1, offset: 0x4D335, size: 0x8, addend: 0x0, symName: __ZN8ImVectorIcE6resizeEiRKc, symObjAddr: 0x1A2A8, symBinAddr: 0x10005BA30, symSize: 0xE4 }
  - { offsetInCU: 0x1D441, offset: 0x4D395, size: 0x8, addend: 0x0, symName: __Z9IM_DELETEI11ImFontAtlasEvPT_, symObjAddr: 0x1A38C, symBinAddr: 0x10005BB14, symSize: 0x44 }
  - { offsetInCU: 0x1D474, offset: 0x4D3C8, size: 0x8, addend: 0x0, symName: __ZN8ImVectorIP11ImGuiWindowE12clear_deleteEv, symObjAddr: 0x1A47C, symBinAddr: 0x10005BC04, symSize: 0x78 }
  - { offsetInCU: 0x1D4B6, offset: 0x4D40A, size: 0x8, addend: 0x0, symName: __ZN8ImVectorI20ImGuiWindowStackDataE5clearEv, symObjAddr: 0x1A4F4, symBinAddr: 0x10005BC7C, symSize: 0x58 }
  - { offsetInCU: 0x1D4DB, offset: 0x4D42F, size: 0x8, addend: 0x0, symName: __ZN12ImGuiStorage5ClearEv, symObjAddr: 0x1A54C, symBinAddr: 0x10005BCD4, symSize: 0x24 }
  - { offsetInCU: 0x1D500, offset: 0x4D454, size: 0x8, addend: 0x0, symName: __ZN8ImVectorI13ImGuiColorModE5clearEv, symObjAddr: 0x1A570, symBinAddr: 0x10005BCF8, symSize: 0x58 }
  - { offsetInCU: 0x1D525, offset: 0x4D479, size: 0x8, addend: 0x0, symName: __ZN8ImVectorI13ImGuiStyleModE5clearEv, symObjAddr: 0x1A5C8, symBinAddr: 0x10005BD50, symSize: 0x58 }
  - { offsetInCU: 0x1D54A, offset: 0x4D49E, size: 0x8, addend: 0x0, symName: __ZN8ImVectorIP6ImFontE5clearEv, symObjAddr: 0x1A620, symBinAddr: 0x10005BDA8, symSize: 0x58 }
  - { offsetInCU: 0x1D56F, offset: 0x4D4C3, size: 0x8, addend: 0x0, symName: __ZN8ImVectorI14ImGuiPopupDataE5clearEv, symObjAddr: 0x1A678, symBinAddr: 0x10005BE00, symSize: 0x58 }
  - { offsetInCU: 0x1D594, offset: 0x4D4E8, size: 0x8, addend: 0x0, symName: __ZN8ImVectorIP14ImGuiViewportPE12clear_deleteEv, symObjAddr: 0x1A6D0, symBinAddr: 0x10005BE58, symSize: 0x78 }
  - { offsetInCU: 0x1D5D6, offset: 0x4D52A, size: 0x8, addend: 0x0, symName: __ZN6ImPoolI11ImGuiTabBarE5ClearEv, symObjAddr: 0x1A748, symBinAddr: 0x10005BED0, symSize: 0xBC }
  - { offsetInCU: 0x1D635, offset: 0x4D589, size: 0x8, addend: 0x0, symName: __ZN8ImVectorI15ImGuiPtrOrIndexE5clearEv, symObjAddr: 0x1A804, symBinAddr: 0x10005BF8C, symSize: 0x58 }
  - { offsetInCU: 0x1D65A, offset: 0x4D5AE, size: 0x8, addend: 0x0, symName: __ZN8ImVectorI20ImGuiShrinkWidthItemE5clearEv, symObjAddr: 0x1A85C, symBinAddr: 0x10005BFE4, symSize: 0x58 }
  - { offsetInCU: 0x1D67F, offset: 0x4D5D3, size: 0x8, addend: 0x0, symName: __ZN8ImVectorI20ImGuiListClipperDataE14clear_destructEv, symObjAddr: 0x1A8B4, symBinAddr: 0x10005C03C, symSize: 0x80 }
  - { offsetInCU: 0x1D6C1, offset: 0x4D615, size: 0x8, addend: 0x0, symName: __ZN6ImPoolI10ImGuiTableE5ClearEv, symObjAddr: 0x1A934, symBinAddr: 0x10005C0BC, symSize: 0xBC }
  - { offsetInCU: 0x1D720, offset: 0x4D674, size: 0x8, addend: 0x0, symName: __ZN8ImVectorI18ImGuiTableTempDataE14clear_destructEv, symObjAddr: 0x1A9F0, symBinAddr: 0x10005C178, symSize: 0x80 }
  - { offsetInCU: 0x1D762, offset: 0x4D6B6, size: 0x8, addend: 0x0, symName: __ZN8ImVectorI13ImDrawChannelE5clearEv, symObjAddr: 0x1AA70, symBinAddr: 0x10005C1F8, symSize: 0x58 }
  - { offsetInCU: 0x1D787, offset: 0x4D6DB, size: 0x8, addend: 0x0, symName: __ZN8ImVectorIcE5clearEv, symObjAddr: 0x1AAC8, symBinAddr: 0x10005C250, symSize: 0x58 }
  - { offsetInCU: 0x1D7AC, offset: 0x4D700, size: 0x8, addend: 0x0, symName: __ZN19ImGuiInputTextState15ClearFreeMemoryEv, symObjAddr: 0x1AB20, symBinAddr: 0x10005C2A8, symSize: 0x44 }
  - { offsetInCU: 0x1D7D1, offset: 0x4D725, size: 0x8, addend: 0x0, symName: __ZN13ImChunkStreamI19ImGuiWindowSettingsE5clearEv, symObjAddr: 0x1AB64, symBinAddr: 0x10005C2EC, symSize: 0x24 }
  - { offsetInCU: 0x1D7F6, offset: 0x4D74A, size: 0x8, addend: 0x0, symName: __ZN8ImVectorI20ImGuiSettingsHandlerE5clearEv, symObjAddr: 0x1AB88, symBinAddr: 0x10005C310, symSize: 0x58 }
  - { offsetInCU: 0x1D81B, offset: 0x4D76F, size: 0x8, addend: 0x0, symName: __ZN15ImGuiTextBuffer5clearEv, symObjAddr: 0x1ABE0, symBinAddr: 0x10005C368, symSize: 0x24 }
  - { offsetInCU: 0x1D840, offset: 0x4D794, size: 0x8, addend: 0x0, symName: __ZN17ImDrawDataBuilder22FlattenIntoSingleLayerEv, symObjAddr: 0x1AC04, symBinAddr: 0x10005C38C, symSize: 0x140 }
  - { offsetInCU: 0x1D8DD, offset: 0x4D831, size: 0x8, addend: 0x0, symName: __ZN8ImVectorIP10ImDrawListE6resizeEi, symObjAddr: 0x1AD44, symBinAddr: 0x10005C4CC, symSize: 0x68 }
  - { offsetInCU: 0x1D911, offset: 0x4D865, size: 0x8, addend: 0x0, symName: __ZNK8ImVectorIP10ImDrawListE5emptyEv, symObjAddr: 0x1ADAC, symBinAddr: 0x10005C534, symSize: 0x24 }
  - { offsetInCU: 0x1D936, offset: 0x4D88A, size: 0x8, addend: 0x0, symName: __ZN8ImVectorIP10ImDrawListEixEi, symObjAddr: 0x1ADD0, symBinAddr: 0x10005C558, symSize: 0xA0 }
  - { offsetInCU: 0x1D96A, offset: 0x4D8BE, size: 0x8, addend: 0x0, symName: __ZN8ImVectorI6ImVec4E4backEv, symObjAddr: 0x1AF18, symBinAddr: 0x10005C6A0, symSize: 0x70 }
  - { offsetInCU: 0x1D98F, offset: 0x4D8E3, size: 0x8, addend: 0x0, symName: __ZN6ImRectC1ERK6ImVec4, symObjAddr: 0x1AF88, symBinAddr: 0x10005C710, symSize: 0x34 }
  - { offsetInCU: 0x1D9C6, offset: 0x4D91A, size: 0x8, addend: 0x0, symName: __ZL24IsWindowActiveAndVisibleP11ImGuiWindow, symObjAddr: 0x1B170, symBinAddr: 0x10005C8F8, symSize: 0x44 }
  - { offsetInCU: 0x1D9F5, offset: 0x4D949, size: 0x8, addend: 0x0, symName: __ZL21GetWindowDisplayLayerP11ImGuiWindow, symObjAddr: 0x1B1B4, symBinAddr: 0x10005C93C, symSize: 0x30 }
  - { offsetInCU: 0x1DA24, offset: 0x4D978, size: 0x8, addend: 0x0, symName: __ZN8ImVectorIP11ImGuiWindowE6resizeEi, symObjAddr: 0x1BDF0, symBinAddr: 0x10005D578, symSize: 0x68 }
  - { offsetInCU: 0x1DA58, offset: 0x4D9AC, size: 0x8, addend: 0x0, symName: __ZN8ImVectorIP11ImGuiWindowE7reserveEi, symObjAddr: 0x1BE58, symBinAddr: 0x10005D5E0, symSize: 0xAC }
  - { offsetInCU: 0x1DA9B, offset: 0x4D9EF, size: 0x8, addend: 0x0, symName: __ZL21AddWindowToSortBufferP8ImVectorIP11ImGuiWindowES1_, symObjAddr: 0x1BF04, symBinAddr: 0x10005D68C, symSize: 0xD8 }
  - { offsetInCU: 0x1DB2C, offset: 0x4DA80, size: 0x8, addend: 0x0, symName: __ZN8ImVectorIP11ImGuiWindowE4swapERS2_, symObjAddr: 0x1BFDC, symBinAddr: 0x10005D764, symSize: 0x78 }
  - { offsetInCU: 0x1DB8D, offset: 0x4DAE1, size: 0x8, addend: 0x0, symName: __ZN17ImDrawDataBuilder5ClearEv, symObjAddr: 0x1C548, symBinAddr: 0x10005DCD0, symSize: 0x68 }
  - { offsetInCU: 0x1DBCF, offset: 0x4DB23, size: 0x8, addend: 0x0, symName: __ZL21AddDrawListToDrawDataP8ImVectorIP10ImDrawListES1_, symObjAddr: 0x1C5B0, symBinAddr: 0x10005DD38, symSize: 0x264 }
  - { offsetInCU: 0x1DC09, offset: 0x4DB5D, size: 0x8, addend: 0x0, symName: __ZL23AddRootWindowToDrawDataP11ImGuiWindow, symObjAddr: 0x1CAF4, symBinAddr: 0x10005E27C, symSize: 0x38 }
  - { offsetInCU: 0x1DC34, offset: 0x4DB88, size: 0x8, addend: 0x0, symName: __ZL21SetupViewportDrawDataP14ImGuiViewportPP8ImVectorIP10ImDrawListE, symObjAddr: 0x1CB2C, symBinAddr: 0x10005E2B4, symSize: 0x154 }
  - { offsetInCU: 0x1DCC6, offset: 0x4DC1A, size: 0x8, addend: 0x0, symName: __ZN10ImBitArrayILi133ELin512EE10SetAllBitsEv, symObjAddr: 0x1D3AC, symBinAddr: 0x10005EB34, symSize: 0x28 }
  - { offsetInCU: 0x1DCEB, offset: 0x4DC3F, size: 0x8, addend: 0x0, symName: __ZNK6ImRect7GetSizeEv, symObjAddr: 0x1D4C0, symBinAddr: 0x10005EC48, symSize: 0x48 }
  - { offsetInCU: 0x1DD10, offset: 0x4DC64, size: 0x8, addend: 0x0, symName: __ZN6ImRectC1ERK6ImVec2S2_, symObjAddr: 0x1DEE0, symBinAddr: 0x10005F668, symSize: 0x3C }
  - { offsetInCU: 0x1DD56, offset: 0x4DCAA, size: 0x8, addend: 0x0, symName: __ZL22CalcWindowContentSizesP11ImGuiWindowP6ImVec2S2_, symObjAddr: 0x1E5C4, symBinAddr: 0x10005FD4C, symSize: 0x270 }
  - { offsetInCU: 0x1DDAE, offset: 0x4DD02, size: 0x8, addend: 0x0, symName: __ZL21CalcWindowAutoFitSizeP11ImGuiWindowRK6ImVec2, symObjAddr: 0x1E834, symBinAddr: 0x10005FFBC, symSize: 0x388 }
  - { offsetInCU: 0x1DEC4, offset: 0x4DE18, size: 0x8, addend: 0x0, symName: __ZL29CalcWindowSizeAfterConstraintP11ImGuiWindowRK6ImVec2, symObjAddr: 0x1EBBC, symBinAddr: 0x100060344, symSize: 0x25C }
  - { offsetInCU: 0x1DF87, offset: 0x4DEDB, size: 0x8, addend: 0x0, symName: __ZL15CreateNewWindowPKci, symObjAddr: 0x1F154, symBinAddr: 0x1000608DC, symSize: 0x2D4 }
  - { offsetInCU: 0x1E007, offset: 0x4DF5B, size: 0x8, addend: 0x0, symName: __ZL28UpdateWindowInFocusOrderListP11ImGuiWindowbi, symObjAddr: 0x1F428, symBinAddr: 0x100060BB0, symSize: 0x22C }
  - { offsetInCU: 0x1E09A, offset: 0x4DFEE, size: 0x8, addend: 0x0, symName: __ZN8ImVectorI14ImGuiPopupDataEixEi, symObjAddr: 0x1F654, symBinAddr: 0x100060DDC, symSize: 0xA8 }
  - { offsetInCU: 0x1E0CE, offset: 0x4E022, size: 0x8, addend: 0x0, symName: __ZL28SetWindowConditionAllowFlagsP11ImGuiWindowib, symObjAddr: 0x1F6FC, symBinAddr: 0x100060E84, symSize: 0x14C }
  - { offsetInCU: 0x1E117, offset: 0x4E06B, size: 0x8, addend: 0x0, symName: __ZNK8ImVectorI20ImGuiWindowStackDataE5emptyEv, symObjAddr: 0x1F848, symBinAddr: 0x100060FD0, symSize: 0x24 }
  - { offsetInCU: 0x1E13C, offset: 0x4E090, size: 0x8, addend: 0x0, symName: __ZN8ImVectorI20ImGuiWindowStackDataE4backEv, symObjAddr: 0x1F86C, symBinAddr: 0x100060FF4, symSize: 0x74 }
  - { offsetInCU: 0x1E166, offset: 0x4E0BA, size: 0x8, addend: 0x0, symName: __ZN20ImGuiWindowStackDataC1Ev, symObjAddr: 0x1F8E0, symBinAddr: 0x100061068, symSize: 0x2C }
  - { offsetInCU: 0x1E192, offset: 0x4E0E6, size: 0x8, addend: 0x0, symName: __ZN15ImGuiStackSizes17SetToCurrentStateEv, symObjAddr: 0x1F90C, symBinAddr: 0x100061094, symSize: 0xBC }
  - { offsetInCU: 0x1E1D8, offset: 0x4E12C, size: 0x8, addend: 0x0, symName: __ZN8ImVectorI20ImGuiWindowStackDataE9push_backERKS0_, symObjAddr: 0x1F9C8, symBinAddr: 0x100061150, symSize: 0x94 }
  - { offsetInCU: 0x1E20C, offset: 0x4E160, size: 0x8, addend: 0x0, symName: __ZN8ImVectorI14ImGuiPopupDataE9push_backERKS0_, symObjAddr: 0x1FA5C, symBinAddr: 0x1000611E4, symSize: 0x94 }
  - { offsetInCU: 0x1E240, offset: 0x4E194, size: 0x8, addend: 0x0, symName: __ZL16SetCurrentWindowP11ImGuiWindow, symObjAddr: 0x1FDAC, symBinAddr: 0x100061534, symSize: 0xC8 }
  - { offsetInCU: 0x1E27A, offset: 0x4E1CE, size: 0x8, addend: 0x0, symName: __ZNK11ImGuiWindow14TitleBarHeightEv, symObjAddr: 0x1FEE0, symBinAddr: 0x100061668, symSize: 0x78 }
  - { offsetInCU: 0x1E2AE, offset: 0x4E202, size: 0x8, addend: 0x0, symName: __ZNK11ImGuiWindow13MenuBarHeightEv, symObjAddr: 0x1FF58, symBinAddr: 0x1000616E0, symSize: 0x88 }
  - { offsetInCU: 0x1E2E2, offset: 0x4E236, size: 0x8, addend: 0x0, symName: __ZN8ImVectorI14ImGuiPopupDataE4backEv, symObjAddr: 0x1FFE0, symBinAddr: 0x100061768, symSize: 0x74 }
  - { offsetInCU: 0x1E307, offset: 0x4E25B, size: 0x8, addend: 0x0, symName: __ZN8ImVectorIP11ImGuiWindowE9push_backERKS1_, symObjAddr: 0x20054, symBinAddr: 0x1000617DC, symSize: 0x84 }
  - { offsetInCU: 0x1E33B, offset: 0x4E28F, size: 0x8, addend: 0x0, symName: __ZmlRK6ImVec2S1_, symObjAddr: 0x200D8, symBinAddr: 0x100061860, symSize: 0x58 }
  - { offsetInCU: 0x1E379, offset: 0x4E2CD, size: 0x8, addend: 0x0, symName: __ZNK14ImGuiViewportP11GetWorkRectEv, symObjAddr: 0x204B0, symBinAddr: 0x100061C38, symSize: 0x58 }
  - { offsetInCU: 0x1E39E, offset: 0x4E2F2, size: 0x8, addend: 0x0, symName: __ZNK6ImRect8GetWidthEv, symObjAddr: 0x20508, symBinAddr: 0x100061C90, symSize: 0x20 }
  - { offsetInCU: 0x1E3C3, offset: 0x4E317, size: 0x8, addend: 0x0, symName: __ZNK6ImRect9GetHeightEv, symObjAddr: 0x20528, symBinAddr: 0x100061CB0, symSize: 0x20 }
  - { offsetInCU: 0x1E3E8, offset: 0x4E33C, size: 0x8, addend: 0x0, symName: __ZL15ClampWindowRectP11ImGuiWindowRK6ImRect, symObjAddr: 0x20548, symBinAddr: 0x100061CD0, symSize: 0xC4 }
  - { offsetInCU: 0x1E440, offset: 0x4E394, size: 0x8, addend: 0x0, symName: __ZNK11ImGuiWindow4RectEv, symObjAddr: 0x21714, symBinAddr: 0x100062E9C, symSize: 0x58 }
  - { offsetInCU: 0x1E465, offset: 0x4E3B9, size: 0x8, addend: 0x0, symName: __ZN6ImRect12ClipWithFullERKS_, symObjAddr: 0x2176C, symBinAddr: 0x100062EF4, symSize: 0x8C }
  - { offsetInCU: 0x1E499, offset: 0x4E3ED, size: 0x8, addend: 0x0, symName: __ZL38CalcNextScrollFromScrollTargetAndClampP11ImGuiWindow, symObjAddr: 0x217F8, symBinAddr: 0x100062F80, symSize: 0x26C }
  - { offsetInCU: 0x1E5A5, offset: 0x4E4F9, size: 0x8, addend: 0x0, symName: __ZN8ImVectorI9ImDrawCmdEixEi, symObjAddr: 0x21A64, symBinAddr: 0x1000631EC, symSize: 0xA8 }
  - { offsetInCU: 0x1E5D9, offset: 0x4E52D, size: 0x8, addend: 0x0, symName: __ZN8ImVectorI9ImDrawCmdE4backEv, symObjAddr: 0x21B0C, symBinAddr: 0x100063294, symSize: 0x74 }
  - { offsetInCU: 0x1E5FE, offset: 0x4E552, size: 0x8, addend: 0x0, symName: __ZN8ImVectorIfE6resizeEi, symObjAddr: 0x22328, symBinAddr: 0x100063AB0, symSize: 0x68 }
  - { offsetInCU: 0x1E632, offset: 0x4E586, size: 0x8, addend: 0x0, symName: __ZN19ImGuiNextWindowData10ClearFlagsEv, symObjAddr: 0x229BC, symBinAddr: 0x100064144, symSize: 0x18 }
  - { offsetInCU: 0x1E657, offset: 0x4E5AB, size: 0x8, addend: 0x0, symName: __ZN8ImVectorI14ImGuiPopupDataE8pop_backEv, symObjAddr: 0x22B24, symBinAddr: 0x1000642AC, symSize: 0x6C }
  - { offsetInCU: 0x1E67C, offset: 0x4E5D0, size: 0x8, addend: 0x0, symName: __ZN15ImGuiStackSizes23CompareWithCurrentStateEv, symObjAddr: 0x22B90, symBinAddr: 0x100064318, symSize: 0x3DC }
  - { offsetInCU: 0x1E6C2, offset: 0x4E616, size: 0x8, addend: 0x0, symName: __ZN8ImVectorI20ImGuiWindowStackDataE8pop_backEv, symObjAddr: 0x22F6C, symBinAddr: 0x1000646F4, symSize: 0x6C }
  - { offsetInCU: 0x1E6E7, offset: 0x4E63B, size: 0x8, addend: 0x0, symName: __ZN8ImVectorIP11ImGuiWindowE4backEv, symObjAddr: 0x23200, symBinAddr: 0x100064988, symSize: 0x70 }
  - { offsetInCU: 0x1E70C, offset: 0x4E660, size: 0x8, addend: 0x0, symName: __ZNK8ImVectorIP11ImGuiWindowE14index_from_ptrEPKS1_, symObjAddr: 0x2350C, symBinAddr: 0x100064C94, symSize: 0xC0 }
  - { offsetInCU: 0x1E74F, offset: 0x4E6A3, size: 0x8, addend: 0x0, symName: __ZN8ImVectorIP11ImGuiWindowE4findERKS1_, symObjAddr: 0x235CC, symBinAddr: 0x100064D54, symSize: 0x88 }
  - { offsetInCU: 0x1E7A1, offset: 0x4E6F5, size: 0x8, addend: 0x0, symName: __ZNK11ImGuiWindow12CalcFontSizeEv, symObjAddr: 0x23874, symBinAddr: 0x100064FFC, symSize: 0x6C }
  - { offsetInCU: 0x1E7E4, offset: 0x4E738, size: 0x8, addend: 0x0, symName: __ZN8ImVectorIP6ImFontE9push_backERKS1_, symObjAddr: 0x23968, symBinAddr: 0x1000650F0, symSize: 0x84 }
  - { offsetInCU: 0x1E818, offset: 0x4E76C, size: 0x8, addend: 0x0, symName: __ZN8ImVectorIP6ImFontE8pop_backEv, symObjAddr: 0x23A7C, symBinAddr: 0x100065204, symSize: 0x6C }
  - { offsetInCU: 0x1E83D, offset: 0x4E791, size: 0x8, addend: 0x0, symName: __ZNK8ImVectorIP6ImFontE5emptyEv, symObjAddr: 0x23AE8, symBinAddr: 0x100065270, symSize: 0x24 }
  - { offsetInCU: 0x1E862, offset: 0x4E7B6, size: 0x8, addend: 0x0, symName: __ZN8ImVectorIP6ImFontE4backEv, symObjAddr: 0x23B0C, symBinAddr: 0x100065294, symSize: 0x70 }
  - { offsetInCU: 0x1E887, offset: 0x4E7DB, size: 0x8, addend: 0x0, symName: __ZN8ImVectorIiE4backEv, symObjAddr: 0x23C64, symBinAddr: 0x1000653EC, symSize: 0x70 }
  - { offsetInCU: 0x1E8AC, offset: 0x4E800, size: 0x8, addend: 0x0, symName: __ZN8ImVectorIiE8pop_backEv, symObjAddr: 0x23D68, symBinAddr: 0x1000654F0, symSize: 0x6C }
  - { offsetInCU: 0x1E8D1, offset: 0x4E825, size: 0x8, addend: 0x0, symName: __ZN8ImVectorIfE9push_backERKf, symObjAddr: 0x240A4, symBinAddr: 0x10006582C, symSize: 0x84 }
  - { offsetInCU: 0x1E905, offset: 0x4E859, size: 0x8, addend: 0x0, symName: __ZN8ImVectorIfE4backEv, symObjAddr: 0x2416C, symBinAddr: 0x1000658F4, symSize: 0x70 }
  - { offsetInCU: 0x1E92A, offset: 0x4E87E, size: 0x8, addend: 0x0, symName: __ZN8ImVectorIfE8pop_backEv, symObjAddr: 0x241DC, symBinAddr: 0x100065964, symSize: 0x6C }
  - { offsetInCU: 0x1E94F, offset: 0x4E8A3, size: 0x8, addend: 0x0, symName: __ZL21GetCombinedRootWindowP11ImGuiWindowb, symObjAddr: 0x24350, symBinAddr: 0x100065AD8, symSize: 0x70 }
  - { offsetInCU: 0x1E99C, offset: 0x4E8F0, size: 0x8, addend: 0x0, symName: __ZL14ImIsPowerOfTwoi, symObjAddr: 0x24888, symBinAddr: 0x100066010, symSize: 0x50 }
  - { offsetInCU: 0x1E9CB, offset: 0x4E91F, size: 0x8, addend: 0x0, symName: __ZpLR6ImVec2RKS_, symObjAddr: 0x248D8, symBinAddr: 0x100066060, symSize: 0x48 }
  - { offsetInCU: 0x1EA09, offset: 0x4E95D, size: 0x8, addend: 0x0, symName: __ZN8ImVec2ihC1ERK6ImVec2, symObjAddr: 0x24B3C, symBinAddr: 0x1000662C4, symSize: 0x34 }
  - { offsetInCU: 0x1EA40, offset: 0x4E994, size: 0x8, addend: 0x0, symName: __ZN8ImVectorIjE8pop_backEv, symObjAddr: 0x25280, symBinAddr: 0x100066A08, symSize: 0x6C }
  - { offsetInCU: 0x1EB60, offset: 0x4EAB4, size: 0x8, addend: 0x0, symName: __ZN10ImBitArrayILi645ELi0EEC1Ev, symObjAddr: 0x2730C, symBinAddr: 0x100068A94, symSize: 0x2C }
  - { offsetInCU: 0x1EB88, offset: 0x4EADC, size: 0x8, addend: 0x0, symName: __ZL13ImFloorSignedf, symObjAddr: 0x27338, symBinAddr: 0x100068AC0, symSize: 0x70 }
  - { offsetInCU: 0x1EBB7, offset: 0x4EB0B, size: 0x8, addend: 0x0, symName: __ZNK10ImBitArrayILi645ELi0EE7TestBitEi, symObjAddr: 0x273A8, symBinAddr: 0x100068B30, symSize: 0xA4 }
  - { offsetInCU: 0x1EBEB, offset: 0x4EB3F, size: 0x8, addend: 0x0, symName: __ZN10ImBitArrayILi645ELi0EE6SetBitEi, symObjAddr: 0x2744C, symBinAddr: 0x100068BD4, symSize: 0xA0 }
  - { offsetInCU: 0x1EC1F, offset: 0x4EB73, size: 0x8, addend: 0x0, symName: __ZN8ImVectorItE9push_backERKt, symObjAddr: 0x274EC, symBinAddr: 0x100068C74, symSize: 0x88 }
  - { offsetInCU: 0x1EC53, offset: 0x4EBA7, size: 0x8, addend: 0x0, symName: __ZN8ImVectorI15ImGuiInputEventE5eraseEPKS0_S3_, symObjAddr: 0x27574, symBinAddr: 0x100068CFC, symSize: 0x1A8 }
  - { offsetInCU: 0x1ECB4, offset: 0x4EC08, size: 0x8, addend: 0x0, symName: __ZN8ImVectorI14ImGuiGroupDataE4backEv, symObjAddr: 0x29854, symBinAddr: 0x10006AFDC, symSize: 0x74 }
  - { offsetInCU: 0x1ECD9, offset: 0x4EC2D, size: 0x8, addend: 0x0, symName: __ZN8ImVectorI14ImGuiGroupDataE8pop_backEv, symObjAddr: 0x298C8, symBinAddr: 0x10006B050, symSize: 0x6C }
  - { offsetInCU: 0x1ECFE, offset: 0x4EC52, size: 0x8, addend: 0x0, symName: __ZL6ImLerpIfET_S0_S0_f, symObjAddr: 0x29E14, symBinAddr: 0x10006B59C, symSize: 0x30 }
  - { offsetInCU: 0x1ED54, offset: 0x4ECA8, size: 0x8, addend: 0x0, symName: __ZN14ImGuiPopupDataC1Ev, symObjAddr: 0x2A688, symBinAddr: 0x10006BE10, symSize: 0x2C }
  - { offsetInCU: 0x1ED7C, offset: 0x4ECD0, size: 0x8, addend: 0x0, symName: __ZNK13ImGuiViewport9GetCenterEv, symObjAddr: 0x2B368, symBinAddr: 0x10006CAF0, symSize: 0x4C }
  - { offsetInCU: 0x1EDA1, offset: 0x4ECF5, size: 0x8, addend: 0x0, symName: __ZL7ImClampRK6ImVec2S1_S_, symObjAddr: 0x2C064, symBinAddr: 0x10006D7EC, symSize: 0x130 }
  - { offsetInCU: 0x1EDEE, offset: 0x4ED42, size: 0x8, addend: 0x0, symName: __ZN8ImVectorI20ImGuiWindowStackDataEixEi, symObjAddr: 0x2C298, symBinAddr: 0x10006DA20, symSize: 0xA8 }
  - { offsetInCU: 0x1EE22, offset: 0x4ED76, size: 0x8, addend: 0x0, symName: __Z25ImGetDirQuadrantFromDeltaff, symObjAddr: 0x2C5F4, symBinAddr: 0x10006DD7C, symSize: 0x84 }
  - { offsetInCU: 0x1EE60, offset: 0x4EDB4, size: 0x8, addend: 0x0, symName: __ZN16ImGuiNavItemData5ClearEv, symObjAddr: 0x2C6F8, symBinAddr: 0x10006DE80, symSize: 0x38 }
  - { offsetInCU: 0x1EE85, offset: 0x4EDD9, size: 0x8, addend: 0x0, symName: __ZmLR6ImVec2f, symObjAddr: 0x2CE9C, symBinAddr: 0x10006E624, symSize: 0x40 }
  - { offsetInCU: 0x1EEC3, offset: 0x4EE17, size: 0x8, addend: 0x0, symName: __ZN12ImGuiPayload5ClearEv, symObjAddr: 0x2D740, symBinAddr: 0x10006EEC8, symSize: 0x58 }
  - { offsetInCU: 0x1EEE8, offset: 0x4EE3C, size: 0x8, addend: 0x0, symName: __ZN8ImVectorIhE5clearEv, symObjAddr: 0x2D798, symBinAddr: 0x10006EF20, symSize: 0x58 }
  - { offsetInCU: 0x1EF0D, offset: 0x4EE61, size: 0x8, addend: 0x0, symName: __ZN8ImVectorIhE6resizeEi, symObjAddr: 0x2E214, symBinAddr: 0x10006F99C, symSize: 0x68 }
  - { offsetInCU: 0x1EF41, offset: 0x4EE95, size: 0x8, addend: 0x0, symName: __ZNK12ImGuiPayload10IsDataTypeEPKc, symObjAddr: 0x2EA58, symBinAddr: 0x1000701E0, symSize: 0x6C }
  - { offsetInCU: 0x1EF75, offset: 0x4EEC9, size: 0x8, addend: 0x0, symName: __ZL8LogTextVR12ImGuiContextPKcPc, symObjAddr: 0x2EC28, symBinAddr: 0x1000703B0, symSize: 0xD0 }
  - { offsetInCU: 0x1EFBE, offset: 0x4EF12, size: 0x8, addend: 0x0, symName: __ZNK15ImGuiTextBuffer5emptyEv, symObjAddr: 0x2EEFC, symBinAddr: 0x100070684, symSize: 0x24 }
  - { offsetInCU: 0x1EFE3, offset: 0x4EF37, size: 0x8, addend: 0x0, symName: __ZNK15ImGuiTextBuffer5beginEv, symObjAddr: 0x2F168, symBinAddr: 0x1000708F0, symSize: 0x5C }
  - { offsetInCU: 0x1F008, offset: 0x4EF5C, size: 0x8, addend: 0x0, symName: __Z6strstrB8ue170006Ua9enable_ifIXLb1EEEPKcS0_, symObjAddr: 0x2F4AC, symBinAddr: 0x100070C34, symSize: 0x2C }
  - { offsetInCU: 0x1F042, offset: 0x4EF96, size: 0x8, addend: 0x0, symName: __ZN13ImChunkStreamI19ImGuiWindowSettingsE11alloc_chunkEm, symObjAddr: 0x2F4D8, symBinAddr: 0x100070C60, symSize: 0x88 }
  - { offsetInCU: 0x1F094, offset: 0x4EFE8, size: 0x8, addend: 0x0, symName: __ZN19ImGuiWindowSettingsC1Ev, symObjAddr: 0x2F560, symBinAddr: 0x100070CE8, symSize: 0x2C }
  - { offsetInCU: 0x1F0BC, offset: 0x4F010, size: 0x8, addend: 0x0, symName: __ZN19ImGuiWindowSettings7GetNameEv, symObjAddr: 0x2F58C, symBinAddr: 0x100070D14, symSize: 0x18 }
  - { offsetInCU: 0x1F0E1, offset: 0x4F035, size: 0x8, addend: 0x0, symName: __ZN13ImChunkStreamI19ImGuiWindowSettingsE5beginEv, symObjAddr: 0x2F64C, symBinAddr: 0x100070DD4, symSize: 0x58 }
  - { offsetInCU: 0x1F115, offset: 0x4F069, size: 0x8, addend: 0x0, symName: __ZN13ImChunkStreamI19ImGuiWindowSettingsE10next_chunkEPS0_, symObjAddr: 0x2F6A4, symBinAddr: 0x100070E2C, symSize: 0x15C }
  - { offsetInCU: 0x1F158, offset: 0x4F0AC, size: 0x8, addend: 0x0, symName: __ZN8ImVectorI20ImGuiSettingsHandlerE9push_backERKS0_, symObjAddr: 0x2F934, symBinAddr: 0x1000710BC, symSize: 0x94 }
  - { offsetInCU: 0x1F18C, offset: 0x4F0E0, size: 0x8, addend: 0x0, symName: __ZN8ImVectorI20ImGuiSettingsHandlerE5eraseEPKS0_, symObjAddr: 0x2FA28, symBinAddr: 0x1000711B0, symSize: 0x128 }
  - { offsetInCU: 0x1F1CF, offset: 0x4F123, size: 0x8, addend: 0x0, symName: __ZN8ImVectorI20ImGuiSettingsHandlerEixEi, symObjAddr: 0x2FB50, symBinAddr: 0x1000712D8, symSize: 0xA8 }
  - { offsetInCU: 0x1F203, offset: 0x4F157, size: 0x8, addend: 0x0, symName: __ZN8ImVectorIcE9push_backERKc, symObjAddr: 0x303CC, symBinAddr: 0x100071B54, symSize: 0x88 }
  - { offsetInCU: 0x1F237, offset: 0x4F18B, size: 0x8, addend: 0x0, symName: __ZNK15ImGuiTextBuffer4sizeEv, symObjAddr: 0x30454, symBinAddr: 0x100071BDC, symSize: 0x50 }
  - { offsetInCU: 0x1F25C, offset: 0x4F1B0, size: 0x8, addend: 0x0, symName: __ZNK15ImGuiTextBuffer5c_strEv, symObjAddr: 0x304A4, symBinAddr: 0x100071C2C, symSize: 0x50 }
  - { offsetInCU: 0x1F281, offset: 0x4F1D5, size: 0x8, addend: 0x0, symName: __ZdvRK6ImVec2S1_, symObjAddr: 0x30AB8, symBinAddr: 0x100072240, symSize: 0x58 }
  - { offsetInCU: 0x1F2BF, offset: 0x4F213, size: 0x8, addend: 0x0, symName: __ZN8ImVectorIP6ImFontEixEi, symObjAddr: 0x30F04, symBinAddr: 0x10007268C, symSize: 0xA0 }
  - { offsetInCU: 0x1F2F3, offset: 0x4F247, size: 0x8, addend: 0x0, symName: __ZL17MetricsHelpMarkerPKc, symObjAddr: 0x34364, symBinAddr: 0x100075AEC, symSize: 0x68 }
  - { offsetInCU: 0x1F31E, offset: 0x4F272, size: 0x8, addend: 0x0, symName: __ZZN5ImGui17ShowMetricsWindowEPbEN5Funcs13GetWindowRectEP11ImGuiWindowi, symObjAddr: 0x343F8, symBinAddr: 0x100075B80, symSize: 0x240 }
  - { offsetInCU: 0x1F38F, offset: 0x4F2E3, size: 0x8, addend: 0x0, symName: __ZNK6ImPoolI10ImGuiTableE10GetMapSizeEv, symObjAddr: 0x34638, symBinAddr: 0x100075DC0, symSize: 0x18 }
  - { offsetInCU: 0x1F3B4, offset: 0x4F308, size: 0x8, addend: 0x0, symName: __ZN6ImPoolI10ImGuiTableE13TryGetMapDataEi, symObjAddr: 0x34650, symBinAddr: 0x100075DD8, symSize: 0x70 }
  - { offsetInCU: 0x1F3F7, offset: 0x4F34B, size: 0x8, addend: 0x0, symName: __ZZN5ImGui17ShowMetricsWindowEPbEN5Funcs12GetTableRectEP10ImGuiTableii, symObjAddr: 0x346C0, symBinAddr: 0x100075E48, symSize: 0x3DC }
  - { offsetInCU: 0x1F517, offset: 0x4F46B, size: 0x8, addend: 0x0, symName: __ZZN5ImGui17ShowMetricsWindowEPbEN4Func26WindowComparerByBeginOrderEPKvS3_, symObjAddr: 0x34B6C, symBinAddr: 0x1000762F4, symSize: 0x30 }
  - { offsetInCU: 0x1F54E, offset: 0x4F4A2, size: 0x8, addend: 0x0, symName: __ZNK17ImDrawDataBuilder16GetDrawListCountEv, symObjAddr: 0x34CCC, symBinAddr: 0x100076454, symSize: 0x6C }
  - { offsetInCU: 0x1F59F, offset: 0x4F4F3, size: 0x8, addend: 0x0, symName: __ZL25RenderViewportsThumbnailsv, symObjAddr: 0x35858, symBinAddr: 0x100076FE0, symSize: 0x230 }
  - { offsetInCU: 0x1F67F, offset: 0x4F5D3, size: 0x8, addend: 0x0, symName: __ZNK6ImPoolI11ImGuiTabBarE13GetAliveCountEv, symObjAddr: 0x35CB4, symBinAddr: 0x10007743C, symSize: 0x18 }
  - { offsetInCU: 0x1F6A4, offset: 0x4F5F8, size: 0x8, addend: 0x0, symName: __ZNK6ImPoolI11ImGuiTabBarE10GetMapSizeEv, symObjAddr: 0x35CCC, symBinAddr: 0x100077454, symSize: 0x18 }
  - { offsetInCU: 0x1F6C9, offset: 0x4F61D, size: 0x8, addend: 0x0, symName: __ZN6ImPoolI11ImGuiTabBarE13TryGetMapDataEi, symObjAddr: 0x35CE4, symBinAddr: 0x10007746C, symSize: 0x70 }
  - { offsetInCU: 0x1F70C, offset: 0x4F660, size: 0x8, addend: 0x0, symName: __ZNK6ImPoolI10ImGuiTableE13GetAliveCountEv, symObjAddr: 0x36314, symBinAddr: 0x100077A9C, symSize: 0x18 }
  - { offsetInCU: 0x1F731, offset: 0x4F685, size: 0x8, addend: 0x0, symName: __ZNK13ImChunkStreamI19ImGuiWindowSettingsE4sizeEv, symObjAddr: 0x3632C, symBinAddr: 0x100077AB4, symSize: 0x18 }
  - { offsetInCU: 0x1F756, offset: 0x4F6AA, size: 0x8, addend: 0x0, symName: __ZNK13ImChunkStreamI18ImGuiTableSettingsE4sizeEv, symObjAddr: 0x363E4, symBinAddr: 0x100077B6C, symSize: 0x18 }
  - { offsetInCU: 0x1F77B, offset: 0x4F6CF, size: 0x8, addend: 0x0, symName: __ZN13ImChunkStreamI18ImGuiTableSettingsE5beginEv, symObjAddr: 0x363FC, symBinAddr: 0x100077B84, symSize: 0x58 }
  - { offsetInCU: 0x1F7AF, offset: 0x4F703, size: 0x8, addend: 0x0, symName: __ZN13ImChunkStreamI18ImGuiTableSettingsE10next_chunkEPS0_, symObjAddr: 0x36454, symBinAddr: 0x100077BDC, symSize: 0x15C }
  - { offsetInCU: 0x1F7F2, offset: 0x4F746, size: 0x8, addend: 0x0, symName: __ZL18GetInputSourceName16ImGuiInputSource, symObjAddr: 0x365B0, symBinAddr: 0x100077D38, symSize: 0xDC }
  - { offsetInCU: 0x1F830, offset: 0x4F784, size: 0x8, addend: 0x0, symName: __ZNK10ImBitArrayILi133ELin512EEixEi, symObjAddr: 0x3668C, symBinAddr: 0x100077E14, symSize: 0xA4 }
  - { offsetInCU: 0x1F864, offset: 0x4F7B8, size: 0x8, addend: 0x0, symName: __ZN8ImVectorI18ImGuiOldColumnDataEixEi, symObjAddr: 0x368C8, symBinAddr: 0x100078050, symSize: 0xA8 }
  - { offsetInCU: 0x1F898, offset: 0x4F7EC, size: 0x8, addend: 0x0, symName: __ZNK8ImVectorI9ImDrawCmdE4backEv, symObjAddr: 0x36970, symBinAddr: 0x1000780F8, symSize: 0x74 }
  - { offsetInCU: 0x1F8BD, offset: 0x4F811, size: 0x8, addend: 0x0, symName: __ZNK8ImVectorI9ImDrawCmdE5beginEv, symObjAddr: 0x369E4, symBinAddr: 0x10007816C, symSize: 0x18 }
  - { offsetInCU: 0x1F8E2, offset: 0x4F836, size: 0x8, addend: 0x0, symName: __Z14ImTriangleAreaRK6ImVec2S1_S1_, symObjAddr: 0x36D98, symBinAddr: 0x100078520, symSize: 0x84 }
  - { offsetInCU: 0x1F92F, offset: 0x4F883, size: 0x8, addend: 0x0, symName: __ZN6ImRect3AddERK6ImVec2, symObjAddr: 0x36E1C, symBinAddr: 0x1000785A4, symSize: 0xE8 }
  - { offsetInCU: 0x1F963, offset: 0x4F8B7, size: 0x8, addend: 0x0, symName: __ZNK8ImVectorIN12ImGuiStorage16ImGuiStoragePairEE13size_in_bytesEv, symObjAddr: 0x37138, symBinAddr: 0x1000788C0, symSize: 0x1C }
  - { offsetInCU: 0x1F988, offset: 0x4F8DC, size: 0x8, addend: 0x0, symName: __ZN8ImVectorI12ImGuiTabItemEixEi, symObjAddr: 0x37154, symBinAddr: 0x1000788DC, symSize: 0xA8 }
  - { offsetInCU: 0x1F9BC, offset: 0x4F910, size: 0x8, addend: 0x0, symName: __ZNK11ImGuiTabBar10GetTabNameEPK12ImGuiTabItem, symObjAddr: 0x371FC, symBinAddr: 0x100078984, symSize: 0xAC }
  - { offsetInCU: 0x1F9F0, offset: 0x4F944, size: 0x8, addend: 0x0, symName: __ZN8ImVectorI15ImGuiOldColumnsEixEi, symObjAddr: 0x37B90, symBinAddr: 0x100079318, symSize: 0xA8 }
  - { offsetInCU: 0x1FA24, offset: 0x4F978, size: 0x8, addend: 0x0, symName: __ZNK15ImGuiTextBuffer3endEv, symObjAddr: 0x37D0C, symBinAddr: 0x100079494, symSize: 0x5C }
  - { offsetInCU: 0x1FA49, offset: 0x4F99D, size: 0x8, addend: 0x0, symName: __ZN8ImVectorI19ImGuiStackLevelInfoE6resizeEiRKS0_, symObjAddr: 0x37D68, symBinAddr: 0x1000794F0, symSize: 0xE4 }
  - { offsetInCU: 0x1FAA9, offset: 0x4F9FD, size: 0x8, addend: 0x0, symName: __ZN19ImGuiStackLevelInfoC1Ev, symObjAddr: 0x37E4C, symBinAddr: 0x1000795D4, symSize: 0x2C }
  - { offsetInCU: 0x1FAD1, offset: 0x4FA25, size: 0x8, addend: 0x0, symName: __ZN8ImVectorIjEixEi, symObjAddr: 0x37E78, symBinAddr: 0x100079600, symSize: 0xA0 }
  - { offsetInCU: 0x1FB05, offset: 0x4FA59, size: 0x8, addend: 0x0, symName: __ZN8ImVectorI19ImGuiStackLevelInfoEixEi, symObjAddr: 0x37F18, symBinAddr: 0x1000796A0, symSize: 0xA0 }
  - { offsetInCU: 0x1FB39, offset: 0x4FA8D, size: 0x8, addend: 0x0, symName: __ZL24StackToolFormatLevelInfoP14ImGuiStackToolibPcm, symObjAddr: 0x37FB8, symBinAddr: 0x100079740, symSize: 0x1D4 }
  - { offsetInCU: 0x1FBC2, offset: 0x4FB16, size: 0x8, addend: 0x0, symName: __ZN6ImVec2C2Ev, symObjAddr: 0x3818C, symBinAddr: 0x100079914, symSize: 0x20 }
  - { offsetInCU: 0x1FBEB, offset: 0x4FB3F, size: 0x8, addend: 0x0, symName: __ZN6ImVec4C2Ev, symObjAddr: 0x381AC, symBinAddr: 0x100079934, symSize: 0x28 }
  - { offsetInCU: 0x1FC14, offset: 0x4FB68, size: 0x8, addend: 0x0, symName: __ZN6ImVec2C2Eff, symObjAddr: 0x381D4, symBinAddr: 0x10007995C, symSize: 0x2C }
  - { offsetInCU: 0x1FC59, offset: 0x4FBAD, size: 0x8, addend: 0x0, symName: __ZN15ImGuiInputEventC2Ev, symObjAddr: 0x38200, symBinAddr: 0x100079988, symSize: 0x20 }
  - { offsetInCU: 0x1FC82, offset: 0x4FBD6, size: 0x8, addend: 0x0, symName: __ZN6ImVec4C2Effff, symObjAddr: 0x38220, symBinAddr: 0x1000799A8, symSize: 0x44 }
  - { offsetInCU: 0x1FCE7, offset: 0x4FC3B, size: 0x8, addend: 0x0, symName: __ZN12ImGuiStorage16ImGuiStoragePairC2Eji, symObjAddr: 0x38264, symBinAddr: 0x1000799EC, symSize: 0x2C }
  - { offsetInCU: 0x1FD2E, offset: 0x4FC82, size: 0x8, addend: 0x0, symName: __ZN12ImGuiStorage16ImGuiStoragePairC2Ejf, symObjAddr: 0x38290, symBinAddr: 0x100079A18, symSize: 0x2C }
  - { offsetInCU: 0x1FD75, offset: 0x4FCC9, size: 0x8, addend: 0x0, symName: __ZN12ImGuiStorage16ImGuiStoragePairC2EjPv, symObjAddr: 0x382BC, symBinAddr: 0x100079A44, symSize: 0x2C }
  - { offsetInCU: 0x1FDBC, offset: 0x4FD10, size: 0x8, addend: 0x0, symName: __ZN15ImGuiTextFilter14ImGuiTextRangeC2EPKcS2_, symObjAddr: 0x382E8, symBinAddr: 0x100079A70, symSize: 0x2C }
  - { offsetInCU: 0x1FE03, offset: 0x4FD57, size: 0x8, addend: 0x0, symName: __ZN20ImGuiListClipperDataC2Ev, symObjAddr: 0x38314, symBinAddr: 0x100079A9C, symSize: 0x40 }
  - { offsetInCU: 0x1FE2B, offset: 0x4FD7F, size: 0x8, addend: 0x0, symName: __ZN8ImVectorI21ImGuiListClipperRangeEC1Ev, symObjAddr: 0x38354, symBinAddr: 0x100079ADC, symSize: 0x2C }
  - { offsetInCU: 0x1FE53, offset: 0x4FDA7, size: 0x8, addend: 0x0, symName: __ZN8ImVectorI21ImGuiListClipperRangeEC2Ev, symObjAddr: 0x38380, symBinAddr: 0x100079B08, symSize: 0x20 }
  - { offsetInCU: 0x1FE7C, offset: 0x4FDD0, size: 0x8, addend: 0x0, symName: __ZN20ImGuiListClipperDataD2Ev, symObjAddr: 0x383A0, symBinAddr: 0x100079B28, symSize: 0x30 }
  - { offsetInCU: 0x1FEA8, offset: 0x4FDFC, size: 0x8, addend: 0x0, symName: __ZN8ImVectorI21ImGuiListClipperRangeED1Ev, symObjAddr: 0x383D0, symBinAddr: 0x100079B58, symSize: 0x2C }
  - { offsetInCU: 0x1FED0, offset: 0x4FE24, size: 0x8, addend: 0x0, symName: __ZN8ImVectorI21ImGuiListClipperRangeED2Ev, symObjAddr: 0x383FC, symBinAddr: 0x100079B84, symSize: 0x5C }
  - { offsetInCU: 0x1FEF8, offset: 0x4FE4C, size: 0x8, addend: 0x0, symName: __ZN8ImVectorI21ImGuiListClipperRangeE6resizeEi, symObjAddr: 0x38458, symBinAddr: 0x100079BE0, symSize: 0x68 }
  - { offsetInCU: 0x1FF2C, offset: 0x4FE80, size: 0x8, addend: 0x0, symName: __ZN8ImVectorI21ImGuiListClipperRangeE7reserveEi, symObjAddr: 0x384C0, symBinAddr: 0x100079C48, symSize: 0xB4 }
  - { offsetInCU: 0x1FF6F, offset: 0x4FEC3, size: 0x8, addend: 0x0, symName: __ZNK8ImVectorI21ImGuiListClipperRangeE14_grow_capacityEi, symObjAddr: 0x38574, symBinAddr: 0x100079CFC, symSize: 0x98 }
  - { offsetInCU: 0x1FFB2, offset: 0x4FF06, size: 0x8, addend: 0x0, symName: __ZL43ImGuiListClipper_SeekCursorAndSetupPrevLineff, symObjAddr: 0x3860C, symBinAddr: 0x100079D94, symSize: 0x160 }
  - { offsetInCU: 0x20060, offset: 0x4FFB4, size: 0x8, addend: 0x0, symName: __ZL6ImSwapI21ImGuiListClipperRangeEvRT_S2_, symObjAddr: 0x3876C, symBinAddr: 0x100079EF4, symSize: 0x54 }
  - { offsetInCU: 0x200B2, offset: 0x50006, size: 0x8, addend: 0x0, symName: __ZN8ImVectorI21ImGuiListClipperRangeE5eraseEPKS0_, symObjAddr: 0x387C0, symBinAddr: 0x100079F48, symSize: 0x128 }
  - { offsetInCU: 0x200F5, offset: 0x50049, size: 0x8, addend: 0x0, symName: __ZN13ImGuiColorModC2Ev, symObjAddr: 0x388E8, symBinAddr: 0x10007A070, symSize: 0x30 }
  - { offsetInCU: 0x20121, offset: 0x50075, size: 0x8, addend: 0x0, symName: __ZN13ImGuiStyleModC2Eif, symObjAddr: 0x38918, symBinAddr: 0x10007A0A0, symSize: 0x2C }
  - { offsetInCU: 0x20168, offset: 0x500BC, size: 0x8, addend: 0x0, symName: __ZN13ImGuiStyleModC2Ei6ImVec2, symObjAddr: 0x38944, symBinAddr: 0x10007A0CC, symSize: 0x38 }
  - { offsetInCU: 0x201AF, offset: 0x50103, size: 0x8, addend: 0x0, symName: __ZL5ImMinRK6ImVec2S1_, symObjAddr: 0x3897C, symBinAddr: 0x10007A104, symSize: 0xC0 }
  - { offsetInCU: 0x201ED, offset: 0x50141, size: 0x8, addend: 0x0, symName: __ZN19ImGuiWindowTempDataC2Ev, symObjAddr: 0x38A3C, symBinAddr: 0x10007A1C4, symSize: 0x130 }
  - { offsetInCU: 0x20219, offset: 0x5016D, size: 0x8, addend: 0x0, symName: __ZN6ImVec1C1Ev, symObjAddr: 0x38B6C, symBinAddr: 0x10007A2F4, symSize: 0x2C }
  - { offsetInCU: 0x20241, offset: 0x50195, size: 0x8, addend: 0x0, symName: __ZN16ImGuiMenuColumnsC1Ev, symObjAddr: 0x38B98, symBinAddr: 0x10007A320, symSize: 0x2C }
  - { offsetInCU: 0x20269, offset: 0x501BD, size: 0x8, addend: 0x0, symName: __ZN8ImVectorIP11ImGuiWindowEC1Ev, symObjAddr: 0x38BC4, symBinAddr: 0x10007A34C, symSize: 0x2C }
  - { offsetInCU: 0x20291, offset: 0x501E5, size: 0x8, addend: 0x0, symName: __ZN8ImVectorIfEC1Ev, symObjAddr: 0x38BF0, symBinAddr: 0x10007A378, symSize: 0x2C }
  - { offsetInCU: 0x202B9, offset: 0x5020D, size: 0x8, addend: 0x0, symName: __ZN8ImVectorIfED1Ev, symObjAddr: 0x38C1C, symBinAddr: 0x10007A3A4, symSize: 0x2C }
  - { offsetInCU: 0x202E1, offset: 0x50235, size: 0x8, addend: 0x0, symName: __ZN8ImVectorIP11ImGuiWindowED1Ev, symObjAddr: 0x38C48, symBinAddr: 0x10007A3D0, symSize: 0x2C }
  - { offsetInCU: 0x20309, offset: 0x5025D, size: 0x8, addend: 0x0, symName: __ZN6ImVec1C2Ev, symObjAddr: 0x38C74, symBinAddr: 0x10007A3FC, symSize: 0x1C }
  - { offsetInCU: 0x20332, offset: 0x50286, size: 0x8, addend: 0x0, symName: __ZN16ImGuiMenuColumnsC2Ev, symObjAddr: 0x38C90, symBinAddr: 0x10007A418, symSize: 0x24 }
  - { offsetInCU: 0x2035B, offset: 0x502AF, size: 0x8, addend: 0x0, symName: __ZN8ImVectorIP11ImGuiWindowEC2Ev, symObjAddr: 0x38CB4, symBinAddr: 0x10007A43C, symSize: 0x20 }
  - { offsetInCU: 0x20384, offset: 0x502D8, size: 0x8, addend: 0x0, symName: __ZN8ImVectorIfEC2Ev, symObjAddr: 0x38CD4, symBinAddr: 0x10007A45C, symSize: 0x20 }
  - { offsetInCU: 0x203AD, offset: 0x50301, size: 0x8, addend: 0x0, symName: __ZN8ImVectorIfED2Ev, symObjAddr: 0x38CF4, symBinAddr: 0x10007A47C, symSize: 0x5C }
  - { offsetInCU: 0x203D5, offset: 0x50329, size: 0x8, addend: 0x0, symName: __ZN8ImVectorIP11ImGuiWindowED2Ev, symObjAddr: 0x38D50, symBinAddr: 0x10007A4D8, symSize: 0x5C }
  - { offsetInCU: 0x203FD, offset: 0x50351, size: 0x8, addend: 0x0, symName: __ZN6ImRectC2Ev, symObjAddr: 0x38DAC, symBinAddr: 0x10007A534, symSize: 0x4C }
  - { offsetInCU: 0x20425, offset: 0x50379, size: 0x8, addend: 0x0, symName: __ZN8ImVec2ihC2Ev, symObjAddr: 0x38DF8, symBinAddr: 0x10007A580, symSize: 0x1C }
  - { offsetInCU: 0x2044E, offset: 0x503A2, size: 0x8, addend: 0x0, symName: __ZN12ImGuiStorageC2Ev, symObjAddr: 0x38E14, symBinAddr: 0x10007A59C, symSize: 0x2C }
  - { offsetInCU: 0x2047A, offset: 0x503CE, size: 0x8, addend: 0x0, symName: __ZN8ImVectorIN12ImGuiStorage16ImGuiStoragePairEEC1Ev, symObjAddr: 0x38E40, symBinAddr: 0x10007A5C8, symSize: 0x2C }
  - { offsetInCU: 0x204A2, offset: 0x503F6, size: 0x8, addend: 0x0, symName: __ZN8ImVectorIN12ImGuiStorage16ImGuiStoragePairEEC2Ev, symObjAddr: 0x38E6C, symBinAddr: 0x10007A5F4, symSize: 0x20 }
  - { offsetInCU: 0x204CB, offset: 0x5041F, size: 0x8, addend: 0x0, symName: __ZN10ImDrawListC2EPK20ImDrawListSharedData, symObjAddr: 0x38E8C, symBinAddr: 0x10007A614, symSize: 0x17C }
  - { offsetInCU: 0x20502, offset: 0x50456, size: 0x8, addend: 0x0, symName: __ZN8ImVectorI9ImDrawCmdEC1Ev, symObjAddr: 0x39008, symBinAddr: 0x10007A790, symSize: 0x2C }
  - { offsetInCU: 0x2052A, offset: 0x5047E, size: 0x8, addend: 0x0, symName: __ZN8ImVectorI10ImDrawVertEC1Ev, symObjAddr: 0x39034, symBinAddr: 0x10007A7BC, symSize: 0x2C }
  - { offsetInCU: 0x20552, offset: 0x504A6, size: 0x8, addend: 0x0, symName: __ZN8ImVectorI6ImVec4EC1Ev, symObjAddr: 0x39060, symBinAddr: 0x10007A7E8, symSize: 0x2C }
  - { offsetInCU: 0x2057A, offset: 0x504CE, size: 0x8, addend: 0x0, symName: __ZN8ImVectorIPvEC1Ev, symObjAddr: 0x3908C, symBinAddr: 0x10007A814, symSize: 0x2C }
  - { offsetInCU: 0x205A2, offset: 0x504F6, size: 0x8, addend: 0x0, symName: __ZN8ImVectorI6ImVec2EC1Ev, symObjAddr: 0x390B8, symBinAddr: 0x10007A840, symSize: 0x2C }
  - { offsetInCU: 0x205CF, offset: 0x50523, size: 0x8, addend: 0x0, symName: __ZN15ImDrawCmdHeaderC1Ev, symObjAddr: 0x390E4, symBinAddr: 0x10007A86C, symSize: 0x2C }
  - { offsetInCU: 0x205FB, offset: 0x5054F, size: 0x8, addend: 0x0, symName: __ZN18ImDrawListSplitterC1Ev, symObjAddr: 0x39110, symBinAddr: 0x10007A898, symSize: 0x2C }
  - { offsetInCU: 0x20623, offset: 0x50577, size: 0x8, addend: 0x0, symName: __ZN8ImVectorI6ImVec2ED1Ev, symObjAddr: 0x3913C, symBinAddr: 0x10007A8C4, symSize: 0x2C }
  - { offsetInCU: 0x2064B, offset: 0x5059F, size: 0x8, addend: 0x0, symName: __ZN8ImVectorIPvED1Ev, symObjAddr: 0x39168, symBinAddr: 0x10007A8F0, symSize: 0x2C }
  - { offsetInCU: 0x20673, offset: 0x505C7, size: 0x8, addend: 0x0, symName: __ZN8ImVectorI6ImVec4ED1Ev, symObjAddr: 0x39194, symBinAddr: 0x10007A91C, symSize: 0x2C }
  - { offsetInCU: 0x2069B, offset: 0x505EF, size: 0x8, addend: 0x0, symName: __ZN8ImVectorI10ImDrawVertED1Ev, symObjAddr: 0x391C0, symBinAddr: 0x10007A948, symSize: 0x2C }
  - { offsetInCU: 0x206C3, offset: 0x50617, size: 0x8, addend: 0x0, symName: __ZN8ImVectorI9ImDrawCmdED1Ev, symObjAddr: 0x391EC, symBinAddr: 0x10007A974, symSize: 0x2C }
  - { offsetInCU: 0x206EB, offset: 0x5063F, size: 0x8, addend: 0x0, symName: __ZN8ImVectorI9ImDrawCmdEC2Ev, symObjAddr: 0x39218, symBinAddr: 0x10007A9A0, symSize: 0x20 }
  - { offsetInCU: 0x20714, offset: 0x50668, size: 0x8, addend: 0x0, symName: __ZN8ImVectorI10ImDrawVertEC2Ev, symObjAddr: 0x39238, symBinAddr: 0x10007A9C0, symSize: 0x20 }
  - { offsetInCU: 0x2073D, offset: 0x50691, size: 0x8, addend: 0x0, symName: __ZN8ImVectorI6ImVec4EC2Ev, symObjAddr: 0x39258, symBinAddr: 0x10007A9E0, symSize: 0x20 }
  - { offsetInCU: 0x20766, offset: 0x506BA, size: 0x8, addend: 0x0, symName: __ZN8ImVectorIPvEC2Ev, symObjAddr: 0x39278, symBinAddr: 0x10007AA00, symSize: 0x20 }
  - { offsetInCU: 0x2078F, offset: 0x506E3, size: 0x8, addend: 0x0, symName: __ZN8ImVectorI6ImVec2EC2Ev, symObjAddr: 0x39298, symBinAddr: 0x10007AA20, symSize: 0x20 }
  - { offsetInCU: 0x207B8, offset: 0x5070C, size: 0x8, addend: 0x0, symName: __ZN15ImDrawCmdHeaderC2Ev, symObjAddr: 0x392B8, symBinAddr: 0x10007AA40, symSize: 0x2C }
  - { offsetInCU: 0x207E4, offset: 0x50738, size: 0x8, addend: 0x0, symName: __ZN18ImDrawListSplitterC2Ev, symObjAddr: 0x392E4, symBinAddr: 0x10007AA6C, symSize: 0x3C }
  - { offsetInCU: 0x2080C, offset: 0x50760, size: 0x8, addend: 0x0, symName: __ZN8ImVectorI13ImDrawChannelEC1Ev, symObjAddr: 0x39320, symBinAddr: 0x10007AAA8, symSize: 0x2C }
  - { offsetInCU: 0x20834, offset: 0x50788, size: 0x8, addend: 0x0, symName: __ZN8ImVectorI13ImDrawChannelEC2Ev, symObjAddr: 0x3934C, symBinAddr: 0x10007AAD4, symSize: 0x20 }
  - { offsetInCU: 0x2085D, offset: 0x507B1, size: 0x8, addend: 0x0, symName: __ZN8ImVectorI6ImVec2ED2Ev, symObjAddr: 0x3936C, symBinAddr: 0x10007AAF4, symSize: 0x5C }
  - { offsetInCU: 0x20885, offset: 0x507D9, size: 0x8, addend: 0x0, symName: __ZN8ImVectorIPvED2Ev, symObjAddr: 0x393C8, symBinAddr: 0x10007AB50, symSize: 0x5C }
  - { offsetInCU: 0x208AD, offset: 0x50801, size: 0x8, addend: 0x0, symName: __ZN8ImVectorI6ImVec4ED2Ev, symObjAddr: 0x39424, symBinAddr: 0x10007ABAC, symSize: 0x5C }
  - { offsetInCU: 0x208D5, offset: 0x50829, size: 0x8, addend: 0x0, symName: __ZN8ImVectorI10ImDrawVertED2Ev, symObjAddr: 0x39480, symBinAddr: 0x10007AC08, symSize: 0x5C }
  - { offsetInCU: 0x208FD, offset: 0x50851, size: 0x8, addend: 0x0, symName: __ZN8ImVectorI9ImDrawCmdED2Ev, symObjAddr: 0x394DC, symBinAddr: 0x10007AC64, symSize: 0x5C }
  - { offsetInCU: 0x20925, offset: 0x50879, size: 0x8, addend: 0x0, symName: __ZN10ImDrawListD2Ev, symObjAddr: 0x39538, symBinAddr: 0x10007ACC0, symSize: 0x84 }
  - { offsetInCU: 0x2094D, offset: 0x508A1, size: 0x8, addend: 0x0, symName: __ZN18ImDrawListSplitterD1Ev, symObjAddr: 0x395BC, symBinAddr: 0x10007AD44, symSize: 0x2C }
  - { offsetInCU: 0x20975, offset: 0x508C9, size: 0x8, addend: 0x0, symName: __ZN18ImDrawListSplitterD2Ev, symObjAddr: 0x395E8, symBinAddr: 0x10007AD70, symSize: 0x40 }
  - { offsetInCU: 0x2099D, offset: 0x508F1, size: 0x8, addend: 0x0, symName: __ZN8ImVectorI13ImDrawChannelED1Ev, symObjAddr: 0x39628, symBinAddr: 0x10007ADB0, symSize: 0x2C }
  - { offsetInCU: 0x209C5, offset: 0x50919, size: 0x8, addend: 0x0, symName: __ZN8ImVectorI13ImDrawChannelED2Ev, symObjAddr: 0x39654, symBinAddr: 0x10007ADDC, symSize: 0x5C }
  - { offsetInCU: 0x209ED, offset: 0x50941, size: 0x8, addend: 0x0, symName: __ZN12ImGuiStorageD2Ev, symObjAddr: 0x396B0, symBinAddr: 0x10007AE38, symSize: 0x2C }
  - { offsetInCU: 0x20A19, offset: 0x5096D, size: 0x8, addend: 0x0, symName: __ZN8ImVectorIN12ImGuiStorage16ImGuiStoragePairEED1Ev, symObjAddr: 0x396DC, symBinAddr: 0x10007AE64, symSize: 0x2C }
  - { offsetInCU: 0x20A41, offset: 0x50995, size: 0x8, addend: 0x0, symName: __ZN8ImVectorIN12ImGuiStorage16ImGuiStoragePairEED2Ev, symObjAddr: 0x39708, symBinAddr: 0x10007AE90, symSize: 0x5C }
  - { offsetInCU: 0x20A69, offset: 0x509BD, size: 0x8, addend: 0x0, symName: __ZN19ImGuiWindowTempDataD2Ev, symObjAddr: 0x39764, symBinAddr: 0x10007AEEC, symSize: 0x48 }
  - { offsetInCU: 0x20A95, offset: 0x509E9, size: 0x8, addend: 0x0, symName: __ZL13MallocWrappermPv, symObjAddr: 0x397AC, symBinAddr: 0x10007AF34, symSize: 0x28 }
  - { offsetInCU: 0x20AD3, offset: 0x50A27, size: 0x8, addend: 0x0, symName: __ZL11FreeWrapperPvS_, symObjAddr: 0x397D4, symBinAddr: 0x10007AF5C, symSize: 0x28 }
  - { offsetInCU: 0x20B0D, offset: 0x50A61, size: 0x8, addend: 0x0, symName: __ZN12ImGuiContextC2EP11ImFontAtlas, symObjAddr: 0x397FC, symBinAddr: 0x10007AF84, symSize: 0x114C }
  - { offsetInCU: 0x20B44, offset: 0x50A98, size: 0x8, addend: 0x0, symName: __ZN8ImVectorI15ImGuiInputEventEC1Ev, symObjAddr: 0x3A948, symBinAddr: 0x10007C0D0, symSize: 0x2C }
  - { offsetInCU: 0x20B6C, offset: 0x50AC0, size: 0x8, addend: 0x0, symName: __ZN8ImVectorI20ImGuiWindowStackDataEC1Ev, symObjAddr: 0x3A974, symBinAddr: 0x10007C0FC, symSize: 0x2C }
  - { offsetInCU: 0x20B94, offset: 0x50AE8, size: 0x8, addend: 0x0, symName: __ZN10ImBitArrayILi133ELin512EEC1Ev, symObjAddr: 0x3A9A0, symBinAddr: 0x10007C128, symSize: 0x2C }
  - { offsetInCU: 0x20BBC, offset: 0x50B10, size: 0x8, addend: 0x0, symName: __ZN17ImGuiNextItemDataC1Ev, symObjAddr: 0x3A9CC, symBinAddr: 0x10007C154, symSize: 0x2C }
  - { offsetInCU: 0x20BE4, offset: 0x50B38, size: 0x8, addend: 0x0, symName: __ZN17ImGuiLastItemDataC1Ev, symObjAddr: 0x3A9F8, symBinAddr: 0x10007C180, symSize: 0x2C }
  - { offsetInCU: 0x20C0C, offset: 0x50B60, size: 0x8, addend: 0x0, symName: __ZN19ImGuiNextWindowDataC1Ev, symObjAddr: 0x3AA24, symBinAddr: 0x10007C1AC, symSize: 0x2C }
  - { offsetInCU: 0x20C34, offset: 0x50B88, size: 0x8, addend: 0x0, symName: __ZN8ImVectorI13ImGuiColorModEC1Ev, symObjAddr: 0x3AA50, symBinAddr: 0x10007C1D8, symSize: 0x2C }
  - { offsetInCU: 0x20C5C, offset: 0x50BB0, size: 0x8, addend: 0x0, symName: __ZN8ImVectorI13ImGuiStyleModEC1Ev, symObjAddr: 0x3AA7C, symBinAddr: 0x10007C204, symSize: 0x2C }
  - { offsetInCU: 0x20C84, offset: 0x50BD8, size: 0x8, addend: 0x0, symName: __ZN8ImVectorIP6ImFontEC1Ev, symObjAddr: 0x3AAA8, symBinAddr: 0x10007C230, symSize: 0x2C }
  - { offsetInCU: 0x20CAC, offset: 0x50C00, size: 0x8, addend: 0x0, symName: __ZN8ImVectorIiEC1Ev, symObjAddr: 0x3AAD4, symBinAddr: 0x10007C25C, symSize: 0x2C }
  - { offsetInCU: 0x20CD4, offset: 0x50C28, size: 0x8, addend: 0x0, symName: __ZN8ImVectorI14ImGuiGroupDataEC1Ev, symObjAddr: 0x3AB00, symBinAddr: 0x10007C288, symSize: 0x2C }
  - { offsetInCU: 0x20CFC, offset: 0x50C50, size: 0x8, addend: 0x0, symName: __ZN8ImVectorI14ImGuiPopupDataEC1Ev, symObjAddr: 0x3AB2C, symBinAddr: 0x10007C2B4, symSize: 0x2C }
  - { offsetInCU: 0x20D24, offset: 0x50C78, size: 0x8, addend: 0x0, symName: __ZN8ImVectorIP14ImGuiViewportPEC1Ev, symObjAddr: 0x3AB58, symBinAddr: 0x10007C2E0, symSize: 0x2C }
  - { offsetInCU: 0x20D4C, offset: 0x50CA0, size: 0x8, addend: 0x0, symName: __ZN16ImGuiNavItemDataC1Ev, symObjAddr: 0x3AB84, symBinAddr: 0x10007C30C, symSize: 0x2C }
  - { offsetInCU: 0x20D74, offset: 0x50CC8, size: 0x8, addend: 0x0, symName: __ZN12ImGuiPayloadC1Ev, symObjAddr: 0x3ABB0, symBinAddr: 0x10007C338, symSize: 0x2C }
  - { offsetInCU: 0x20D9C, offset: 0x50CF0, size: 0x8, addend: 0x0, symName: __ZN8ImVectorIhEC1Ev, symObjAddr: 0x3ABDC, symBinAddr: 0x10007C364, symSize: 0x2C }
  - { offsetInCU: 0x20DC4, offset: 0x50D18, size: 0x8, addend: 0x0, symName: __ZN8ImVectorI20ImGuiListClipperDataEC1Ev, symObjAddr: 0x3AC08, symBinAddr: 0x10007C390, symSize: 0x2C }
  - { offsetInCU: 0x20DEC, offset: 0x50D40, size: 0x8, addend: 0x0, symName: __ZN8ImVectorI18ImGuiTableTempDataEC1Ev, symObjAddr: 0x3AC34, symBinAddr: 0x10007C3BC, symSize: 0x2C }
  - { offsetInCU: 0x20E14, offset: 0x50D68, size: 0x8, addend: 0x0, symName: __ZN6ImPoolI10ImGuiTableEC1Ev, symObjAddr: 0x3AC60, symBinAddr: 0x10007C3E8, symSize: 0x2C }
  - { offsetInCU: 0x20E3C, offset: 0x50D90, size: 0x8, addend: 0x0, symName: __ZN6ImPoolI11ImGuiTabBarEC1Ev, symObjAddr: 0x3AC8C, symBinAddr: 0x10007C414, symSize: 0x2C }
  - { offsetInCU: 0x20E64, offset: 0x50DB8, size: 0x8, addend: 0x0, symName: __ZN8ImVectorI15ImGuiPtrOrIndexEC1Ev, symObjAddr: 0x3ACB8, symBinAddr: 0x10007C440, symSize: 0x2C }
  - { offsetInCU: 0x20E8C, offset: 0x50DE0, size: 0x8, addend: 0x0, symName: __ZN8ImVectorI20ImGuiShrinkWidthItemEC1Ev, symObjAddr: 0x3ACE4, symBinAddr: 0x10007C46C, symSize: 0x2C }
  - { offsetInCU: 0x20EB4, offset: 0x50E08, size: 0x8, addend: 0x0, symName: __ZN19ImGuiInputTextStateC1Ev, symObjAddr: 0x3AD10, symBinAddr: 0x10007C498, symSize: 0x2C }
  - { offsetInCU: 0x20EDC, offset: 0x50E30, size: 0x8, addend: 0x0, symName: __ZN21ImGuiComboPreviewDataC1Ev, symObjAddr: 0x3AD3C, symBinAddr: 0x10007C4C4, symSize: 0x2C }
  - { offsetInCU: 0x20F04, offset: 0x50E58, size: 0x8, addend: 0x0, symName: __ZN8ImVectorIcEC1Ev, symObjAddr: 0x3AD68, symBinAddr: 0x10007C4F0, symSize: 0x2C }
  - { offsetInCU: 0x20F2C, offset: 0x50E80, size: 0x8, addend: 0x0, symName: __ZN20ImGuiPlatformImeDataC1Ev, symObjAddr: 0x3AD94, symBinAddr: 0x10007C51C, symSize: 0x2C }
  - { offsetInCU: 0x20F54, offset: 0x50EA8, size: 0x8, addend: 0x0, symName: __ZN15ImGuiTextBufferC1Ev, symObjAddr: 0x3ADC0, symBinAddr: 0x10007C548, symSize: 0x2C }
  - { offsetInCU: 0x20F7C, offset: 0x50ED0, size: 0x8, addend: 0x0, symName: __ZN8ImVectorI20ImGuiSettingsHandlerEC1Ev, symObjAddr: 0x3ADEC, symBinAddr: 0x10007C574, symSize: 0x2C }
  - { offsetInCU: 0x20FA4, offset: 0x50EF8, size: 0x8, addend: 0x0, symName: __ZN13ImChunkStreamI19ImGuiWindowSettingsEC1Ev, symObjAddr: 0x3AE18, symBinAddr: 0x10007C5A0, symSize: 0x2C }
  - { offsetInCU: 0x20FD0, offset: 0x50F24, size: 0x8, addend: 0x0, symName: __ZN13ImChunkStreamI18ImGuiTableSettingsEC1Ev, symObjAddr: 0x3AE44, symBinAddr: 0x10007C5CC, symSize: 0x2C }
  - { offsetInCU: 0x20FFC, offset: 0x50F50, size: 0x8, addend: 0x0, symName: __ZN8ImVectorI16ImGuiContextHookEC1Ev, symObjAddr: 0x3AE70, symBinAddr: 0x10007C5F8, symSize: 0x2C }
  - { offsetInCU: 0x21024, offset: 0x50F78, size: 0x8, addend: 0x0, symName: __ZN18ImGuiMetricsConfigC1Ev, symObjAddr: 0x3AE9C, symBinAddr: 0x10007C624, symSize: 0x2C }
  - { offsetInCU: 0x2104C, offset: 0x50FA0, size: 0x8, addend: 0x0, symName: __ZN14ImGuiStackToolC1Ev, symObjAddr: 0x3AEC8, symBinAddr: 0x10007C650, symSize: 0x2C }
  - { offsetInCU: 0x21074, offset: 0x50FC8, size: 0x8, addend: 0x0, symName: __ZN8ImVectorIcED1Ev, symObjAddr: 0x3AEF4, symBinAddr: 0x10007C67C, symSize: 0x2C }
  - { offsetInCU: 0x2109C, offset: 0x50FF0, size: 0x8, addend: 0x0, symName: __ZN14ImGuiStackToolD1Ev, symObjAddr: 0x3AF20, symBinAddr: 0x10007C6A8, symSize: 0x2C }
  - { offsetInCU: 0x210C8, offset: 0x5101C, size: 0x8, addend: 0x0, symName: __ZN15ImGuiTextBufferD1Ev, symObjAddr: 0x3AF4C, symBinAddr: 0x10007C6D4, symSize: 0x2C }
  - { offsetInCU: 0x210F4, offset: 0x51048, size: 0x8, addend: 0x0, symName: __ZN8ImVectorI16ImGuiContextHookED1Ev, symObjAddr: 0x3AF78, symBinAddr: 0x10007C700, symSize: 0x2C }
  - { offsetInCU: 0x2111C, offset: 0x51070, size: 0x8, addend: 0x0, symName: __ZN13ImChunkStreamI18ImGuiTableSettingsED1Ev, symObjAddr: 0x3AFA4, symBinAddr: 0x10007C72C, symSize: 0x2C }
  - { offsetInCU: 0x21148, offset: 0x5109C, size: 0x8, addend: 0x0, symName: __ZN13ImChunkStreamI19ImGuiWindowSettingsED1Ev, symObjAddr: 0x3AFD0, symBinAddr: 0x10007C758, symSize: 0x2C }
  - { offsetInCU: 0x21174, offset: 0x510C8, size: 0x8, addend: 0x0, symName: __ZN8ImVectorI20ImGuiSettingsHandlerED1Ev, symObjAddr: 0x3AFFC, symBinAddr: 0x10007C784, symSize: 0x2C }
  - { offsetInCU: 0x2119C, offset: 0x510F0, size: 0x8, addend: 0x0, symName: __ZN19ImGuiInputTextStateD1Ev, symObjAddr: 0x3B028, symBinAddr: 0x10007C7B0, symSize: 0x2C }
  - { offsetInCU: 0x211C8, offset: 0x5111C, size: 0x8, addend: 0x0, symName: __ZN8ImVectorI20ImGuiShrinkWidthItemED1Ev, symObjAddr: 0x3B054, symBinAddr: 0x10007C7DC, symSize: 0x2C }
  - { offsetInCU: 0x211F0, offset: 0x51144, size: 0x8, addend: 0x0, symName: __ZN8ImVectorI15ImGuiPtrOrIndexED1Ev, symObjAddr: 0x3B080, symBinAddr: 0x10007C808, symSize: 0x2C }
  - { offsetInCU: 0x21218, offset: 0x5116C, size: 0x8, addend: 0x0, symName: __ZN6ImPoolI11ImGuiTabBarED1Ev, symObjAddr: 0x3B0AC, symBinAddr: 0x10007C834, symSize: 0x2C }
  - { offsetInCU: 0x21240, offset: 0x51194, size: 0x8, addend: 0x0, symName: __ZN6ImPoolI10ImGuiTableED1Ev, symObjAddr: 0x3B0D8, symBinAddr: 0x10007C860, symSize: 0x2C }
  - { offsetInCU: 0x21268, offset: 0x511BC, size: 0x8, addend: 0x0, symName: __ZN8ImVectorI18ImGuiTableTempDataED1Ev, symObjAddr: 0x3B104, symBinAddr: 0x10007C88C, symSize: 0x2C }
  - { offsetInCU: 0x21290, offset: 0x511E4, size: 0x8, addend: 0x0, symName: __ZN8ImVectorI20ImGuiListClipperDataED1Ev, symObjAddr: 0x3B130, symBinAddr: 0x10007C8B8, symSize: 0x2C }
  - { offsetInCU: 0x212B8, offset: 0x5120C, size: 0x8, addend: 0x0, symName: __ZN8ImVectorIhED1Ev, symObjAddr: 0x3B15C, symBinAddr: 0x10007C8E4, symSize: 0x2C }
  - { offsetInCU: 0x212E0, offset: 0x51234, size: 0x8, addend: 0x0, symName: __ZN8ImVectorIP14ImGuiViewportPED1Ev, symObjAddr: 0x3B188, symBinAddr: 0x10007C910, symSize: 0x2C }
  - { offsetInCU: 0x21308, offset: 0x5125C, size: 0x8, addend: 0x0, symName: __ZN8ImVectorI14ImGuiPopupDataED1Ev, symObjAddr: 0x3B1B4, symBinAddr: 0x10007C93C, symSize: 0x2C }
  - { offsetInCU: 0x21330, offset: 0x51284, size: 0x8, addend: 0x0, symName: __ZN8ImVectorI14ImGuiGroupDataED1Ev, symObjAddr: 0x3B1E0, symBinAddr: 0x10007C968, symSize: 0x2C }
  - { offsetInCU: 0x21358, offset: 0x512AC, size: 0x8, addend: 0x0, symName: __ZN8ImVectorIiED1Ev, symObjAddr: 0x3B20C, symBinAddr: 0x10007C994, symSize: 0x2C }
  - { offsetInCU: 0x21380, offset: 0x512D4, size: 0x8, addend: 0x0, symName: __ZN8ImVectorIP6ImFontED1Ev, symObjAddr: 0x3B238, symBinAddr: 0x10007C9C0, symSize: 0x2C }
  - { offsetInCU: 0x213A8, offset: 0x512FC, size: 0x8, addend: 0x0, symName: __ZN8ImVectorI13ImGuiStyleModED1Ev, symObjAddr: 0x3B264, symBinAddr: 0x10007C9EC, symSize: 0x2C }
  - { offsetInCU: 0x213D0, offset: 0x51324, size: 0x8, addend: 0x0, symName: __ZN8ImVectorI13ImGuiColorModED1Ev, symObjAddr: 0x3B290, symBinAddr: 0x10007CA18, symSize: 0x2C }
  - { offsetInCU: 0x213F8, offset: 0x5134C, size: 0x8, addend: 0x0, symName: __ZN8ImVectorI20ImGuiWindowStackDataED1Ev, symObjAddr: 0x3B2BC, symBinAddr: 0x10007CA44, symSize: 0x2C }
  - { offsetInCU: 0x21420, offset: 0x51374, size: 0x8, addend: 0x0, symName: __ZN8ImVectorI15ImGuiInputEventED1Ev, symObjAddr: 0x3B2E8, symBinAddr: 0x10007CA70, symSize: 0x2C }
  - { offsetInCU: 0x21448, offset: 0x5139C, size: 0x8, addend: 0x0, symName: __ZN7ImGuiIOD1Ev, symObjAddr: 0x3B314, symBinAddr: 0x10007CA9C, symSize: 0x2C }
  - { offsetInCU: 0x21474, offset: 0x513C8, size: 0x8, addend: 0x0, symName: __ZN8ImVectorI15ImGuiInputEventEC2Ev, symObjAddr: 0x3B340, symBinAddr: 0x10007CAC8, symSize: 0x20 }
  - { offsetInCU: 0x2149D, offset: 0x513F1, size: 0x8, addend: 0x0, symName: __ZN8ImVectorI20ImGuiWindowStackDataEC2Ev, symObjAddr: 0x3B360, symBinAddr: 0x10007CAE8, symSize: 0x20 }
  - { offsetInCU: 0x214C6, offset: 0x5141A, size: 0x8, addend: 0x0, symName: __ZN10ImBitArrayILi133ELin512EEC2Ev, symObjAddr: 0x3B380, symBinAddr: 0x10007CB08, symSize: 0x2C }
  - { offsetInCU: 0x214EE, offset: 0x51442, size: 0x8, addend: 0x0, symName: __ZN17ImGuiNextItemDataC2Ev, symObjAddr: 0x3B3AC, symBinAddr: 0x10007CB34, symSize: 0x20 }
  - { offsetInCU: 0x21517, offset: 0x5146B, size: 0x8, addend: 0x0, symName: __ZN17ImGuiLastItemDataC2Ev, symObjAddr: 0x3B3CC, symBinAddr: 0x10007CB54, symSize: 0x58 }
  - { offsetInCU: 0x2153F, offset: 0x51493, size: 0x8, addend: 0x0, symName: __ZN19ImGuiNextWindowDataC2Ev, symObjAddr: 0x3B424, symBinAddr: 0x10007CBAC, symSize: 0x88 }
  - { offsetInCU: 0x21567, offset: 0x514BB, size: 0x8, addend: 0x0, symName: __ZN8ImVectorI13ImGuiColorModEC2Ev, symObjAddr: 0x3B4AC, symBinAddr: 0x10007CC34, symSize: 0x20 }
  - { offsetInCU: 0x21590, offset: 0x514E4, size: 0x8, addend: 0x0, symName: __ZN8ImVectorI13ImGuiStyleModEC2Ev, symObjAddr: 0x3B4CC, symBinAddr: 0x10007CC54, symSize: 0x20 }
  - { offsetInCU: 0x215B9, offset: 0x5150D, size: 0x8, addend: 0x0, symName: __ZN8ImVectorIP6ImFontEC2Ev, symObjAddr: 0x3B4EC, symBinAddr: 0x10007CC74, symSize: 0x20 }
  - { offsetInCU: 0x215E2, offset: 0x51536, size: 0x8, addend: 0x0, symName: __ZN8ImVectorIiEC2Ev, symObjAddr: 0x3B50C, symBinAddr: 0x10007CC94, symSize: 0x20 }
  - { offsetInCU: 0x2160B, offset: 0x5155F, size: 0x8, addend: 0x0, symName: __ZN8ImVectorI14ImGuiGroupDataEC2Ev, symObjAddr: 0x3B52C, symBinAddr: 0x10007CCB4, symSize: 0x20 }
  - { offsetInCU: 0x21634, offset: 0x51588, size: 0x8, addend: 0x0, symName: __ZN8ImVectorI14ImGuiPopupDataEC2Ev, symObjAddr: 0x3B54C, symBinAddr: 0x10007CCD4, symSize: 0x20 }
  - { offsetInCU: 0x2165D, offset: 0x515B1, size: 0x8, addend: 0x0, symName: __ZN8ImVectorIP14ImGuiViewportPEC2Ev, symObjAddr: 0x3B56C, symBinAddr: 0x10007CCF4, symSize: 0x20 }
  - { offsetInCU: 0x21686, offset: 0x515DA, size: 0x8, addend: 0x0, symName: __ZN16ImGuiNavItemDataC2Ev, symObjAddr: 0x3B58C, symBinAddr: 0x10007CD14, symSize: 0x38 }
  - { offsetInCU: 0x216AE, offset: 0x51602, size: 0x8, addend: 0x0, symName: __ZN12ImGuiPayloadC2Ev, symObjAddr: 0x3B5C4, symBinAddr: 0x10007CD4C, symSize: 0x2C }
  - { offsetInCU: 0x216D6, offset: 0x5162A, size: 0x8, addend: 0x0, symName: __ZN8ImVectorIhEC2Ev, symObjAddr: 0x3B5F0, symBinAddr: 0x10007CD78, symSize: 0x20 }
  - { offsetInCU: 0x216FF, offset: 0x51653, size: 0x8, addend: 0x0, symName: __ZN8ImVectorI20ImGuiListClipperDataEC2Ev, symObjAddr: 0x3B610, symBinAddr: 0x10007CD98, symSize: 0x20 }
  - { offsetInCU: 0x21728, offset: 0x5167C, size: 0x8, addend: 0x0, symName: __ZN8ImVectorI18ImGuiTableTempDataEC2Ev, symObjAddr: 0x3B630, symBinAddr: 0x10007CDB8, symSize: 0x20 }
  - { offsetInCU: 0x21751, offset: 0x516A5, size: 0x8, addend: 0x0, symName: __ZN6ImPoolI10ImGuiTableEC2Ev, symObjAddr: 0x3B650, symBinAddr: 0x10007CDD8, symSize: 0x68 }
  - { offsetInCU: 0x21779, offset: 0x516CD, size: 0x8, addend: 0x0, symName: __ZN8ImVectorI10ImGuiTableEC1Ev, symObjAddr: 0x3B6B8, symBinAddr: 0x10007CE40, symSize: 0x2C }
  - { offsetInCU: 0x217A1, offset: 0x516F5, size: 0x8, addend: 0x0, symName: __ZN8ImVectorI10ImGuiTableED1Ev, symObjAddr: 0x3B6E4, symBinAddr: 0x10007CE6C, symSize: 0x2C }
  - { offsetInCU: 0x217C9, offset: 0x5171D, size: 0x8, addend: 0x0, symName: __ZN8ImVectorI10ImGuiTableEC2Ev, symObjAddr: 0x3B710, symBinAddr: 0x10007CE98, symSize: 0x20 }
  - { offsetInCU: 0x217F2, offset: 0x51746, size: 0x8, addend: 0x0, symName: __ZN8ImVectorI10ImGuiTableED2Ev, symObjAddr: 0x3B730, symBinAddr: 0x10007CEB8, symSize: 0x5C }
  - { offsetInCU: 0x2181A, offset: 0x5176E, size: 0x8, addend: 0x0, symName: __ZN6ImPoolI11ImGuiTabBarEC2Ev, symObjAddr: 0x3B78C, symBinAddr: 0x10007CF14, symSize: 0x68 }
  - { offsetInCU: 0x21842, offset: 0x51796, size: 0x8, addend: 0x0, symName: __ZN8ImVectorI11ImGuiTabBarEC1Ev, symObjAddr: 0x3B7F4, symBinAddr: 0x10007CF7C, symSize: 0x2C }
  - { offsetInCU: 0x2186A, offset: 0x517BE, size: 0x8, addend: 0x0, symName: __ZN8ImVectorI11ImGuiTabBarED1Ev, symObjAddr: 0x3B820, symBinAddr: 0x10007CFA8, symSize: 0x2C }
  - { offsetInCU: 0x21892, offset: 0x517E6, size: 0x8, addend: 0x0, symName: __ZN8ImVectorI11ImGuiTabBarEC2Ev, symObjAddr: 0x3B84C, symBinAddr: 0x10007CFD4, symSize: 0x20 }
  - { offsetInCU: 0x218BB, offset: 0x5180F, size: 0x8, addend: 0x0, symName: __ZN8ImVectorI11ImGuiTabBarED2Ev, symObjAddr: 0x3B86C, symBinAddr: 0x10007CFF4, symSize: 0x5C }
  - { offsetInCU: 0x218E3, offset: 0x51837, size: 0x8, addend: 0x0, symName: __ZN8ImVectorI15ImGuiPtrOrIndexEC2Ev, symObjAddr: 0x3B8C8, symBinAddr: 0x10007D050, symSize: 0x20 }
  - { offsetInCU: 0x2190C, offset: 0x51860, size: 0x8, addend: 0x0, symName: __ZN8ImVectorI20ImGuiShrinkWidthItemEC2Ev, symObjAddr: 0x3B8E8, symBinAddr: 0x10007D070, symSize: 0x20 }
  - { offsetInCU: 0x21935, offset: 0x51889, size: 0x8, addend: 0x0, symName: __ZN19ImGuiInputTextStateC2Ev, symObjAddr: 0x3B908, symBinAddr: 0x10007D090, symSize: 0xA4 }
  - { offsetInCU: 0x2195D, offset: 0x518B1, size: 0x8, addend: 0x0, symName: __ZN21ImGuiComboPreviewDataC2Ev, symObjAddr: 0x3B9AC, symBinAddr: 0x10007D134, symSize: 0x60 }
  - { offsetInCU: 0x21985, offset: 0x518D9, size: 0x8, addend: 0x0, symName: __ZN8ImVectorIcEC2Ev, symObjAddr: 0x3BA0C, symBinAddr: 0x10007D194, symSize: 0x20 }
  - { offsetInCU: 0x219AE, offset: 0x51902, size: 0x8, addend: 0x0, symName: __ZN20ImGuiPlatformImeDataC2Ev, symObjAddr: 0x3BA2C, symBinAddr: 0x10007D1B4, symSize: 0x38 }
  - { offsetInCU: 0x219D6, offset: 0x5192A, size: 0x8, addend: 0x0, symName: __ZN15ImGuiTextBufferC2Ev, symObjAddr: 0x3BA64, symBinAddr: 0x10007D1EC, symSize: 0x2C }
  - { offsetInCU: 0x219FE, offset: 0x51952, size: 0x8, addend: 0x0, symName: __ZN8ImVectorI20ImGuiSettingsHandlerEC2Ev, symObjAddr: 0x3BA90, symBinAddr: 0x10007D218, symSize: 0x20 }
  - { offsetInCU: 0x21A27, offset: 0x5197B, size: 0x8, addend: 0x0, symName: __ZN13ImChunkStreamI19ImGuiWindowSettingsEC2Ev, symObjAddr: 0x3BAB0, symBinAddr: 0x10007D238, symSize: 0x2C }
  - { offsetInCU: 0x21A53, offset: 0x519A7, size: 0x8, addend: 0x0, symName: __ZN13ImChunkStreamI18ImGuiTableSettingsEC2Ev, symObjAddr: 0x3BADC, symBinAddr: 0x10007D264, symSize: 0x2C }
  - { offsetInCU: 0x21A7F, offset: 0x519D3, size: 0x8, addend: 0x0, symName: __ZN8ImVectorI16ImGuiContextHookEC2Ev, symObjAddr: 0x3BB08, symBinAddr: 0x10007D290, symSize: 0x20 }
  - { offsetInCU: 0x21AA8, offset: 0x519FC, size: 0x8, addend: 0x0, symName: __ZN18ImGuiMetricsConfigC2Ev, symObjAddr: 0x3BB28, symBinAddr: 0x10007D2B0, symSize: 0x40 }
  - { offsetInCU: 0x21AD1, offset: 0x51A25, size: 0x8, addend: 0x0, symName: __ZN14ImGuiStackToolC2Ev, symObjAddr: 0x3BB68, symBinAddr: 0x10007D2F0, symSize: 0x4C }
  - { offsetInCU: 0x21AF9, offset: 0x51A4D, size: 0x8, addend: 0x0, symName: __ZN8ImVectorI19ImGuiStackLevelInfoEC1Ev, symObjAddr: 0x3BBB4, symBinAddr: 0x10007D33C, symSize: 0x2C }
  - { offsetInCU: 0x21B21, offset: 0x51A75, size: 0x8, addend: 0x0, symName: __ZN8ImVectorI19ImGuiStackLevelInfoEC2Ev, symObjAddr: 0x3BBE0, symBinAddr: 0x10007D368, symSize: 0x20 }
  - { offsetInCU: 0x21B4A, offset: 0x51A9E, size: 0x8, addend: 0x0, symName: __ZN8ImVectorIcED2Ev, symObjAddr: 0x3BC00, symBinAddr: 0x10007D388, symSize: 0x5C }
  - { offsetInCU: 0x21B72, offset: 0x51AC6, size: 0x8, addend: 0x0, symName: __ZN14ImGuiStackToolD2Ev, symObjAddr: 0x3BC5C, symBinAddr: 0x10007D3E4, symSize: 0x30 }
  - { offsetInCU: 0x21B9E, offset: 0x51AF2, size: 0x8, addend: 0x0, symName: __ZN8ImVectorI19ImGuiStackLevelInfoED1Ev, symObjAddr: 0x3BC8C, symBinAddr: 0x10007D414, symSize: 0x2C }
  - { offsetInCU: 0x21BC6, offset: 0x51B1A, size: 0x8, addend: 0x0, symName: __ZN8ImVectorI19ImGuiStackLevelInfoED2Ev, symObjAddr: 0x3BCB8, symBinAddr: 0x10007D440, symSize: 0x5C }
  - { offsetInCU: 0x21BEE, offset: 0x51B42, size: 0x8, addend: 0x0, symName: __ZN15ImGuiTextBufferD2Ev, symObjAddr: 0x3BD14, symBinAddr: 0x10007D49C, symSize: 0x2C }
  - { offsetInCU: 0x21C1A, offset: 0x51B6E, size: 0x8, addend: 0x0, symName: __ZN8ImVectorI16ImGuiContextHookED2Ev, symObjAddr: 0x3BD40, symBinAddr: 0x10007D4C8, symSize: 0x5C }
  - { offsetInCU: 0x21C42, offset: 0x51B96, size: 0x8, addend: 0x0, symName: __ZN13ImChunkStreamI18ImGuiTableSettingsED2Ev, symObjAddr: 0x3BD9C, symBinAddr: 0x10007D524, symSize: 0x2C }
  - { offsetInCU: 0x21C6E, offset: 0x51BC2, size: 0x8, addend: 0x0, symName: __ZN13ImChunkStreamI19ImGuiWindowSettingsED2Ev, symObjAddr: 0x3BDC8, symBinAddr: 0x10007D550, symSize: 0x2C }
  - { offsetInCU: 0x21C9A, offset: 0x51BEE, size: 0x8, addend: 0x0, symName: __ZN8ImVectorI20ImGuiSettingsHandlerED2Ev, symObjAddr: 0x3BDF4, symBinAddr: 0x10007D57C, symSize: 0x5C }
  - { offsetInCU: 0x21CC2, offset: 0x51C16, size: 0x8, addend: 0x0, symName: __ZN19ImGuiInputTextStateD2Ev, symObjAddr: 0x3BE50, symBinAddr: 0x10007D5D8, symSize: 0x48 }
  - { offsetInCU: 0x21CEE, offset: 0x51C42, size: 0x8, addend: 0x0, symName: __ZN8ImVectorI20ImGuiShrinkWidthItemED2Ev, symObjAddr: 0x3BE98, symBinAddr: 0x10007D620, symSize: 0x5C }
  - { offsetInCU: 0x21D16, offset: 0x51C6A, size: 0x8, addend: 0x0, symName: __ZN8ImVectorI15ImGuiPtrOrIndexED2Ev, symObjAddr: 0x3BEF4, symBinAddr: 0x10007D67C, symSize: 0x5C }
  - { offsetInCU: 0x21D3E, offset: 0x51C92, size: 0x8, addend: 0x0, symName: __ZN6ImPoolI11ImGuiTabBarED2Ev, symObjAddr: 0x3BF50, symBinAddr: 0x10007D6D8, symSize: 0x48 }
  - { offsetInCU: 0x21D66, offset: 0x51CBA, size: 0x8, addend: 0x0, symName: __ZN6ImPoolI10ImGuiTableED2Ev, symObjAddr: 0x3BF98, symBinAddr: 0x10007D720, symSize: 0x48 }
  - { offsetInCU: 0x21D8E, offset: 0x51CE2, size: 0x8, addend: 0x0, symName: __ZN8ImVectorI18ImGuiTableTempDataED2Ev, symObjAddr: 0x3BFE0, symBinAddr: 0x10007D768, symSize: 0x5C }
  - { offsetInCU: 0x21DB6, offset: 0x51D0A, size: 0x8, addend: 0x0, symName: __ZN8ImVectorI20ImGuiListClipperDataED2Ev, symObjAddr: 0x3C03C, symBinAddr: 0x10007D7C4, symSize: 0x5C }
  - { offsetInCU: 0x21DDE, offset: 0x51D32, size: 0x8, addend: 0x0, symName: __ZN8ImVectorIhED2Ev, symObjAddr: 0x3C098, symBinAddr: 0x10007D820, symSize: 0x5C }
  - { offsetInCU: 0x21E06, offset: 0x51D5A, size: 0x8, addend: 0x0, symName: __ZN8ImVectorIP14ImGuiViewportPED2Ev, symObjAddr: 0x3C0F4, symBinAddr: 0x10007D87C, symSize: 0x5C }
  - { offsetInCU: 0x21E2E, offset: 0x51D82, size: 0x8, addend: 0x0, symName: __ZN8ImVectorI14ImGuiPopupDataED2Ev, symObjAddr: 0x3C150, symBinAddr: 0x10007D8D8, symSize: 0x5C }
  - { offsetInCU: 0x21E56, offset: 0x51DAA, size: 0x8, addend: 0x0, symName: __ZN8ImVectorI14ImGuiGroupDataED2Ev, symObjAddr: 0x3C1AC, symBinAddr: 0x10007D934, symSize: 0x5C }
  - { offsetInCU: 0x21E7E, offset: 0x51DD2, size: 0x8, addend: 0x0, symName: __ZN8ImVectorIiED2Ev, symObjAddr: 0x3C208, symBinAddr: 0x10007D990, symSize: 0x5C }
  - { offsetInCU: 0x21EA6, offset: 0x51DFA, size: 0x8, addend: 0x0, symName: __ZN8ImVectorIP6ImFontED2Ev, symObjAddr: 0x3C264, symBinAddr: 0x10007D9EC, symSize: 0x5C }
  - { offsetInCU: 0x21ECE, offset: 0x51E22, size: 0x8, addend: 0x0, symName: __ZN8ImVectorI13ImGuiStyleModED2Ev, symObjAddr: 0x3C2C0, symBinAddr: 0x10007DA48, symSize: 0x5C }
  - { offsetInCU: 0x21EF6, offset: 0x51E4A, size: 0x8, addend: 0x0, symName: __ZN8ImVectorI13ImGuiColorModED2Ev, symObjAddr: 0x3C31C, symBinAddr: 0x10007DAA4, symSize: 0x5C }
  - { offsetInCU: 0x21F1E, offset: 0x51E72, size: 0x8, addend: 0x0, symName: __ZN8ImVectorI20ImGuiWindowStackDataED2Ev, symObjAddr: 0x3C378, symBinAddr: 0x10007DB00, symSize: 0x5C }
  - { offsetInCU: 0x21F46, offset: 0x51E9A, size: 0x8, addend: 0x0, symName: __ZN8ImVectorI15ImGuiInputEventED2Ev, symObjAddr: 0x3C3D4, symBinAddr: 0x10007DB5C, symSize: 0x5C }
  - { offsetInCU: 0x21F6E, offset: 0x51EC2, size: 0x8, addend: 0x0, symName: __ZN7ImGuiIOD2Ev, symObjAddr: 0x3C430, symBinAddr: 0x10007DBB8, symSize: 0x34 }
  - { offsetInCU: 0x21F9A, offset: 0x51EEE, size: 0x8, addend: 0x0, symName: __ZN6ImRectC2Effff, symObjAddr: 0x3C464, symBinAddr: 0x10007DBEC, symSize: 0x58 }
  - { offsetInCU: 0x21FFE, offset: 0x51F52, size: 0x8, addend: 0x0, symName: __ZL13ImFloorSignedRK6ImVec2, symObjAddr: 0x3C4BC, symBinAddr: 0x10007DC44, symSize: 0x50 }
  - { offsetInCU: 0x2202D, offset: 0x51F81, size: 0x8, addend: 0x0, symName: __ZL23StartLockWheelingWindowP11ImGuiWindow, symObjAddr: 0x3C50C, symBinAddr: 0x10007DC94, symSize: 0x6C }
  - { offsetInCU: 0x22067, offset: 0x51FBB, size: 0x8, addend: 0x0, symName: __ZL7ImClampIfET_S0_S0_S0_, symObjAddr: 0x3C578, symBinAddr: 0x10007DD00, symSize: 0x7C }
  - { offsetInCU: 0x220BD, offset: 0x52011, size: 0x8, addend: 0x0, symName: __ZN20ImGuiSettingsHandlerC2Ev, symObjAddr: 0x3C5F4, symBinAddr: 0x10007DD7C, symSize: 0x34 }
  - { offsetInCU: 0x220E5, offset: 0x52039, size: 0x8, addend: 0x0, symName: __ZN14ImGuiViewportPC2Ev, symObjAddr: 0x3C628, symBinAddr: 0x10007DDB0, symSize: 0xC0 }
  - { offsetInCU: 0x2210D, offset: 0x52061, size: 0x8, addend: 0x0, symName: __ZN13ImGuiViewportC2Ev, symObjAddr: 0x3C6E8, symBinAddr: 0x10007DE70, symSize: 0x64 }
  - { offsetInCU: 0x22135, offset: 0x52089, size: 0x8, addend: 0x0, symName: __ZN10ImDrawDataC1Ev, symObjAddr: 0x3C74C, symBinAddr: 0x10007DED4, symSize: 0x2C }
  - { offsetInCU: 0x2215D, offset: 0x520B1, size: 0x8, addend: 0x0, symName: __ZN17ImDrawDataBuilderC1Ev, symObjAddr: 0x3C778, symBinAddr: 0x10007DF00, symSize: 0x2C }
  - { offsetInCU: 0x22189, offset: 0x520DD, size: 0x8, addend: 0x0, symName: __ZN17ImDrawDataBuilderD1Ev, symObjAddr: 0x3C7A4, symBinAddr: 0x10007DF2C, symSize: 0x2C }
  - { offsetInCU: 0x221B5, offset: 0x52109, size: 0x8, addend: 0x0, symName: __ZN10ImDrawDataC2Ev, symObjAddr: 0x3C7D0, symBinAddr: 0x10007DF58, symSize: 0x50 }
  - { offsetInCU: 0x221DD, offset: 0x52131, size: 0x8, addend: 0x0, symName: __ZN17ImDrawDataBuilderC2Ev, symObjAddr: 0x3C820, symBinAddr: 0x10007DFA8, symSize: 0xD0 }
  - { offsetInCU: 0x22209, offset: 0x5215D, size: 0x8, addend: 0x0, symName: __ZN8ImVectorIP10ImDrawListEC1Ev, symObjAddr: 0x3C8F0, symBinAddr: 0x10007E078, symSize: 0x2C }
  - { offsetInCU: 0x22231, offset: 0x52185, size: 0x8, addend: 0x0, symName: __ZN8ImVectorIP10ImDrawListED1Ev, symObjAddr: 0x3C91C, symBinAddr: 0x10007E0A4, symSize: 0x2C }
  - { offsetInCU: 0x22259, offset: 0x521AD, size: 0x8, addend: 0x0, symName: __ZN8ImVectorIP10ImDrawListEC2Ev, symObjAddr: 0x3C948, symBinAddr: 0x10007E0D0, symSize: 0x20 }
  - { offsetInCU: 0x22282, offset: 0x521D6, size: 0x8, addend: 0x0, symName: __ZN8ImVectorIP10ImDrawListED2Ev, symObjAddr: 0x3C968, symBinAddr: 0x10007E0F0, symSize: 0x5C }
  - { offsetInCU: 0x222AA, offset: 0x521FE, size: 0x8, addend: 0x0, symName: __ZN17ImDrawDataBuilderD2Ev, symObjAddr: 0x3C9C4, symBinAddr: 0x10007E14C, symSize: 0x64 }
  - { offsetInCU: 0x222D6, offset: 0x5222A, size: 0x8, addend: 0x0, symName: __ZN8ImVectorIN12ImGuiStorage16ImGuiStoragePairEE5clearEv, symObjAddr: 0x3CA28, symBinAddr: 0x10007E1B0, symSize: 0x58 }
  - { offsetInCU: 0x222FB, offset: 0x5224F, size: 0x8, addend: 0x0, symName: __ZN8ImVectorItE5clearEv, symObjAddr: 0x3CA80, symBinAddr: 0x10007E208, symSize: 0x58 }
  - { offsetInCU: 0x22320, offset: 0x52274, size: 0x8, addend: 0x0, symName: __ZN6ImRectC2ERK6ImVec4, symObjAddr: 0x3CAD8, symBinAddr: 0x10007E260, symSize: 0x5C }
  - { offsetInCU: 0x22357, offset: 0x522AB, size: 0x8, addend: 0x0, symName: __ZL19ChildWindowComparerPKvS0_, symObjAddr: 0x3CB34, symBinAddr: 0x10007E2BC, symSize: 0xCC }
  - { offsetInCU: 0x223DD, offset: 0x52331, size: 0x8, addend: 0x0, symName: __ZN8ImVectorIP10ImDrawListE9push_backERKS1_, symObjAddr: 0x3CC00, symBinAddr: 0x10007E388, symSize: 0x84 }
  - { offsetInCU: 0x22411, offset: 0x52365, size: 0x8, addend: 0x0, symName: __ZN8ImVectorIP10ImDrawListE7reserveEi, symObjAddr: 0x3CC84, symBinAddr: 0x10007E40C, symSize: 0xAC }
  - { offsetInCU: 0x22454, offset: 0x523A8, size: 0x8, addend: 0x0, symName: __ZNK8ImVectorIP10ImDrawListE14_grow_capacityEi, symObjAddr: 0x3CD30, symBinAddr: 0x10007E4B8, symSize: 0x98 }
  - { offsetInCU: 0x22497, offset: 0x523EB, size: 0x8, addend: 0x0, symName: __ZN6ImRect6ExpandEf, symObjAddr: 0x3CF80, symBinAddr: 0x10007E708, symSize: 0x58 }
  - { offsetInCU: 0x224CB, offset: 0x5241F, size: 0x8, addend: 0x0, symName: __ZN8ImVectorI9ImDrawCmdE8pop_backEv, symObjAddr: 0x3CFD8, symBinAddr: 0x10007E760, symSize: 0x6C }
  - { offsetInCU: 0x224F0, offset: 0x52444, size: 0x8, addend: 0x0, symName: __ZN8ImVectorI9ImDrawCmdE10push_frontERKS0_, symObjAddr: 0x3D044, symBinAddr: 0x10007E7CC, symSize: 0x60 }
  - { offsetInCU: 0x22524, offset: 0x52478, size: 0x8, addend: 0x0, symName: __ZN8ImVectorI9ImDrawCmdE9push_backERKS0_, symObjAddr: 0x3D0A4, symBinAddr: 0x10007E82C, symSize: 0x94 }
  - { offsetInCU: 0x22558, offset: 0x524AC, size: 0x8, addend: 0x0, symName: __ZN8ImVectorI9ImDrawCmdE6insertEPKS0_RS2_, symObjAddr: 0x3D138, symBinAddr: 0x10007E8C0, symSize: 0x1AC }
  - { offsetInCU: 0x225AA, offset: 0x524FE, size: 0x8, addend: 0x0, symName: __ZN8ImVectorI9ImDrawCmdE7reserveEi, symObjAddr: 0x3D2E4, symBinAddr: 0x10007EA6C, symSize: 0xB4 }
  - { offsetInCU: 0x225ED, offset: 0x52541, size: 0x8, addend: 0x0, symName: __ZNK8ImVectorI9ImDrawCmdE14_grow_capacityEi, symObjAddr: 0x3D398, symBinAddr: 0x10007EB20, symSize: 0x98 }
  - { offsetInCU: 0x22630, offset: 0x52584, size: 0x8, addend: 0x0, symName: __ZL19AddWindowToDrawDataP11ImGuiWindowi, symObjAddr: 0x3D430, symBinAddr: 0x10007EBB8, symSize: 0xE4 }
  - { offsetInCU: 0x226C2, offset: 0x52616, size: 0x8, addend: 0x0, symName: __ZN6ImRectC2ERK6ImVec2S2_, symObjAddr: 0x3D514, symBinAddr: 0x10007EC9C, symSize: 0x34 }
  - { offsetInCU: 0x2270E, offset: 0x52662, size: 0x8, addend: 0x0, symName: __ZN21ImGuiSizeCallbackDataC1Ev, symObjAddr: 0x3D548, symBinAddr: 0x10007ECD0, symSize: 0x2C }
  - { offsetInCU: 0x2273A, offset: 0x5268E, size: 0x8, addend: 0x0, symName: __ZN21ImGuiSizeCallbackDataC2Ev, symObjAddr: 0x3D574, symBinAddr: 0x10007ECFC, symSize: 0x48 }
  - { offsetInCU: 0x22766, offset: 0x526BA, size: 0x8, addend: 0x0, symName: __ZN13ImChunkStreamI19ImGuiWindowSettingsE15offset_from_ptrEPKS0_, symObjAddr: 0x3D5BC, symBinAddr: 0x10007ED44, symSize: 0xC0 }
  - { offsetInCU: 0x227A9, offset: 0x526FD, size: 0x8, addend: 0x0, symName: __ZL19ApplyWindowSettingsP11ImGuiWindowP19ImGuiWindowSettings, symObjAddr: 0x3D67C, symBinAddr: 0x10007EE04, symSize: 0x104 }
  - { offsetInCU: 0x227E3, offset: 0x52737, size: 0x8, addend: 0x0, symName: __ZN8ImVectorIP11ImGuiWindowE10push_frontERKS1_, symObjAddr: 0x3D780, symBinAddr: 0x10007EF08, symSize: 0x60 }
  - { offsetInCU: 0x22817, offset: 0x5276B, size: 0x8, addend: 0x0, symName: __ZN13ImChunkStreamI19ImGuiWindowSettingsE3endEv, symObjAddr: 0x3D7E0, symBinAddr: 0x10007EF68, symSize: 0x20 }
  - { offsetInCU: 0x2283C, offset: 0x52790, size: 0x8, addend: 0x0, symName: __ZN8ImVectorIP11ImGuiWindowE6insertEPKS1_RS3_, symObjAddr: 0x3D800, symBinAddr: 0x10007EF88, symSize: 0x178 }
  - { offsetInCU: 0x2288E, offset: 0x527E2, size: 0x8, addend: 0x0, symName: __ZNK8ImVectorIP11ImGuiWindowE14_grow_capacityEi, symObjAddr: 0x3D978, symBinAddr: 0x10007F100, symSize: 0x98 }
  - { offsetInCU: 0x228D1, offset: 0x52825, size: 0x8, addend: 0x0, symName: __ZNK8ImVectorIP11ImGuiWindowE8containsERKS1_, symObjAddr: 0x3DA10, symBinAddr: 0x10007F198, symSize: 0xA8 }
  - { offsetInCU: 0x22923, offset: 0x52877, size: 0x8, addend: 0x0, symName: __ZN8ImVectorIP11ImGuiWindowE5eraseEPKS1_, symObjAddr: 0x3DAB8, symBinAddr: 0x10007F240, symSize: 0x108 }
  - { offsetInCU: 0x22966, offset: 0x528BA, size: 0x8, addend: 0x0, symName: __ZN20ImGuiWindowStackDataC2Ev, symObjAddr: 0x3DBC0, symBinAddr: 0x10007F348, symSize: 0x3C }
  - { offsetInCU: 0x22992, offset: 0x528E6, size: 0x8, addend: 0x0, symName: __ZN15ImGuiStackSizesC1Ev, symObjAddr: 0x3DBFC, symBinAddr: 0x10007F384, symSize: 0x2C }
  - { offsetInCU: 0x229BA, offset: 0x5290E, size: 0x8, addend: 0x0, symName: __ZN15ImGuiStackSizesC2Ev, symObjAddr: 0x3DC28, symBinAddr: 0x10007F3B0, symSize: 0x20 }
  - { offsetInCU: 0x229E3, offset: 0x52937, size: 0x8, addend: 0x0, symName: __ZL6ImLerpRK6ImVec2S1_S1_, symObjAddr: 0x3DC48, symBinAddr: 0x10007F3D0, symSize: 0x84 }
  - { offsetInCU: 0x22A30, offset: 0x52984, size: 0x8, addend: 0x0, symName: __ZL30CalcResizePosSizeFromAnyCornerP11ImGuiWindowRK6ImVec2S3_PS1_S4_, symObjAddr: 0x3DCCC, symBinAddr: 0x10007F454, symSize: 0x134 }
  - { offsetInCU: 0x22AD3, offset: 0x52A27, size: 0x8, addend: 0x0, symName: __ZL19GetResizeBorderRectP11ImGuiWindowiff, symObjAddr: 0x3DE00, symBinAddr: 0x10007F588, symSize: 0x1EC }
  - { offsetInCU: 0x22B3E, offset: 0x52A92, size: 0x8, addend: 0x0, symName: __ZN6ImVec2ixEm, symObjAddr: 0x3DFEC, symBinAddr: 0x10007F774, symSize: 0x6C }
  - { offsetInCU: 0x22B71, offset: 0x52AC5, size: 0x8, addend: 0x0, symName: __ZmIR6ImVec2RKS_, symObjAddr: 0x3E058, symBinAddr: 0x10007F7E0, symSize: 0x48 }
  - { offsetInCU: 0x22BAF, offset: 0x52B03, size: 0x8, addend: 0x0, symName: __ZL19GetWindowBgColorIdxP11ImGuiWindow, symObjAddr: 0x3E0A0, symBinAddr: 0x10007F828, symSize: 0x68 }
  - { offsetInCU: 0x22BDE, offset: 0x52B32, size: 0x8, addend: 0x0, symName: __ZNK11ImGuiWindow11MenuBarRectEv, symObjAddr: 0x3E108, symBinAddr: 0x10007F890, symSize: 0xA0 }
  - { offsetInCU: 0x22C12, offset: 0x52B66, size: 0x8, addend: 0x0, symName: __ZNK6ImRect5GetBLEv, symObjAddr: 0x3E1A8, symBinAddr: 0x10007F930, symSize: 0x38 }
  - { offsetInCU: 0x22C37, offset: 0x52B8B, size: 0x8, addend: 0x0, symName: __ZNK6ImRect5GetBREv, symObjAddr: 0x3E1E0, symBinAddr: 0x10007F968, symSize: 0x24 }
  - { offsetInCU: 0x22C5C, offset: 0x52BB0, size: 0x8, addend: 0x0, symName: __ZN10ImDrawList10PathLineToERK6ImVec2, symObjAddr: 0x3E204, symBinAddr: 0x10007F98C, symSize: 0x30 }
  - { offsetInCU: 0x22C90, offset: 0x52BE4, size: 0x8, addend: 0x0, symName: __ZN10ImDrawList14PathFillConvexEj, symObjAddr: 0x3E234, symBinAddr: 0x10007F9BC, symSize: 0x40 }
  - { offsetInCU: 0x22CC4, offset: 0x52C18, size: 0x8, addend: 0x0, symName: __ZN8ImVectorI6ImVec2E9push_backERKS0_, symObjAddr: 0x3E698, symBinAddr: 0x10007FE20, symSize: 0x84 }
  - { offsetInCU: 0x22CF8, offset: 0x52C4C, size: 0x8, addend: 0x0, symName: __ZN8ImVectorI6ImVec2E7reserveEi, symObjAddr: 0x3E71C, symBinAddr: 0x10007FEA4, symSize: 0xAC }
  - { offsetInCU: 0x22D3B, offset: 0x52C8F, size: 0x8, addend: 0x0, symName: __ZNK8ImVectorI6ImVec2E14_grow_capacityEi, symObjAddr: 0x3E7C8, symBinAddr: 0x10007FF50, symSize: 0x98 }
  - { offsetInCU: 0x22D7E, offset: 0x52CD2, size: 0x8, addend: 0x0, symName: __ZN10ImDrawList10PathStrokeEjif, symObjAddr: 0x3E860, symBinAddr: 0x10007FFE8, symSize: 0x50 }
  - { offsetInCU: 0x22DD0, offset: 0x52D24, size: 0x8, addend: 0x0, symName: __ZN8ImVec2ihC2ERK6ImVec2, symObjAddr: 0x3E8B0, symBinAddr: 0x100080038, symSize: 0x38 }
  - { offsetInCU: 0x22E08, offset: 0x52D5C, size: 0x8, addend: 0x0, symName: __ZNK11ImFontAtlas7IsBuiltEv, symObjAddr: 0x3E8E8, symBinAddr: 0x100080070, symSize: 0x4C }
  - { offsetInCU: 0x22E2D, offset: 0x52D81, size: 0x8, addend: 0x0, symName: __ZL18CalcScrollEdgeSnapfffff, symObjAddr: 0x3E934, symBinAddr: 0x1000800BC, symSize: 0xAC }
  - { offsetInCU: 0x22E98, offset: 0x52DEC, size: 0x8, addend: 0x0, symName: __ZN14ImGuiPopupDataC2Ev, symObjAddr: 0x3E9E0, symBinAddr: 0x100080168, symSize: 0x58 }
  - { offsetInCU: 0x22EC0, offset: 0x52E14, size: 0x8, addend: 0x0, symName: __ZL35NavClampRectToVisibleAreaForMoveDiriR6ImRectRKS_, symObjAddr: 0x3F260, symBinAddr: 0x1000809E8, symSize: 0xE4 }
  - { offsetInCU: 0x22F09, offset: 0x52E5D, size: 0x8, addend: 0x0, symName: __ZL24NavScoreItemDistIntervalffff, symObjAddr: 0x3F344, symBinAddr: 0x100080ACC, symSize: 0x84 }
  - { offsetInCU: 0x22F65, offset: 0x52EB9, size: 0x8, addend: 0x0, symName: __ZN6ImRect9TranslateERK6ImVec2, symObjAddr: 0x3F3C8, symBinAddr: 0x100080B50, symSize: 0x68 }
  - { offsetInCU: 0x22F99, offset: 0x52EED, size: 0x8, addend: 0x0, symName: __ZL22FindWindowNavFocusableiii, symObjAddr: 0x410B4, symBinAddr: 0x10008283C, symSize: 0x108 }
  - { offsetInCU: 0x23012, offset: 0x52F66, size: 0x8, addend: 0x0, symName: __ZL33NavUpdateWindowingHighlightWindowi, symObjAddr: 0x411BC, symBinAddr: 0x100082944, symSize: 0x150 }
  - { offsetInCU: 0x2306A, offset: 0x52FBE, size: 0x8, addend: 0x0, symName: __ZN6ImRect10TranslateYEf, symObjAddr: 0x419E0, symBinAddr: 0x100083168, symSize: 0x38 }
  - { offsetInCU: 0x2309E, offset: 0x52FF2, size: 0x8, addend: 0x0, symName: __ZNK6ImRect10IsInvertedEv, symObjAddr: 0x41A18, symBinAddr: 0x1000831A0, symSize: 0x5C }
  - { offsetInCU: 0x230C3, offset: 0x53017, size: 0x8, addend: 0x0, symName: __ZL37GetFallbackWindowNameForWindowingListP11ImGuiWindow, symObjAddr: 0x4208C, symBinAddr: 0x100083814, symSize: 0xA4 }
  - { offsetInCU: 0x230F2, offset: 0x53046, size: 0x8, addend: 0x0, symName: __ZN6ImRect10TranslateXEf, symObjAddr: 0x42130, symBinAddr: 0x1000838B8, symSize: 0x38 }
  - { offsetInCU: 0x23126, offset: 0x5307A, size: 0x8, addend: 0x0, symName: __ZNK8ImVectorIcE5frontEv, symObjAddr: 0x42168, symBinAddr: 0x1000838F0, symSize: 0x64 }
  - { offsetInCU: 0x2314B, offset: 0x5309F, size: 0x8, addend: 0x0, symName: __ZNK13ImChunkStreamI19ImGuiWindowSettingsE5emptyEv, symObjAddr: 0x421CC, symBinAddr: 0x100083954, symSize: 0x24 }
  - { offsetInCU: 0x23170, offset: 0x530C4, size: 0x8, addend: 0x0, symName: __ZN19ImGuiWindowSettingsC2Ev, symObjAddr: 0x421F0, symBinAddr: 0x100083978, symSize: 0x44 }
  - { offsetInCU: 0x23198, offset: 0x530EC, size: 0x8, addend: 0x0, symName: __ZN8ImVec2ihC1Ess, symObjAddr: 0x42234, symBinAddr: 0x1000839BC, symSize: 0x3C }
  - { offsetInCU: 0x231DE, offset: 0x53132, size: 0x8, addend: 0x0, symName: __ZN8ImVec2ihC2Ess, symObjAddr: 0x42270, symBinAddr: 0x1000839F8, symSize: 0x2C }
  - { offsetInCU: 0x23225, offset: 0x53179, size: 0x8, addend: 0x0, symName: __ZN13ImChunkStreamI19ImGuiWindowSettingsE15ptr_from_offsetEi, symObjAddr: 0x4229C, symBinAddr: 0x100083A24, symSize: 0xA0 }
  - { offsetInCU: 0x23259, offset: 0x531AD, size: 0x8, addend: 0x0, symName: __ZN15ImGuiTextBuffer7reserveEi, symObjAddr: 0x4233C, symBinAddr: 0x100083AC4, symSize: 0x2C }
  - { offsetInCU: 0x2328D, offset: 0x531E1, size: 0x8, addend: 0x0, symName: __ZN14ImGuiViewportP14UpdateWorkRectEv, symObjAddr: 0x42368, symBinAddr: 0x100083AF0, symSize: 0x68 }
  - { offsetInCU: 0x232B2, offset: 0x53206, size: 0x8, addend: 0x0, symName: __ZNK14ImGuiViewportP15CalcWorkRectPosERK6ImVec2, symObjAddr: 0x423D0, symBinAddr: 0x100083B58, symSize: 0x54 }
  - { offsetInCU: 0x232E6, offset: 0x5323A, size: 0x8, addend: 0x0, symName: __ZNK14ImGuiViewportP16CalcWorkRectSizeERK6ImVec2S2_, symObjAddr: 0x42424, symBinAddr: 0x100083BAC, symSize: 0x9C }
  - { offsetInCU: 0x23329, offset: 0x5327D, size: 0x8, addend: 0x0, symName: __ZNK8ImVectorIcE5emptyEv, symObjAddr: 0x424C0, symBinAddr: 0x100083C48, symSize: 0x24 }
  - { offsetInCU: 0x2334E, offset: 0x532A2, size: 0x8, addend: 0x0, symName: __ZN8ImVectorIcE5beginEv, symObjAddr: 0x424E4, symBinAddr: 0x100083C6C, symSize: 0x18 }
  - { offsetInCU: 0x23373, offset: 0x532C7, size: 0x8, addend: 0x0, symName: __ZN6ImSpanI16ImGuiTableColumnEixEi, symObjAddr: 0x42560, symBinAddr: 0x100083CE8, symSize: 0xB0 }
  - { offsetInCU: 0x233B6, offset: 0x5330A, size: 0x8, addend: 0x0, symName: __ZN8ImVectorI22ImGuiTableInstanceDataEixEi, symObjAddr: 0x42610, symBinAddr: 0x100083D98, symSize: 0xA0 }
  - { offsetInCU: 0x233EA, offset: 0x5333E, size: 0x8, addend: 0x0, symName: __ZNK8ImVectorIcE4backEv, symObjAddr: 0x426B0, symBinAddr: 0x100083E38, symSize: 0x70 }
  - { offsetInCU: 0x2340F, offset: 0x53363, size: 0x8, addend: 0x0, symName: __ZN8ImVectorI19ImGuiStackLevelInfoE6resizeEi, symObjAddr: 0x42720, symBinAddr: 0x100083EA8, symSize: 0x68 }
  - { offsetInCU: 0x23443, offset: 0x53397, size: 0x8, addend: 0x0, symName: __ZN8ImVectorI19ImGuiStackLevelInfoE7reserveEi, symObjAddr: 0x42788, symBinAddr: 0x100083F10, symSize: 0xAC }
  - { offsetInCU: 0x23486, offset: 0x533DA, size: 0x8, addend: 0x0, symName: __ZNK8ImVectorI19ImGuiStackLevelInfoE14_grow_capacityEi, symObjAddr: 0x42834, symBinAddr: 0x100083FBC, symSize: 0x98 }
  - { offsetInCU: 0x234C9, offset: 0x5341D, size: 0x8, addend: 0x0, symName: __ZN19ImGuiStackLevelInfoC2Ev, symObjAddr: 0x428CC, symBinAddr: 0x100084054, symSize: 0x34 }
  - { offsetInCU: 0x234F1, offset: 0x53445, size: 0x8, addend: 0x0, symName: __ZN8ImVectorItEC2Ev, symObjAddr: 0x42900, symBinAddr: 0x100084088, symSize: 0x20 }
  - { offsetInCU: 0x2351A, offset: 0x5346E, size: 0x8, addend: 0x0, symName: __ZN8ImVectorItED2Ev, symObjAddr: 0x42920, symBinAddr: 0x1000840A8, symSize: 0x5C }
  - { offsetInCU: 0x23542, offset: 0x53496, size: 0x8, addend: 0x0, symName: __ZN8ImVectorIjEC2Ev, symObjAddr: 0x4297C, symBinAddr: 0x100084104, symSize: 0x20 }
  - { offsetInCU: 0x2356B, offset: 0x534BF, size: 0x8, addend: 0x0, symName: __ZN8ImVectorIjED2Ev, symObjAddr: 0x4299C, symBinAddr: 0x100084124, symSize: 0x5C }
  - { offsetInCU: 0x23593, offset: 0x534E7, size: 0x8, addend: 0x0, symName: __ZN8ImVectorIjE7reserveEi, symObjAddr: 0x429F8, symBinAddr: 0x100084180, symSize: 0xAC }
  - { offsetInCU: 0x235D6, offset: 0x5352A, size: 0x8, addend: 0x0, symName: __ZNK8ImVectorIjE14_grow_capacityEi, symObjAddr: 0x42AA4, symBinAddr: 0x10008422C, symSize: 0x98 }
  - { offsetInCU: 0x23619, offset: 0x5356D, size: 0x8, addend: 0x0, symName: __Z17ImBitArrayTestBitPKji, symObjAddr: 0x42B3C, symBinAddr: 0x1000842C4, symSize: 0x48 }
  - { offsetInCU: 0x23666, offset: 0x535BA, size: 0x8, addend: 0x0, symName: __ZN8ImVectorI15ImGuiInputEventE7reserveEi, symObjAddr: 0x42B84, symBinAddr: 0x10008430C, symSize: 0xB4 }
  - { offsetInCU: 0x236A9, offset: 0x535FD, size: 0x8, addend: 0x0, symName: __ZNK8ImVectorI15ImGuiInputEventE14_grow_capacityEi, symObjAddr: 0x42C38, symBinAddr: 0x1000843C0, symSize: 0x98 }
  - { offsetInCU: 0x236EC, offset: 0x53640, size: 0x8, addend: 0x0, symName: __ZNK8ImVectorItE14_grow_capacityEi, symObjAddr: 0x42CD0, symBinAddr: 0x100084458, symSize: 0x98 }
  - { offsetInCU: 0x2372F, offset: 0x53683, size: 0x8, addend: 0x0, symName: __ZN8ImVectorIN12ImGuiStorage16ImGuiStoragePairEE7reserveEi, symObjAddr: 0x42D68, symBinAddr: 0x1000844F0, symSize: 0xAC }
  - { offsetInCU: 0x23772, offset: 0x536C6, size: 0x8, addend: 0x0, symName: __ZNK8ImVectorIN12ImGuiStorage16ImGuiStoragePairEE14_grow_capacityEi, symObjAddr: 0x42E14, symBinAddr: 0x10008459C, symSize: 0x98 }
  - { offsetInCU: 0x237B5, offset: 0x53709, size: 0x8, addend: 0x0, symName: __ZN8ImVectorIN15ImGuiTextFilter14ImGuiTextRangeEEC2Ev, symObjAddr: 0x42EAC, symBinAddr: 0x100084634, symSize: 0x20 }
  - { offsetInCU: 0x237DE, offset: 0x53732, size: 0x8, addend: 0x0, symName: __ZN8ImVectorIN15ImGuiTextFilter14ImGuiTextRangeEED2Ev, symObjAddr: 0x42ECC, symBinAddr: 0x100084654, symSize: 0x5C }
  - { offsetInCU: 0x23806, offset: 0x5375A, size: 0x8, addend: 0x0, symName: __ZN8ImVectorIN15ImGuiTextFilter14ImGuiTextRangeEE7reserveEi, symObjAddr: 0x42F28, symBinAddr: 0x1000846B0, symSize: 0xAC }
  - { offsetInCU: 0x23849, offset: 0x5379D, size: 0x8, addend: 0x0, symName: __ZNK8ImVectorIN15ImGuiTextFilter14ImGuiTextRangeEE14_grow_capacityEi, symObjAddr: 0x42FD4, symBinAddr: 0x10008475C, symSize: 0x98 }
  - { offsetInCU: 0x2388C, offset: 0x537E0, size: 0x8, addend: 0x0, symName: __ZNK8ImVectorIcE14_grow_capacityEi, symObjAddr: 0x4306C, symBinAddr: 0x1000847F4, symSize: 0x98 }
  - { offsetInCU: 0x238CF, offset: 0x53823, size: 0x8, addend: 0x0, symName: __ZN8ImVectorI20ImGuiListClipperDataE7reserveEi, symObjAddr: 0x43104, symBinAddr: 0x10008488C, symSize: 0xB4 }
  - { offsetInCU: 0x23912, offset: 0x53866, size: 0x8, addend: 0x0, symName: __ZNK8ImVectorI20ImGuiListClipperDataE14_grow_capacityEi, symObjAddr: 0x431B8, symBinAddr: 0x100084940, symSize: 0x98 }
  - { offsetInCU: 0x23955, offset: 0x538A9, size: 0x8, addend: 0x0, symName: __ZN8ImVectorI21ImGuiListClipperRangeE6insertEPKS0_RS2_, symObjAddr: 0x43250, symBinAddr: 0x1000849D8, symSize: 0x1A8 }
  - { offsetInCU: 0x239A7, offset: 0x538FB, size: 0x8, addend: 0x0, symName: __ZN8ImVectorI13ImGuiColorModE7reserveEi, symObjAddr: 0x433F8, symBinAddr: 0x100084B80, symSize: 0xB4 }
  - { offsetInCU: 0x239EA, offset: 0x5393E, size: 0x8, addend: 0x0, symName: __ZNK8ImVectorI13ImGuiColorModE14_grow_capacityEi, symObjAddr: 0x434AC, symBinAddr: 0x100084C34, symSize: 0x98 }
  - { offsetInCU: 0x23A2D, offset: 0x53981, size: 0x8, addend: 0x0, symName: __ZN8ImVectorI13ImGuiStyleModE7reserveEi, symObjAddr: 0x43544, symBinAddr: 0x100084CCC, symSize: 0xB4 }
  - { offsetInCU: 0x23A70, offset: 0x539C4, size: 0x8, addend: 0x0, symName: __ZNK8ImVectorI13ImGuiStyleModE14_grow_capacityEi, symObjAddr: 0x435F8, symBinAddr: 0x100084D80, symSize: 0x98 }
  - { offsetInCU: 0x23AB3, offset: 0x53A07, size: 0x8, addend: 0x0, symName: __ZN8ImVectorI15ImGuiOldColumnsEC2Ev, symObjAddr: 0x43690, symBinAddr: 0x100084E18, symSize: 0x20 }
  - { offsetInCU: 0x23ADC, offset: 0x53A30, size: 0x8, addend: 0x0, symName: __ZN8ImVectorI15ImGuiOldColumnsED2Ev, symObjAddr: 0x436B0, symBinAddr: 0x100084E38, symSize: 0x5C }
  - { offsetInCU: 0x23B04, offset: 0x53A58, size: 0x8, addend: 0x0, symName: __ZN15ImGuiOldColumnsD1Ev, symObjAddr: 0x4370C, symBinAddr: 0x100084E94, symSize: 0x2C }
  - { offsetInCU: 0x23B30, offset: 0x53A84, size: 0x8, addend: 0x0, symName: __ZN8ImVectorI15ImGuiOldColumnsE5clearEv, symObjAddr: 0x43738, symBinAddr: 0x100084EC0, symSize: 0x58 }
  - { offsetInCU: 0x23B55, offset: 0x53AA9, size: 0x8, addend: 0x0, symName: __ZN15ImGuiOldColumnsD2Ev, symObjAddr: 0x43790, symBinAddr: 0x100084F18, symSize: 0x3C }
  - { offsetInCU: 0x23B81, offset: 0x53AD5, size: 0x8, addend: 0x0, symName: __ZN8ImVectorI18ImGuiOldColumnDataED1Ev, symObjAddr: 0x437CC, symBinAddr: 0x100084F54, symSize: 0x2C }
  - { offsetInCU: 0x23BA9, offset: 0x53AFD, size: 0x8, addend: 0x0, symName: __ZN8ImVectorI18ImGuiOldColumnDataED2Ev, symObjAddr: 0x437F8, symBinAddr: 0x100084F80, symSize: 0x5C }
  - { offsetInCU: 0x23BD1, offset: 0x53B25, size: 0x8, addend: 0x0, symName: __ZN8ImVectorI10ImGuiTableEixEi, symObjAddr: 0x43854, symBinAddr: 0x100084FDC, symSize: 0xA8 }
  - { offsetInCU: 0x23C05, offset: 0x53B59, size: 0x8, addend: 0x0, symName: __ZN12ImGuiContextD1Ev, symObjAddr: 0x438FC, symBinAddr: 0x100085084, symSize: 0x2C }
  - { offsetInCU: 0x23C31, offset: 0x53B85, size: 0x8, addend: 0x0, symName: __ZN12ImGuiContextD2Ev, symObjAddr: 0x43928, symBinAddr: 0x1000850B0, symSize: 0x290 }
  - { offsetInCU: 0x23C5D, offset: 0x53BB1, size: 0x8, addend: 0x0, symName: __ZN8ImVectorI16ImGuiContextHookE7reserveEi, symObjAddr: 0x43BB8, symBinAddr: 0x100085340, symSize: 0xAC }
  - { offsetInCU: 0x23CA0, offset: 0x53BF4, size: 0x8, addend: 0x0, symName: __ZNK8ImVectorI16ImGuiContextHookE14_grow_capacityEi, symObjAddr: 0x43C64, symBinAddr: 0x1000853EC, symSize: 0x98 }
  - { offsetInCU: 0x23CE3, offset: 0x53C37, size: 0x8, addend: 0x0, symName: __ZN8ImVectorI20ImGuiWindowStackDataE7reserveEi, symObjAddr: 0x43CFC, symBinAddr: 0x100085484, symSize: 0xB4 }
  - { offsetInCU: 0x23D26, offset: 0x53C7A, size: 0x8, addend: 0x0, symName: __ZNK8ImVectorI20ImGuiWindowStackDataE14_grow_capacityEi, symObjAddr: 0x43DB0, symBinAddr: 0x100085538, symSize: 0x98 }
  - { offsetInCU: 0x23D69, offset: 0x53CBD, size: 0x8, addend: 0x0, symName: __ZN8ImVectorI14ImGuiPopupDataE7reserveEi, symObjAddr: 0x43E48, symBinAddr: 0x1000855D0, symSize: 0xB4 }
  - { offsetInCU: 0x23DAC, offset: 0x53D00, size: 0x8, addend: 0x0, symName: __ZNK8ImVectorI14ImGuiPopupDataE14_grow_capacityEi, symObjAddr: 0x43EFC, symBinAddr: 0x100085684, symSize: 0x98 }
  - { offsetInCU: 0x23DEF, offset: 0x53D43, size: 0x8, addend: 0x0, symName: __ZN8ImVectorIiE7reserveEi, symObjAddr: 0x43F94, symBinAddr: 0x10008571C, symSize: 0xAC }
  - { offsetInCU: 0x23E32, offset: 0x53D86, size: 0x8, addend: 0x0, symName: __ZNK8ImVectorIiE14_grow_capacityEi, symObjAddr: 0x44040, symBinAddr: 0x1000857C8, symSize: 0x98 }
  - { offsetInCU: 0x23E75, offset: 0x53DC9, size: 0x8, addend: 0x0, symName: __ZN8ImVectorI14ImGuiGroupDataE7reserveEi, symObjAddr: 0x440D8, symBinAddr: 0x100085860, symSize: 0xB4 }
  - { offsetInCU: 0x23EB8, offset: 0x53E0C, size: 0x8, addend: 0x0, symName: __ZNK8ImVectorI14ImGuiGroupDataE14_grow_capacityEi, symObjAddr: 0x4418C, symBinAddr: 0x100085914, symSize: 0x98 }
  - { offsetInCU: 0x23EFB, offset: 0x53E4F, size: 0x8, addend: 0x0, symName: __ZN8ImVectorIP14ImGuiViewportPE7reserveEi, symObjAddr: 0x44224, symBinAddr: 0x1000859AC, symSize: 0xAC }
  - { offsetInCU: 0x23F3E, offset: 0x53E92, size: 0x8, addend: 0x0, symName: __ZNK8ImVectorIP14ImGuiViewportPE14_grow_capacityEi, symObjAddr: 0x442D0, symBinAddr: 0x100085A58, symSize: 0x98 }
  - { offsetInCU: 0x23F81, offset: 0x53ED5, size: 0x8, addend: 0x0, symName: __Z9IM_DELETEI11ImGuiWindowEvPT_, symObjAddr: 0x44368, symBinAddr: 0x100085AF0, symSize: 0x44 }
  - { offsetInCU: 0x23FB4, offset: 0x53F08, size: 0x8, addend: 0x0, symName: __Z9IM_DELETEI14ImGuiViewportPEvPT_, symObjAddr: 0x443AC, symBinAddr: 0x100085B34, symSize: 0x44 }
  - { offsetInCU: 0x23FE7, offset: 0x53F3B, size: 0x8, addend: 0x0, symName: __ZN8ImVectorIP14ImGuiViewportPE5clearEv, symObjAddr: 0x443F0, symBinAddr: 0x100085B78, symSize: 0x58 }
  - { offsetInCU: 0x2400C, offset: 0x53F60, size: 0x8, addend: 0x0, symName: __ZN14ImGuiViewportPD1Ev, symObjAddr: 0x44448, symBinAddr: 0x100085BD0, symSize: 0x2C }
  - { offsetInCU: 0x24034, offset: 0x53F88, size: 0x8, addend: 0x0, symName: __ZN14ImGuiViewportPD2Ev, symObjAddr: 0x44474, symBinAddr: 0x100085BFC, symSize: 0x94 }
  - { offsetInCU: 0x2405C, offset: 0x53FB0, size: 0x8, addend: 0x0, symName: __Z9IM_DELETEI10ImDrawListEvPT_, symObjAddr: 0x44508, symBinAddr: 0x100085C90, symSize: 0x44 }
  - { offsetInCU: 0x2408F, offset: 0x53FE3, size: 0x8, addend: 0x0, symName: __ZN8ImVectorI11ImGuiTabBarEixEi, symObjAddr: 0x4454C, symBinAddr: 0x100085CD4, symSize: 0xA8 }
  - { offsetInCU: 0x240C3, offset: 0x54017, size: 0x8, addend: 0x0, symName: __ZN11ImGuiTabBarD1Ev, symObjAddr: 0x445F4, symBinAddr: 0x100085D7C, symSize: 0x2C }
  - { offsetInCU: 0x240EF, offset: 0x54043, size: 0x8, addend: 0x0, symName: __ZN8ImVectorI11ImGuiTabBarE5clearEv, symObjAddr: 0x44620, symBinAddr: 0x100085DA8, symSize: 0x58 }
  - { offsetInCU: 0x24114, offset: 0x54068, size: 0x8, addend: 0x0, symName: __ZN11ImGuiTabBarD2Ev, symObjAddr: 0x44678, symBinAddr: 0x100085E00, symSize: 0x38 }
  - { offsetInCU: 0x24140, offset: 0x54094, size: 0x8, addend: 0x0, symName: __ZN8ImVectorI12ImGuiTabItemED1Ev, symObjAddr: 0x446B0, symBinAddr: 0x100085E38, symSize: 0x2C }
  - { offsetInCU: 0x24168, offset: 0x540BC, size: 0x8, addend: 0x0, symName: __ZN8ImVectorI12ImGuiTabItemED2Ev, symObjAddr: 0x446DC, symBinAddr: 0x100085E64, symSize: 0x5C }
  - { offsetInCU: 0x24190, offset: 0x540E4, size: 0x8, addend: 0x0, symName: __ZN8ImVectorI20ImGuiListClipperDataE5clearEv, symObjAddr: 0x44738, symBinAddr: 0x100085EC0, symSize: 0x58 }
  - { offsetInCU: 0x241B5, offset: 0x54109, size: 0x8, addend: 0x0, symName: __ZN10ImGuiTableD1Ev, symObjAddr: 0x44790, symBinAddr: 0x100085F18, symSize: 0x2C }
  - { offsetInCU: 0x241DD, offset: 0x54131, size: 0x8, addend: 0x0, symName: __ZN8ImVectorI10ImGuiTableE5clearEv, symObjAddr: 0x447BC, symBinAddr: 0x100085F44, symSize: 0x58 }
  - { offsetInCU: 0x24202, offset: 0x54156, size: 0x8, addend: 0x0, symName: __ZN10ImGuiTableD2Ev, symObjAddr: 0x44814, symBinAddr: 0x100085F9C, symSize: 0x5C }
  - { offsetInCU: 0x2422A, offset: 0x5417E, size: 0x8, addend: 0x0, symName: __ZN8ImVectorI25ImGuiTableColumnSortSpecsED1Ev, symObjAddr: 0x44870, symBinAddr: 0x100085FF8, symSize: 0x2C }
  - { offsetInCU: 0x24252, offset: 0x541A6, size: 0x8, addend: 0x0, symName: __ZN8ImVectorI22ImGuiTableInstanceDataED1Ev, symObjAddr: 0x4489C, symBinAddr: 0x100086024, symSize: 0x2C }
  - { offsetInCU: 0x2427A, offset: 0x541CE, size: 0x8, addend: 0x0, symName: __ZN8ImVectorI25ImGuiTableColumnSortSpecsED2Ev, symObjAddr: 0x448C8, symBinAddr: 0x100086050, symSize: 0x5C }
  - { offsetInCU: 0x242A2, offset: 0x541F6, size: 0x8, addend: 0x0, symName: __ZN8ImVectorI22ImGuiTableInstanceDataED2Ev, symObjAddr: 0x44924, symBinAddr: 0x1000860AC, symSize: 0x5C }
  - { offsetInCU: 0x242CA, offset: 0x5421E, size: 0x8, addend: 0x0, symName: __ZN18ImGuiTableTempDataD1Ev, symObjAddr: 0x44980, symBinAddr: 0x100086108, symSize: 0x2C }
  - { offsetInCU: 0x242F6, offset: 0x5424A, size: 0x8, addend: 0x0, symName: __ZN8ImVectorI18ImGuiTableTempDataE5clearEv, symObjAddr: 0x449AC, symBinAddr: 0x100086134, symSize: 0x58 }
  - { offsetInCU: 0x2431B, offset: 0x5426F, size: 0x8, addend: 0x0, symName: __ZN18ImGuiTableTempDataD2Ev, symObjAddr: 0x44A04, symBinAddr: 0x10008618C, symSize: 0x30 }
  - { offsetInCU: 0x24347, offset: 0x5429B, size: 0x8, addend: 0x0, symName: __ZN8ImVectorIfE7reserveEi, symObjAddr: 0x44A34, symBinAddr: 0x1000861BC, symSize: 0xAC }
  - { offsetInCU: 0x2438A, offset: 0x542DE, size: 0x8, addend: 0x0, symName: __ZNK8ImVectorIfE14_grow_capacityEi, symObjAddr: 0x44AE0, symBinAddr: 0x100086268, symSize: 0x98 }
  - { offsetInCU: 0x243CD, offset: 0x54321, size: 0x8, addend: 0x0, symName: __ZN8ImVectorIP6ImFontE7reserveEi, symObjAddr: 0x44B78, symBinAddr: 0x100086300, symSize: 0xAC }
  - { offsetInCU: 0x24410, offset: 0x54364, size: 0x8, addend: 0x0, symName: __ZNK8ImVectorIP6ImFontE14_grow_capacityEi, symObjAddr: 0x44C24, symBinAddr: 0x1000863AC, symSize: 0x98 }
  - { offsetInCU: 0x24453, offset: 0x543A7, size: 0x8, addend: 0x0, symName: __ZN10ImBitArrayILi645ELi0EEC2Ev, symObjAddr: 0x44CBC, symBinAddr: 0x100086444, symSize: 0x2C }
  - { offsetInCU: 0x2447B, offset: 0x543CF, size: 0x8, addend: 0x0, symName: __ZN10ImBitArrayILi645ELi0EE12ClearAllBitsEv, symObjAddr: 0x44CE8, symBinAddr: 0x100086470, symSize: 0x2C }
  - { offsetInCU: 0x244A0, offset: 0x543F4, size: 0x8, addend: 0x0, symName: __Z16ImBitArraySetBitPji, symObjAddr: 0x44D14, symBinAddr: 0x10008649C, symSize: 0x48 }
  - { offsetInCU: 0x244E9, offset: 0x5443D, size: 0x8, addend: 0x0, symName: __ZN8ImVectorIhE7reserveEi, symObjAddr: 0x44D5C, symBinAddr: 0x1000864E4, symSize: 0xAC }
  - { offsetInCU: 0x2452C, offset: 0x54480, size: 0x8, addend: 0x0, symName: __ZNK8ImVectorIhE14_grow_capacityEi, symObjAddr: 0x44E08, symBinAddr: 0x100086590, symSize: 0x98 }
  - { offsetInCU: 0x2456F, offset: 0x544C3, size: 0x8, addend: 0x0, symName: __ZN13ImChunkStreamI19ImGuiWindowSettingsE10chunk_sizeEPKS0_, symObjAddr: 0x44EA0, symBinAddr: 0x100086628, symSize: 0x1C }
  - { offsetInCU: 0x245A3, offset: 0x544F7, size: 0x8, addend: 0x0, symName: __ZN8ImVectorI20ImGuiSettingsHandlerE7reserveEi, symObjAddr: 0x44EBC, symBinAddr: 0x100086644, symSize: 0xB4 }
  - { offsetInCU: 0x245E6, offset: 0x5453A, size: 0x8, addend: 0x0, symName: __ZNK8ImVectorI20ImGuiSettingsHandlerE14_grow_capacityEi, symObjAddr: 0x44F70, symBinAddr: 0x1000866F8, symSize: 0x98 }
  - { offsetInCU: 0x24629, offset: 0x5457D, size: 0x8, addend: 0x0, symName: __ZN6ImPoolI11ImGuiTabBarE10GetByIndexEi, symObjAddr: 0x45008, symBinAddr: 0x100086790, symSize: 0x2C }
  - { offsetInCU: 0x2465D, offset: 0x545B1, size: 0x8, addend: 0x0, symName: __ZN13ImChunkStreamI18ImGuiTableSettingsE3endEv, symObjAddr: 0x45034, symBinAddr: 0x1000867BC, symSize: 0x20 }
  - { offsetInCU: 0x24682, offset: 0x545D6, size: 0x8, addend: 0x0, symName: __ZN13ImChunkStreamI18ImGuiTableSettingsE10chunk_sizeEPKS0_, symObjAddr: 0x45054, symBinAddr: 0x1000867DC, symSize: 0x1C }
  - { offsetInCU: 0x3F, offset: 0x54A65, size: 0x8, addend: 0x0, symName: _GImGuiDemoMarkerCallback, symObjAddr: 0x78350, symBinAddr: 0x10017FE48, symSize: 0x0 }
  - { offsetInCU: 0x95, offset: 0x54ABB, size: 0x8, addend: 0x0, symName: _GImGuiDemoMarkerCallbackUserData, symObjAddr: 0x78358, symBinAddr: 0x10017FE50, symSize: 0x0 }
  - { offsetInCU: 0xAB, offset: 0x54AD1, size: 0x8, addend: 0x0, symName: __ZN5ImGui14ShowDemoWindowEPb, symObjAddr: 0x130, symBinAddr: 0x100086928, symSize: 0x10EC }
  - { offsetInCU: 0xD2, offset: 0x54AF8, size: 0x8, addend: 0x0, symName: __ZZN5ImGui14ShowDemoWindowEPbE22show_app_main_menu_bar, symObjAddr: 0x78360, symBinAddr: 0x100180880, symSize: 0x0 }
  - { offsetInCU: 0xE9, offset: 0x54B0F, size: 0x8, addend: 0x0, symName: __ZZN5ImGui14ShowDemoWindowEPbE18show_app_documents, symObjAddr: 0x78361, symBinAddr: 0x100180881, symSize: 0x0 }
  - { offsetInCU: 0x100, offset: 0x54B26, size: 0x8, addend: 0x0, symName: __ZZN5ImGui14ShowDemoWindowEPbE16show_app_console, symObjAddr: 0x78362, symBinAddr: 0x100180882, symSize: 0x0 }
  - { offsetInCU: 0x117, offset: 0x54B3D, size: 0x8, addend: 0x0, symName: __ZZN5ImGui14ShowDemoWindowEPbE12show_app_log, symObjAddr: 0x78363, symBinAddr: 0x100180883, symSize: 0x0 }
  - { offsetInCU: 0x12E, offset: 0x54B54, size: 0x8, addend: 0x0, symName: __ZZN5ImGui14ShowDemoWindowEPbE15show_app_layout, symObjAddr: 0x78364, symBinAddr: 0x100180884, symSize: 0x0 }
  - { offsetInCU: 0x145, offset: 0x54B6B, size: 0x8, addend: 0x0, symName: __ZZN5ImGui14ShowDemoWindowEPbE24show_app_property_editor, symObjAddr: 0x78365, symBinAddr: 0x100180885, symSize: 0x0 }
  - { offsetInCU: 0x15C, offset: 0x54B82, size: 0x8, addend: 0x0, symName: __ZZN5ImGui14ShowDemoWindowEPbE18show_app_long_text, symObjAddr: 0x78366, symBinAddr: 0x100180886, symSize: 0x0 }
  - { offsetInCU: 0x173, offset: 0x54B99, size: 0x8, addend: 0x0, symName: __ZZN5ImGui14ShowDemoWindowEPbE20show_app_auto_resize, symObjAddr: 0x78367, symBinAddr: 0x100180887, symSize: 0x0 }
  - { offsetInCU: 0x18A, offset: 0x54BB0, size: 0x8, addend: 0x0, symName: __ZZN5ImGui14ShowDemoWindowEPbE27show_app_constrained_resize, symObjAddr: 0x78368, symBinAddr: 0x100180888, symSize: 0x0 }
  - { offsetInCU: 0x1A1, offset: 0x54BC7, size: 0x8, addend: 0x0, symName: __ZZN5ImGui14ShowDemoWindowEPbE23show_app_simple_overlay, symObjAddr: 0x78369, symBinAddr: 0x100180889, symSize: 0x0 }
  - { offsetInCU: 0x1B8, offset: 0x54BDE, size: 0x8, addend: 0x0, symName: __ZZN5ImGui14ShowDemoWindowEPbE19show_app_fullscreen, symObjAddr: 0x7836A, symBinAddr: 0x10018088A, symSize: 0x0 }
  - { offsetInCU: 0x1CF, offset: 0x54BF5, size: 0x8, addend: 0x0, symName: __ZZN5ImGui14ShowDemoWindowEPbE22show_app_window_titles, symObjAddr: 0x7836B, symBinAddr: 0x10018088B, symSize: 0x0 }
  - { offsetInCU: 0x1E6, offset: 0x54C0C, size: 0x8, addend: 0x0, symName: __ZZN5ImGui14ShowDemoWindowEPbE25show_app_custom_rendering, symObjAddr: 0x7836C, symBinAddr: 0x10018088C, symSize: 0x0 }
  - { offsetInCU: 0x1FD, offset: 0x54C23, size: 0x8, addend: 0x0, symName: __ZZN5ImGui14ShowDemoWindowEPbE16show_app_metrics, symObjAddr: 0x7836D, symBinAddr: 0x10018088D, symSize: 0x0 }
  - { offsetInCU: 0x214, offset: 0x54C3A, size: 0x8, addend: 0x0, symName: __ZZN5ImGui14ShowDemoWindowEPbE18show_app_debug_log, symObjAddr: 0x7836E, symBinAddr: 0x10018088E, symSize: 0x0 }
  - { offsetInCU: 0x22B, offset: 0x54C51, size: 0x8, addend: 0x0, symName: __ZZN5ImGui14ShowDemoWindowEPbE19show_app_stack_tool, symObjAddr: 0x7836F, symBinAddr: 0x10018088F, symSize: 0x0 }
  - { offsetInCU: 0x242, offset: 0x54C68, size: 0x8, addend: 0x0, symName: __ZZN5ImGui14ShowDemoWindowEPbE14show_app_about, symObjAddr: 0x78370, symBinAddr: 0x100180890, symSize: 0x0 }
  - { offsetInCU: 0x259, offset: 0x54C7F, size: 0x8, addend: 0x0, symName: __ZZN5ImGui14ShowDemoWindowEPbE21show_app_style_editor, symObjAddr: 0x78371, symBinAddr: 0x100180891, symSize: 0x0 }
  - { offsetInCU: 0x270, offset: 0x54C96, size: 0x8, addend: 0x0, symName: __ZZN5ImGui14ShowDemoWindowEPbE11no_titlebar, symObjAddr: 0x78372, symBinAddr: 0x100180892, symSize: 0x0 }
  - { offsetInCU: 0x287, offset: 0x54CAD, size: 0x8, addend: 0x0, symName: __ZZN5ImGui14ShowDemoWindowEPbE12no_scrollbar, symObjAddr: 0x78373, symBinAddr: 0x100180893, symSize: 0x0 }
  - { offsetInCU: 0x29E, offset: 0x54CC4, size: 0x8, addend: 0x0, symName: __ZZN5ImGui14ShowDemoWindowEPbE7no_menu, symObjAddr: 0x78374, symBinAddr: 0x100180894, symSize: 0x0 }
  - { offsetInCU: 0x2B5, offset: 0x54CDB, size: 0x8, addend: 0x0, symName: __ZZN5ImGui14ShowDemoWindowEPbE7no_move, symObjAddr: 0x78375, symBinAddr: 0x100180895, symSize: 0x0 }
  - { offsetInCU: 0x2CC, offset: 0x54CF2, size: 0x8, addend: 0x0, symName: __ZZN5ImGui14ShowDemoWindowEPbE9no_resize, symObjAddr: 0x78376, symBinAddr: 0x100180896, symSize: 0x0 }
  - { offsetInCU: 0x2E3, offset: 0x54D09, size: 0x8, addend: 0x0, symName: __ZZN5ImGui14ShowDemoWindowEPbE11no_collapse, symObjAddr: 0x78377, symBinAddr: 0x100180897, symSize: 0x0 }
  - { offsetInCU: 0x2FA, offset: 0x54D20, size: 0x8, addend: 0x0, symName: __ZZN5ImGui14ShowDemoWindowEPbE8no_close, symObjAddr: 0x78378, symBinAddr: 0x100180898, symSize: 0x0 }
  - { offsetInCU: 0x311, offset: 0x54D37, size: 0x8, addend: 0x0, symName: __ZZN5ImGui14ShowDemoWindowEPbE6no_nav, symObjAddr: 0x78379, symBinAddr: 0x100180899, symSize: 0x0 }
  - { offsetInCU: 0x328, offset: 0x54D4E, size: 0x8, addend: 0x0, symName: __ZZN5ImGui14ShowDemoWindowEPbE13no_background, symObjAddr: 0x7837A, symBinAddr: 0x10018089A, symSize: 0x0 }
  - { offsetInCU: 0x33F, offset: 0x54D65, size: 0x8, addend: 0x0, symName: __ZZN5ImGui14ShowDemoWindowEPbE17no_bring_to_front, symObjAddr: 0x7837B, symBinAddr: 0x10018089B, symSize: 0x0 }
  - { offsetInCU: 0x356, offset: 0x54D7C, size: 0x8, addend: 0x0, symName: __ZZN5ImGui14ShowDemoWindowEPbE16unsaved_document, symObjAddr: 0x7837C, symBinAddr: 0x10018089C, symSize: 0x0 }
  - { offsetInCU: 0x3E6, offset: 0x54E0C, size: 0x8, addend: 0x0, symName: __ZN5ImGui15ShowAboutWindowEPb, symObjAddr: 0x547C, symBinAddr: 0x10008BC74, symSize: 0x7A8 }
  - { offsetInCU: 0x40D, offset: 0x54E33, size: 0x8, addend: 0x0, symName: __ZZN5ImGui15ShowAboutWindowEPbE16show_config_info, symObjAddr: 0x7837D, symBinAddr: 0x10018089D, symSize: 0x0 }
  - { offsetInCU: 0x471, offset: 0x54E97, size: 0x8, addend: 0x0, symName: __ZN5ImGui17ShowStyleSelectorEPKc, symObjAddr: 0x1C574, symBinAddr: 0x1000A2C90, symSize: 0xD8 }
  - { offsetInCU: 0x49C, offset: 0x54EC2, size: 0x8, addend: 0x0, symName: __ZZN5ImGui17ShowStyleSelectorEPKcE9style_idx, symObjAddr: 0x306A0, symBinAddr: 0x100172108, symSize: 0x0 }
  - { offsetInCU: 0x4B6, offset: 0x54EDC, size: 0x8, addend: 0x0, symName: __ZN5ImGui15ShowStyleEditorEP10ImGuiStyle, symObjAddr: 0x5C24, symBinAddr: 0x10008C41C, symSize: 0x13EC }
  - { offsetInCU: 0x4DD, offset: 0x54F03, size: 0x8, addend: 0x0, symName: __ZZN5ImGui15ShowStyleEditorEP10ImGuiStyleE15ref_saved_style, symObjAddr: 0x78380, symBinAddr: 0x1001808A0, symSize: 0x0 }
  - { offsetInCU: 0x4F4, offset: 0x54F1A, size: 0x8, addend: 0x0, symName: __ZZN5ImGui15ShowStyleEditorEP10ImGuiStyleE4init, symObjAddr: 0x306A4, symBinAddr: 0x10017210C, symSize: 0x0 }
  - { offsetInCU: 0x50B, offset: 0x54F31, size: 0x8, addend: 0x0, symName: __ZZN5ImGui15ShowStyleEditorEP10ImGuiStyleE11output_dest, symObjAddr: 0x787A0, symBinAddr: 0x100180CC0, symSize: 0x0 }
  - { offsetInCU: 0x522, offset: 0x54F48, size: 0x8, addend: 0x0, symName: __ZZN5ImGui15ShowStyleEditorEP10ImGuiStyleE20output_only_modified, symObjAddr: 0x306A5, symBinAddr: 0x10017210D, symSize: 0x0 }
  - { offsetInCU: 0x539, offset: 0x54F5F, size: 0x8, addend: 0x0, symName: __ZZN5ImGui15ShowStyleEditorEP10ImGuiStyleE6filter, symObjAddr: 0x787A8, symBinAddr: 0x100180CC8, symSize: 0x0 }
  - { offsetInCU: 0x550, offset: 0x54F76, size: 0x8, addend: 0x0, symName: __ZZN5ImGui15ShowStyleEditorEP10ImGuiStyleE11alpha_flags, symObjAddr: 0x788C8, symBinAddr: 0x100180DE8, symSize: 0x0 }
  - { offsetInCU: 0x567, offset: 0x54F8D, size: 0x8, addend: 0x0, symName: __ZZN5ImGui15ShowStyleEditorEP10ImGuiStyleE12window_scale, symObjAddr: 0x306A8, symBinAddr: 0x100172110, symSize: 0x0 }
  - { offsetInCU: 0x7A5, offset: 0x551CB, size: 0x8, addend: 0x0, symName: __ZN5ImGui13ShowUserGuideEv, symObjAddr: 0x0, symBinAddr: 0x1000867F8, symSize: 0x130 }
  - { offsetInCU: 0x7CE, offset: 0x551F4, size: 0x8, addend: 0x0, symName: __ZN5ImGui16ShowFontSelectorEPKc, symObjAddr: 0x1C344, symBinAddr: 0x1000A2B00, symSize: 0x13C }
  - { offsetInCU: 0x9E9, offset: 0x5540F, size: 0x8, addend: 0x0, symName: __ZL21ShowDemoWindowWidgetsv, symObjAddr: 0x7740, symBinAddr: 0x10008DEFC, symSize: 0x8B14 }
  - { offsetInCU: 0xA11, offset: 0x55437, size: 0x8, addend: 0x0, symName: __ZZL21ShowDemoWindowWidgetsvE11disable_all, symObjAddr: 0x788CC, symBinAddr: 0x100180DEC, symSize: 0x0 }
  - { offsetInCU: 0xA28, offset: 0x5544E, size: 0x8, addend: 0x0, symName: __ZZL21ShowDemoWindowWidgetsvE7clicked, symObjAddr: 0x788D0, symBinAddr: 0x100180DF0, symSize: 0x0 }
  - { offsetInCU: 0xA3F, offset: 0x55465, size: 0x8, addend: 0x0, symName: __ZZL21ShowDemoWindowWidgetsvE5check, symObjAddr: 0x306AC, symBinAddr: 0x100172114, symSize: 0x0 }
  - { offsetInCU: 0xA56, offset: 0x5547C, size: 0x8, addend: 0x0, symName: __ZZL21ShowDemoWindowWidgetsvE1e, symObjAddr: 0x788D4, symBinAddr: 0x100180DF4, symSize: 0x0 }
  - { offsetInCU: 0xA6D, offset: 0x55493, size: 0x8, addend: 0x0, symName: __ZZL21ShowDemoWindowWidgetsvE7counter, symObjAddr: 0x788D8, symBinAddr: 0x100180DF8, symSize: 0x0 }
  - { offsetInCU: 0xA84, offset: 0x554AA, size: 0x8, addend: 0x0, symName: __ZZL21ShowDemoWindowWidgetsvE3arr, symObjAddr: 0x306B0, symBinAddr: 0x100172118, symSize: 0x0 }
  - { offsetInCU: 0xA9B, offset: 0x554C1, size: 0x8, addend: 0x0, symName: __ZZL21ShowDemoWindowWidgetsvE12item_current, symObjAddr: 0x788DC, symBinAddr: 0x100180DFC, symSize: 0x0 }
  - { offsetInCU: 0xAB2, offset: 0x554D8, size: 0x8, addend: 0x0, symName: __ZZL21ShowDemoWindowWidgetsvE4str0, symObjAddr: 0x306CC, symBinAddr: 0x100172134, symSize: 0x0 }
  - { offsetInCU: 0xAC9, offset: 0x554EF, size: 0x8, addend: 0x0, symName: __ZZL21ShowDemoWindowWidgetsvE4str1, symObjAddr: 0x788E0, symBinAddr: 0x100180E00, symSize: 0x0 }
  - { offsetInCU: 0xAE0, offset: 0x55506, size: 0x8, addend: 0x0, symName: __ZZL21ShowDemoWindowWidgetsvE2i0, symObjAddr: 0x3074C, symBinAddr: 0x1001721B4, symSize: 0x0 }
  - { offsetInCU: 0xAF7, offset: 0x5551D, size: 0x8, addend: 0x0, symName: __ZZL21ShowDemoWindowWidgetsvE2f0, symObjAddr: 0x30750, symBinAddr: 0x1001721B8, symSize: 0x0 }
  - { offsetInCU: 0xB0E, offset: 0x55534, size: 0x8, addend: 0x0, symName: __ZZL21ShowDemoWindowWidgetsvE2d0, symObjAddr: 0x30758, symBinAddr: 0x1001721C0, symSize: 0x0 }
  - { offsetInCU: 0xB25, offset: 0x5554B, size: 0x8, addend: 0x0, symName: __ZZL21ShowDemoWindowWidgetsvE2f1, symObjAddr: 0x30760, symBinAddr: 0x1001721C8, symSize: 0x0 }
  - { offsetInCU: 0xB3C, offset: 0x55562, size: 0x8, addend: 0x0, symName: __ZZL21ShowDemoWindowWidgetsvE5vec4a, symObjAddr: 0x30764, symBinAddr: 0x1001721CC, symSize: 0x0 }
  - { offsetInCU: 0xB53, offset: 0x55579, size: 0x8, addend: 0x0, symName: __ZZL21ShowDemoWindowWidgetsvE2i1, symObjAddr: 0x30774, symBinAddr: 0x1001721DC, symSize: 0x0 }
  - { offsetInCU: 0xB6A, offset: 0x55590, size: 0x8, addend: 0x0, symName: __ZZL21ShowDemoWindowWidgetsvE2i2, symObjAddr: 0x30778, symBinAddr: 0x1001721E0, symSize: 0x0 }
  - { offsetInCU: 0xB81, offset: 0x555A7, size: 0x8, addend: 0x0, symName: __ZZL21ShowDemoWindowWidgetsvE2f1_0, symObjAddr: 0x3077C, symBinAddr: 0x1001721E4, symSize: 0x0 }
  - { offsetInCU: 0xB98, offset: 0x555BE, size: 0x8, addend: 0x0, symName: __ZZL21ShowDemoWindowWidgetsvE2f2, symObjAddr: 0x30780, symBinAddr: 0x1001721E8, symSize: 0x0 }
  - { offsetInCU: 0xBAF, offset: 0x555D5, size: 0x8, addend: 0x0, symName: __ZZL21ShowDemoWindowWidgetsvE2i1_0, symObjAddr: 0x78960, symBinAddr: 0x100180E80, symSize: 0x0 }
  - { offsetInCU: 0xBC6, offset: 0x555EC, size: 0x8, addend: 0x0, symName: __ZZL21ShowDemoWindowWidgetsvE2f1_1, symObjAddr: 0x30784, symBinAddr: 0x1001721EC, symSize: 0x0 }
  - { offsetInCU: 0xBDD, offset: 0x55603, size: 0x8, addend: 0x0, symName: __ZZL21ShowDemoWindowWidgetsvE2f2_0, symObjAddr: 0x78964, symBinAddr: 0x100180E84, symSize: 0x0 }
  - { offsetInCU: 0xBF4, offset: 0x5561A, size: 0x8, addend: 0x0, symName: __ZZL21ShowDemoWindowWidgetsvE5angle, symObjAddr: 0x78968, symBinAddr: 0x100180E88, symSize: 0x0 }
  - { offsetInCU: 0xC0B, offset: 0x55631, size: 0x8, addend: 0x0, symName: __ZZL21ShowDemoWindowWidgetsvE4elem, symObjAddr: 0x7896C, symBinAddr: 0x100180E8C, symSize: 0x0 }
  - { offsetInCU: 0xC22, offset: 0x55648, size: 0x8, addend: 0x0, symName: __ZZL21ShowDemoWindowWidgetsvE4col1, symObjAddr: 0x30788, symBinAddr: 0x1001721F0, symSize: 0x0 }
  - { offsetInCU: 0xC39, offset: 0x5565F, size: 0x8, addend: 0x0, symName: __ZZL21ShowDemoWindowWidgetsvE4col2, symObjAddr: 0x30794, symBinAddr: 0x1001721FC, symSize: 0x0 }
  - { offsetInCU: 0xC50, offset: 0x55676, size: 0x8, addend: 0x0, symName: __ZZL21ShowDemoWindowWidgetsvE12item_current_0, symObjAddr: 0x307A4, symBinAddr: 0x10017220C, symSize: 0x0 }
  - { offsetInCU: 0xC67, offset: 0x5568D, size: 0x8, addend: 0x0, symName: __ZZL21ShowDemoWindowWidgetsvE10base_flags, symObjAddr: 0x307A8, symBinAddr: 0x100172210, symSize: 0x0 }
  - { offsetInCU: 0xC7E, offset: 0x556A4, size: 0x8, addend: 0x0, symName: __ZZL21ShowDemoWindowWidgetsvE35align_label_with_current_x_position, symObjAddr: 0x78970, symBinAddr: 0x100180E90, symSize: 0x0 }
  - { offsetInCU: 0xC95, offset: 0x556BB, size: 0x8, addend: 0x0, symName: __ZZL21ShowDemoWindowWidgetsvE18test_drag_and_drop, symObjAddr: 0x78971, symBinAddr: 0x100180E91, symSize: 0x0 }
  - { offsetInCU: 0xCAC, offset: 0x556D2, size: 0x8, addend: 0x0, symName: __ZZL21ShowDemoWindowWidgetsvE14selection_mask, symObjAddr: 0x307AC, symBinAddr: 0x100172214, symSize: 0x0 }
  - { offsetInCU: 0xCC3, offset: 0x556E9, size: 0x8, addend: 0x0, symName: __ZZL21ShowDemoWindowWidgetsvE14closable_group, symObjAddr: 0x307B0, symBinAddr: 0x100172218, symSize: 0x0 }
  - { offsetInCU: 0xCDA, offset: 0x55700, size: 0x8, addend: 0x0, symName: __ZZL21ShowDemoWindowWidgetsvE10wrap_width, symObjAddr: 0x307B4, symBinAddr: 0x10017221C, symSize: 0x0 }
  - { offsetInCU: 0xCF1, offset: 0x55717, size: 0x8, addend: 0x0, symName: __ZZL21ShowDemoWindowWidgetsvE3buf, symObjAddr: 0x307B8, symBinAddr: 0x100172220, symSize: 0x0 }
  - { offsetInCU: 0xD08, offset: 0x5572E, size: 0x8, addend: 0x0, symName: __ZZL21ShowDemoWindowWidgetsvE13pressed_count, symObjAddr: 0x78974, symBinAddr: 0x100180E94, symSize: 0x0 }
  - { offsetInCU: 0xD1F, offset: 0x55745, size: 0x8, addend: 0x0, symName: __ZZL21ShowDemoWindowWidgetsvE5flags, symObjAddr: 0x78978, symBinAddr: 0x100180E98, symSize: 0x0 }
  - { offsetInCU: 0xD36, offset: 0x5575C, size: 0x8, addend: 0x0, symName: __ZZL21ShowDemoWindowWidgetsvE16item_current_idx, symObjAddr: 0x7897C, symBinAddr: 0x100180E9C, symSize: 0x0 }
  - { offsetInCU: 0xD4D, offset: 0x55773, size: 0x8, addend: 0x0, symName: __ZZL21ShowDemoWindowWidgetsvE14item_current_2, symObjAddr: 0x78980, symBinAddr: 0x100180EA0, symSize: 0x0 }
  - { offsetInCU: 0xD64, offset: 0x5578A, size: 0x8, addend: 0x0, symName: __ZZL21ShowDemoWindowWidgetsvE14item_current_3, symObjAddr: 0x307D8, symBinAddr: 0x100172240, symSize: 0x0 }
  - { offsetInCU: 0xD7B, offset: 0x557A1, size: 0x8, addend: 0x0, symName: __ZZL21ShowDemoWindowWidgetsvE14item_current_4, symObjAddr: 0x78984, symBinAddr: 0x100180EA4, symSize: 0x0 }
  - { offsetInCU: 0xD92, offset: 0x557B8, size: 0x8, addend: 0x0, symName: __ZZL21ShowDemoWindowWidgetsvE16item_current_idx_0, symObjAddr: 0x78988, symBinAddr: 0x100180EA8, symSize: 0x0 }
  - { offsetInCU: 0xDA9, offset: 0x557CF, size: 0x8, addend: 0x0, symName: __ZZL21ShowDemoWindowWidgetsvE9selection, symObjAddr: 0x307DC, symBinAddr: 0x100172244, symSize: 0x0 }
  - { offsetInCU: 0xDC0, offset: 0x557E6, size: 0x8, addend: 0x0, symName: __ZZL21ShowDemoWindowWidgetsvE8selected, symObjAddr: 0x307E4, symBinAddr: 0x10017224C, symSize: 0x0 }
  - { offsetInCU: 0xDD7, offset: 0x557FD, size: 0x8, addend: 0x0, symName: __ZZL21ShowDemoWindowWidgetsvE9selection_0, symObjAddr: 0x7898C, symBinAddr: 0x100180EAC, symSize: 0x0 }
  - { offsetInCU: 0xDEE, offset: 0x55814, size: 0x8, addend: 0x0, symName: __ZZL21ShowDemoWindowWidgetsvE8selected_0, symObjAddr: 0x78991, symBinAddr: 0x100180EB1, symSize: 0x0 }
  - { offsetInCU: 0xE05, offset: 0x5582B, size: 0x8, addend: 0x0, symName: __ZZL21ShowDemoWindowWidgetsvE8selected_1, symObjAddr: 0x78994, symBinAddr: 0x100180EB4, symSize: 0x0 }
  - { offsetInCU: 0xE1C, offset: 0x55842, size: 0x8, addend: 0x0, symName: __ZZL21ShowDemoWindowWidgetsvE8selected_2, symObjAddr: 0x307E8, symBinAddr: 0x100172250, symSize: 0x0 }
  - { offsetInCU: 0xE33, offset: 0x55859, size: 0x8, addend: 0x0, symName: __ZZL21ShowDemoWindowWidgetsvE8selected_3, symObjAddr: 0x307F8, symBinAddr: 0x100172260, symSize: 0x0 }
  - { offsetInCU: 0xE4A, offset: 0x55870, size: 0x8, addend: 0x0, symName: __ZZL21ShowDemoWindowWidgetsvE4text, symObjAddr: 0x30801, symBinAddr: 0x100172269, symSize: 0x0 }
  - { offsetInCU: 0xE61, offset: 0x55887, size: 0x8, addend: 0x0, symName: __ZZL21ShowDemoWindowWidgetsvE5flags_0, symObjAddr: 0x34804, symBinAddr: 0x10017626C, symSize: 0x0 }
  - { offsetInCU: 0xE78, offset: 0x5589E, size: 0x8, addend: 0x0, symName: __ZZL21ShowDemoWindowWidgetsvE4buf1, symObjAddr: 0x7899E, symBinAddr: 0x100180EBE, symSize: 0x0 }
  - { offsetInCU: 0xE8F, offset: 0x558B5, size: 0x8, addend: 0x0, symName: __ZZL21ShowDemoWindowWidgetsvE4buf2, symObjAddr: 0x789DE, symBinAddr: 0x100180EFE, symSize: 0x0 }
  - { offsetInCU: 0xEA6, offset: 0x558CC, size: 0x8, addend: 0x0, symName: __ZZL21ShowDemoWindowWidgetsvE4buf3, symObjAddr: 0x78A1E, symBinAddr: 0x100180F3E, symSize: 0x0 }
  - { offsetInCU: 0xEBD, offset: 0x558E3, size: 0x8, addend: 0x0, symName: __ZZL21ShowDemoWindowWidgetsvE4buf4, symObjAddr: 0x78A5E, symBinAddr: 0x100180F7E, symSize: 0x0 }
  - { offsetInCU: 0xED4, offset: 0x558FA, size: 0x8, addend: 0x0, symName: __ZZL21ShowDemoWindowWidgetsvE4buf5, symObjAddr: 0x78A9E, symBinAddr: 0x100180FBE, symSize: 0x0 }
  - { offsetInCU: 0xEEB, offset: 0x55911, size: 0x8, addend: 0x0, symName: __ZZL21ShowDemoWindowWidgetsvE4buf6, symObjAddr: 0x78ADE, symBinAddr: 0x100180FFE, symSize: 0x0 }
  - { offsetInCU: 0xF02, offset: 0x55928, size: 0x8, addend: 0x0, symName: __ZZL21ShowDemoWindowWidgetsvE8password, symObjAddr: 0x34808, symBinAddr: 0x100176270, symSize: 0x0 }
  - { offsetInCU: 0xF19, offset: 0x5593F, size: 0x8, addend: 0x0, symName: __ZZL21ShowDemoWindowWidgetsvE4buf1_0, symObjAddr: 0x78B1E, symBinAddr: 0x10018103E, symSize: 0x0 }
  - { offsetInCU: 0xF30, offset: 0x55956, size: 0x8, addend: 0x0, symName: __ZZL21ShowDemoWindowWidgetsvE4buf2_0, symObjAddr: 0x78B5E, symBinAddr: 0x10018107E, symSize: 0x0 }
  - { offsetInCU: 0xF47, offset: 0x5596D, size: 0x8, addend: 0x0, symName: __ZZL21ShowDemoWindowWidgetsvE4buf3_0, symObjAddr: 0x78B9E, symBinAddr: 0x1001810BE, symSize: 0x0 }
  - { offsetInCU: 0xF5E, offset: 0x55984, size: 0x8, addend: 0x0, symName: __ZZL21ShowDemoWindowWidgetsvE10edit_count, symObjAddr: 0x78BE0, symBinAddr: 0x100181100, symSize: 0x0 }
  - { offsetInCU: 0xF75, offset: 0x5599B, size: 0x8, addend: 0x0, symName: __ZZL21ShowDemoWindowWidgetsvE6my_str, symObjAddr: 0x78BE8, symBinAddr: 0x100181108, symSize: 0x0 }
  - { offsetInCU: 0xF8C, offset: 0x559B2, size: 0x8, addend: 0x0, symName: __ZZL21ShowDemoWindowWidgetsvE13tab_bar_flags, symObjAddr: 0x34848, symBinAddr: 0x1001762B0, symSize: 0x0 }
  - { offsetInCU: 0xFA3, offset: 0x559C9, size: 0x8, addend: 0x0, symName: __ZZL21ShowDemoWindowWidgetsvE6opened, symObjAddr: 0x3484C, symBinAddr: 0x1001762B4, symSize: 0x0 }
  - { offsetInCU: 0xFBA, offset: 0x559E0, size: 0x8, addend: 0x0, symName: __ZZL21ShowDemoWindowWidgetsvE11active_tabs, symObjAddr: 0x78C00, symBinAddr: 0x100181120, symSize: 0x0 }
  - { offsetInCU: 0xFD1, offset: 0x559F7, size: 0x8, addend: 0x0, symName: __ZZL21ShowDemoWindowWidgetsvE11next_tab_id, symObjAddr: 0x78C18, symBinAddr: 0x100181138, symSize: 0x0 }
  - { offsetInCU: 0xFE8, offset: 0x55A0E, size: 0x8, addend: 0x0, symName: __ZZL21ShowDemoWindowWidgetsvE19show_leading_button, symObjAddr: 0x34850, symBinAddr: 0x1001762B8, symSize: 0x0 }
  - { offsetInCU: 0xFFF, offset: 0x55A25, size: 0x8, addend: 0x0, symName: __ZZL21ShowDemoWindowWidgetsvE20show_trailing_button, symObjAddr: 0x34851, symBinAddr: 0x1001762B9, symSize: 0x0 }
  - { offsetInCU: 0x1016, offset: 0x55A3C, size: 0x8, addend: 0x0, symName: __ZZL21ShowDemoWindowWidgetsvE13tab_bar_flags_0, symObjAddr: 0x34854, symBinAddr: 0x1001762BC, symSize: 0x0 }
  - { offsetInCU: 0x102D, offset: 0x55A53, size: 0x8, addend: 0x0, symName: __ZZL21ShowDemoWindowWidgetsvE7animate, symObjAddr: 0x34858, symBinAddr: 0x1001762C0, symSize: 0x0 }
  - { offsetInCU: 0x1044, offset: 0x55A6A, size: 0x8, addend: 0x0, symName: __ZZL21ShowDemoWindowWidgetsvE3arr_0, symObjAddr: 0x3485C, symBinAddr: 0x1001762C4, symSize: 0x0 }
  - { offsetInCU: 0x105B, offset: 0x55A81, size: 0x8, addend: 0x0, symName: __ZZL21ShowDemoWindowWidgetsvE6values, symObjAddr: 0x78C1C, symBinAddr: 0x10018113C, symSize: 0x0 }
  - { offsetInCU: 0x1072, offset: 0x55A98, size: 0x8, addend: 0x0, symName: __ZZL21ShowDemoWindowWidgetsvE13values_offset, symObjAddr: 0x78D84, symBinAddr: 0x1001812A4, symSize: 0x0 }
  - { offsetInCU: 0x1089, offset: 0x55AAF, size: 0x8, addend: 0x0, symName: __ZZL21ShowDemoWindowWidgetsvE12refresh_time, symObjAddr: 0x78D88, symBinAddr: 0x1001812A8, symSize: 0x0 }
  - { offsetInCU: 0x10A0, offset: 0x55AC6, size: 0x8, addend: 0x0, symName: __ZZL21ShowDemoWindowWidgetsvE5phase, symObjAddr: 0x78D90, symBinAddr: 0x1001812B0, symSize: 0x0 }
  - { offsetInCU: 0x10B7, offset: 0x55ADD, size: 0x8, addend: 0x0, symName: __ZZL21ShowDemoWindowWidgetsvE9func_type, symObjAddr: 0x78D94, symBinAddr: 0x1001812B4, symSize: 0x0 }
  - { offsetInCU: 0x10CE, offset: 0x55AF4, size: 0x8, addend: 0x0, symName: __ZZL21ShowDemoWindowWidgetsvE13display_count, symObjAddr: 0x34878, symBinAddr: 0x1001762E0, symSize: 0x0 }
  - { offsetInCU: 0x10E5, offset: 0x55B0B, size: 0x8, addend: 0x0, symName: __ZZL21ShowDemoWindowWidgetsvE8progress, symObjAddr: 0x78D98, symBinAddr: 0x1001812B8, symSize: 0x0 }
  - { offsetInCU: 0x10FC, offset: 0x55B22, size: 0x8, addend: 0x0, symName: __ZZL21ShowDemoWindowWidgetsvE12progress_dir, symObjAddr: 0x3487C, symBinAddr: 0x1001762E4, symSize: 0x0 }
  - { offsetInCU: 0x1113, offset: 0x55B39, size: 0x8, addend: 0x0, symName: __ZZL21ShowDemoWindowWidgetsvE5color, symObjAddr: 0x34880, symBinAddr: 0x1001762E8, symSize: 0x0 }
  - { offsetInCU: 0x112A, offset: 0x55B50, size: 0x8, addend: 0x0, symName: __ZZL21ShowDemoWindowWidgetsvE13alpha_preview, symObjAddr: 0x34890, symBinAddr: 0x1001762F8, symSize: 0x0 }
  - { offsetInCU: 0x1141, offset: 0x55B67, size: 0x8, addend: 0x0, symName: __ZZL21ShowDemoWindowWidgetsvE18alpha_half_preview, symObjAddr: 0x78D9C, symBinAddr: 0x1001812BC, symSize: 0x0 }
  - { offsetInCU: 0x1158, offset: 0x55B7E, size: 0x8, addend: 0x0, symName: __ZZL21ShowDemoWindowWidgetsvE13drag_and_drop, symObjAddr: 0x34891, symBinAddr: 0x1001762F9, symSize: 0x0 }
  - { offsetInCU: 0x116F, offset: 0x55B95, size: 0x8, addend: 0x0, symName: __ZZL21ShowDemoWindowWidgetsvE12options_menu, symObjAddr: 0x34892, symBinAddr: 0x1001762FA, symSize: 0x0 }
  - { offsetInCU: 0x1186, offset: 0x55BAC, size: 0x8, addend: 0x0, symName: __ZZL21ShowDemoWindowWidgetsvE3hdr, symObjAddr: 0x78D9D, symBinAddr: 0x1001812BD, symSize: 0x0 }
  - { offsetInCU: 0x119D, offset: 0x55BC3, size: 0x8, addend: 0x0, symName: __ZZL21ShowDemoWindowWidgetsvE18saved_palette_init, symObjAddr: 0x34893, symBinAddr: 0x1001762FB, symSize: 0x0 }
  - { offsetInCU: 0x11B4, offset: 0x55BDA, size: 0x8, addend: 0x0, symName: __ZZL21ShowDemoWindowWidgetsvE13saved_palette, symObjAddr: 0x78DA0, symBinAddr: 0x1001812C0, symSize: 0x0 }
  - { offsetInCU: 0x11CB, offset: 0x55BF1, size: 0x8, addend: 0x0, symName: __ZZL21ShowDemoWindowWidgetsvE12backup_color, symObjAddr: 0x78FA0, symBinAddr: 0x1001814C0, symSize: 0x0 }
  - { offsetInCU: 0x11E2, offset: 0x55C08, size: 0x8, addend: 0x0, symName: __ZZL21ShowDemoWindowWidgetsvE9no_border, symObjAddr: 0x78FB0, symBinAddr: 0x1001814D0, symSize: 0x0 }
  - { offsetInCU: 0x11F9, offset: 0x55C1F, size: 0x8, addend: 0x0, symName: __ZZL21ShowDemoWindowWidgetsvE5alpha, symObjAddr: 0x34894, symBinAddr: 0x1001762FC, symSize: 0x0 }
  - { offsetInCU: 0x1210, offset: 0x55C36, size: 0x8, addend: 0x0, symName: __ZZL21ShowDemoWindowWidgetsvE9alpha_bar, symObjAddr: 0x34895, symBinAddr: 0x1001762FD, symSize: 0x0 }
  - { offsetInCU: 0x1227, offset: 0x55C4D, size: 0x8, addend: 0x0, symName: __ZZL21ShowDemoWindowWidgetsvE12side_preview, symObjAddr: 0x34896, symBinAddr: 0x1001762FE, symSize: 0x0 }
  - { offsetInCU: 0x123E, offset: 0x55C64, size: 0x8, addend: 0x0, symName: __ZZL21ShowDemoWindowWidgetsvE9ref_color, symObjAddr: 0x78FB1, symBinAddr: 0x1001814D1, symSize: 0x0 }
  - { offsetInCU: 0x1255, offset: 0x55C7B, size: 0x8, addend: 0x0, symName: __ZZL21ShowDemoWindowWidgetsvE11ref_color_v, symObjAddr: 0x34898, symBinAddr: 0x100176300, symSize: 0x0 }
  - { offsetInCU: 0x126C, offset: 0x55C92, size: 0x8, addend: 0x0, symName: __ZZL21ShowDemoWindowWidgetsvE12display_mode, symObjAddr: 0x78FB4, symBinAddr: 0x1001814D4, symSize: 0x0 }
  - { offsetInCU: 0x1283, offset: 0x55CA9, size: 0x8, addend: 0x0, symName: __ZZL21ShowDemoWindowWidgetsvE11picker_mode, symObjAddr: 0x78FB8, symBinAddr: 0x1001814D8, symSize: 0x0 }
  - { offsetInCU: 0x129A, offset: 0x55CC0, size: 0x8, addend: 0x0, symName: __ZZL21ShowDemoWindowWidgetsvE9color_hsv, symObjAddr: 0x348A8, symBinAddr: 0x100176310, symSize: 0x0 }
  - { offsetInCU: 0x12B1, offset: 0x55CD7, size: 0x8, addend: 0x0, symName: __ZZL21ShowDemoWindowWidgetsvE5flags_1, symObjAddr: 0x78FBC, symBinAddr: 0x1001814DC, symSize: 0x0 }
  - { offsetInCU: 0x12C8, offset: 0x55CEE, size: 0x8, addend: 0x0, symName: __ZZL21ShowDemoWindowWidgetsvE6drag_f, symObjAddr: 0x348B8, symBinAddr: 0x100176320, symSize: 0x0 }
  - { offsetInCU: 0x12DF, offset: 0x55D05, size: 0x8, addend: 0x0, symName: __ZZL21ShowDemoWindowWidgetsvE6drag_i, symObjAddr: 0x348BC, symBinAddr: 0x100176324, symSize: 0x0 }
  - { offsetInCU: 0x12F6, offset: 0x55D1C, size: 0x8, addend: 0x0, symName: __ZZL21ShowDemoWindowWidgetsvE8slider_f, symObjAddr: 0x348C0, symBinAddr: 0x100176328, symSize: 0x0 }
  - { offsetInCU: 0x130D, offset: 0x55D33, size: 0x8, addend: 0x0, symName: __ZZL21ShowDemoWindowWidgetsvE8slider_i, symObjAddr: 0x348C4, symBinAddr: 0x10017632C, symSize: 0x0 }
  - { offsetInCU: 0x1324, offset: 0x55D4A, size: 0x8, addend: 0x0, symName: __ZZL21ShowDemoWindowWidgetsvE5begin, symObjAddr: 0x348C8, symBinAddr: 0x100176330, symSize: 0x0 }
  - { offsetInCU: 0x133B, offset: 0x55D61, size: 0x8, addend: 0x0, symName: __ZZL21ShowDemoWindowWidgetsvE3end, symObjAddr: 0x348CC, symBinAddr: 0x100176334, symSize: 0x0 }
  - { offsetInCU: 0x1352, offset: 0x55D78, size: 0x8, addend: 0x0, symName: __ZZL21ShowDemoWindowWidgetsvE7begin_i, symObjAddr: 0x348D0, symBinAddr: 0x100176338, symSize: 0x0 }
  - { offsetInCU: 0x1369, offset: 0x55D8F, size: 0x8, addend: 0x0, symName: __ZZL21ShowDemoWindowWidgetsvE5end_i, symObjAddr: 0x348D4, symBinAddr: 0x10017633C, symSize: 0x0 }
  - { offsetInCU: 0x1380, offset: 0x55DA6, size: 0x8, addend: 0x0, symName: __ZZL21ShowDemoWindowWidgetsvE4s8_v, symObjAddr: 0x348D8, symBinAddr: 0x100176340, symSize: 0x0 }
  - { offsetInCU: 0x1397, offset: 0x55DBD, size: 0x8, addend: 0x0, symName: __ZZL21ShowDemoWindowWidgetsvE4u8_v, symObjAddr: 0x348D9, symBinAddr: 0x100176341, symSize: 0x0 }
  - { offsetInCU: 0x13AE, offset: 0x55DD4, size: 0x8, addend: 0x0, symName: __ZZL21ShowDemoWindowWidgetsvE5s16_v, symObjAddr: 0x348DA, symBinAddr: 0x100176342, symSize: 0x0 }
  - { offsetInCU: 0x13C5, offset: 0x55DEB, size: 0x8, addend: 0x0, symName: __ZZL21ShowDemoWindowWidgetsvE5u16_v, symObjAddr: 0x348DC, symBinAddr: 0x100176344, symSize: 0x0 }
  - { offsetInCU: 0x13DC, offset: 0x55E02, size: 0x8, addend: 0x0, symName: __ZZL21ShowDemoWindowWidgetsvE5s32_v, symObjAddr: 0x348E0, symBinAddr: 0x100176348, symSize: 0x0 }
  - { offsetInCU: 0x13F3, offset: 0x55E19, size: 0x8, addend: 0x0, symName: __ZZL21ShowDemoWindowWidgetsvE5u32_v, symObjAddr: 0x348E4, symBinAddr: 0x10017634C, symSize: 0x0 }
  - { offsetInCU: 0x140A, offset: 0x55E30, size: 0x8, addend: 0x0, symName: __ZZL21ShowDemoWindowWidgetsvE5s64_v, symObjAddr: 0x348E8, symBinAddr: 0x100176350, symSize: 0x0 }
  - { offsetInCU: 0x1421, offset: 0x55E47, size: 0x8, addend: 0x0, symName: __ZZL21ShowDemoWindowWidgetsvE5u64_v, symObjAddr: 0x348F0, symBinAddr: 0x100176358, symSize: 0x0 }
  - { offsetInCU: 0x1438, offset: 0x55E5E, size: 0x8, addend: 0x0, symName: __ZZL21ShowDemoWindowWidgetsvE5f32_v, symObjAddr: 0x348F8, symBinAddr: 0x100176360, symSize: 0x0 }
  - { offsetInCU: 0x144F, offset: 0x55E75, size: 0x8, addend: 0x0, symName: __ZZL21ShowDemoWindowWidgetsvE5f64_v, symObjAddr: 0x34900, symBinAddr: 0x100176368, symSize: 0x0 }
  - { offsetInCU: 0x1466, offset: 0x55E8C, size: 0x8, addend: 0x0, symName: __ZZL21ShowDemoWindowWidgetsvE10drag_clamp, symObjAddr: 0x78FC0, symBinAddr: 0x1001814E0, symSize: 0x0 }
  - { offsetInCU: 0x147D, offset: 0x55EA3, size: 0x8, addend: 0x0, symName: __ZZL21ShowDemoWindowWidgetsvE11inputs_step, symObjAddr: 0x34908, symBinAddr: 0x100176370, symSize: 0x0 }
  - { offsetInCU: 0x1494, offset: 0x55EBA, size: 0x8, addend: 0x0, symName: __ZZL21ShowDemoWindowWidgetsvE5vec4f, symObjAddr: 0x3490C, symBinAddr: 0x100176374, symSize: 0x0 }
  - { offsetInCU: 0x14AB, offset: 0x55ED1, size: 0x8, addend: 0x0, symName: __ZZL21ShowDemoWindowWidgetsvE5vec4i, symObjAddr: 0x3491C, symBinAddr: 0x100176384, symSize: 0x0 }
  - { offsetInCU: 0x14C2, offset: 0x55EE8, size: 0x8, addend: 0x0, symName: __ZZL21ShowDemoWindowWidgetsvE9int_value, symObjAddr: 0x78FC4, symBinAddr: 0x1001814E4, symSize: 0x0 }
  - { offsetInCU: 0x14D9, offset: 0x55EFF, size: 0x8, addend: 0x0, symName: __ZZL21ShowDemoWindowWidgetsvE6values_0, symObjAddr: 0x3492C, symBinAddr: 0x100176394, symSize: 0x0 }
  - { offsetInCU: 0x14F0, offset: 0x55F16, size: 0x8, addend: 0x0, symName: __ZZL21ShowDemoWindowWidgetsvE7values2, symObjAddr: 0x34948, symBinAddr: 0x1001763B0, symSize: 0x0 }
  - { offsetInCU: 0x1507, offset: 0x55F2D, size: 0x8, addend: 0x0, symName: __ZZL21ShowDemoWindowWidgetsvE4col1_0, symObjAddr: 0x34958, symBinAddr: 0x1001763C0, symSize: 0x0 }
  - { offsetInCU: 0x151E, offset: 0x55F44, size: 0x8, addend: 0x0, symName: __ZZL21ShowDemoWindowWidgetsvE4col2_0, symObjAddr: 0x34964, symBinAddr: 0x1001763CC, symSize: 0x0 }
  - { offsetInCU: 0x1535, offset: 0x55F5B, size: 0x8, addend: 0x0, symName: __ZZL21ShowDemoWindowWidgetsvE4mode, symObjAddr: 0x78FC8, symBinAddr: 0x1001814E8, symSize: 0x0 }
  - { offsetInCU: 0x154C, offset: 0x55F72, size: 0x8, addend: 0x0, symName: __ZZL21ShowDemoWindowWidgetsvE5names, symObjAddr: 0x34978, symBinAddr: 0x1001763E0, symSize: 0x0 }
  - { offsetInCU: 0x1563, offset: 0x55F89, size: 0x8, addend: 0x0, symName: __ZZL21ShowDemoWindowWidgetsvE10item_names, symObjAddr: 0x349C0, symBinAddr: 0x100176428, symSize: 0x0 }
  - { offsetInCU: 0x157A, offset: 0x55FA0, size: 0x8, addend: 0x0, symName: __ZZL21ShowDemoWindowWidgetsvE9item_type, symObjAddr: 0x349E8, symBinAddr: 0x100176450, symSize: 0x0 }
  - { offsetInCU: 0x1591, offset: 0x55FB7, size: 0x8, addend: 0x0, symName: __ZZL21ShowDemoWindowWidgetsvE13item_disabled, symObjAddr: 0x78FCC, symBinAddr: 0x1001814EC, symSize: 0x0 }
  - { offsetInCU: 0x15A8, offset: 0x55FCE, size: 0x8, addend: 0x0, symName: __ZZL21ShowDemoWindowWidgetsvE1b, symObjAddr: 0x78FCD, symBinAddr: 0x1001814ED, symSize: 0x0 }
  - { offsetInCU: 0x15BF, offset: 0x55FE5, size: 0x8, addend: 0x0, symName: __ZZL21ShowDemoWindowWidgetsvE5col4f, symObjAddr: 0x349EC, symBinAddr: 0x100176454, symSize: 0x0 }
  - { offsetInCU: 0x15D6, offset: 0x55FFC, size: 0x8, addend: 0x0, symName: __ZZL21ShowDemoWindowWidgetsvE3str, symObjAddr: 0x78FCE, symBinAddr: 0x1001814EE, symSize: 0x0 }
  - { offsetInCU: 0x15ED, offset: 0x56013, size: 0x8, addend: 0x0, symName: __ZZL21ShowDemoWindowWidgetsvE7current, symObjAddr: 0x349FC, symBinAddr: 0x100176464, symSize: 0x0 }
  - { offsetInCU: 0x1604, offset: 0x5602A, size: 0x8, addend: 0x0, symName: __ZZL21ShowDemoWindowWidgetsvE7current_0, symObjAddr: 0x34A00, symBinAddr: 0x100176468, symSize: 0x0 }
  - { offsetInCU: 0x161B, offset: 0x56041, size: 0x8, addend: 0x0, symName: __ZZL21ShowDemoWindowWidgetsvE31embed_all_inside_a_child_window, symObjAddr: 0x78FDE, symBinAddr: 0x1001814FE, symSize: 0x0 }
  - { offsetInCU: 0x1632, offset: 0x56058, size: 0x8, addend: 0x0, symName: __ZZL21ShowDemoWindowWidgetsvE11test_window, symObjAddr: 0x78FDF, symBinAddr: 0x1001814FF, symSize: 0x0 }
  - { offsetInCU: 0x2707, offset: 0x5712D, size: 0x8, addend: 0x0, symName: __ZL20ShowDemoWindowLayoutv, symObjAddr: 0x10254, symBinAddr: 0x100096A10, symSize: 0x32E4 }
  - { offsetInCU: 0x272F, offset: 0x57155, size: 0x8, addend: 0x0, symName: __ZZL20ShowDemoWindowLayoutvE19disable_mouse_wheel, symObjAddr: 0x78FE0, symBinAddr: 0x100181500, symSize: 0x0 }
  - { offsetInCU: 0x2746, offset: 0x5716C, size: 0x8, addend: 0x0, symName: __ZZL20ShowDemoWindowLayoutvE12disable_menu, symObjAddr: 0x78FE1, symBinAddr: 0x100181501, symSize: 0x0 }
  - { offsetInCU: 0x275D, offset: 0x57183, size: 0x8, addend: 0x0, symName: __ZZL20ShowDemoWindowLayoutvE8offset_x, symObjAddr: 0x78FE4, symBinAddr: 0x100181504, symSize: 0x0 }
  - { offsetInCU: 0x2774, offset: 0x5719A, size: 0x8, addend: 0x0, symName: __ZZL20ShowDemoWindowLayoutvE1f, symObjAddr: 0x78FE8, symBinAddr: 0x100181508, symSize: 0x0 }
  - { offsetInCU: 0x278B, offset: 0x571B1, size: 0x8, addend: 0x0, symName: __ZZL20ShowDemoWindowLayoutvE19show_indented_items, symObjAddr: 0x34A04, symBinAddr: 0x10017646C, symSize: 0x0 }
  - { offsetInCU: 0x27A2, offset: 0x571C8, size: 0x8, addend: 0x0, symName: __ZZL20ShowDemoWindowLayoutvE2c1, symObjAddr: 0x78FEC, symBinAddr: 0x10018150C, symSize: 0x0 }
  - { offsetInCU: 0x27B9, offset: 0x571DF, size: 0x8, addend: 0x0, symName: __ZZL20ShowDemoWindowLayoutvE2c2, symObjAddr: 0x78FED, symBinAddr: 0x10018150D, symSize: 0x0 }
  - { offsetInCU: 0x27D0, offset: 0x571F6, size: 0x8, addend: 0x0, symName: __ZZL20ShowDemoWindowLayoutvE2c3, symObjAddr: 0x78FEE, symBinAddr: 0x10018150E, symSize: 0x0 }
  - { offsetInCU: 0x27E7, offset: 0x5720D, size: 0x8, addend: 0x0, symName: __ZZL20ShowDemoWindowLayoutvE2c4, symObjAddr: 0x78FEF, symBinAddr: 0x10018150F, symSize: 0x0 }
  - { offsetInCU: 0x27FE, offset: 0x57224, size: 0x8, addend: 0x0, symName: __ZZL20ShowDemoWindowLayoutvE2f0, symObjAddr: 0x34A08, symBinAddr: 0x100176470, symSize: 0x0 }
  - { offsetInCU: 0x2815, offset: 0x5723B, size: 0x8, addend: 0x0, symName: __ZZL20ShowDemoWindowLayoutvE2f1, symObjAddr: 0x34A0C, symBinAddr: 0x100176474, symSize: 0x0 }
  - { offsetInCU: 0x282C, offset: 0x57252, size: 0x8, addend: 0x0, symName: __ZZL20ShowDemoWindowLayoutvE2f2, symObjAddr: 0x34A10, symBinAddr: 0x100176478, symSize: 0x0 }
  - { offsetInCU: 0x2843, offset: 0x57269, size: 0x8, addend: 0x0, symName: __ZZL20ShowDemoWindowLayoutvE4item, symObjAddr: 0x34A14, symBinAddr: 0x10017647C, symSize: 0x0 }
  - { offsetInCU: 0x285A, offset: 0x57280, size: 0x8, addend: 0x0, symName: __ZZL20ShowDemoWindowLayoutvE9selection, symObjAddr: 0x34A18, symBinAddr: 0x100176480, symSize: 0x0 }
  - { offsetInCU: 0x2871, offset: 0x57297, size: 0x8, addend: 0x0, symName: __ZZL20ShowDemoWindowLayoutvE10track_item, symObjAddr: 0x34A28, symBinAddr: 0x100176490, symSize: 0x0 }
  - { offsetInCU: 0x2888, offset: 0x572AE, size: 0x8, addend: 0x0, symName: __ZZL20ShowDemoWindowLayoutvE12enable_track, symObjAddr: 0x34A2C, symBinAddr: 0x100176494, symSize: 0x0 }
  - { offsetInCU: 0x289F, offset: 0x572C5, size: 0x8, addend: 0x0, symName: __ZZL20ShowDemoWindowLayoutvE24enable_extra_decorations, symObjAddr: 0x78FF0, symBinAddr: 0x100181510, symSize: 0x0 }
  - { offsetInCU: 0x28B6, offset: 0x572DC, size: 0x8, addend: 0x0, symName: __ZZL20ShowDemoWindowLayoutvE16scroll_to_off_px, symObjAddr: 0x78FF4, symBinAddr: 0x100181514, symSize: 0x0 }
  - { offsetInCU: 0x28CD, offset: 0x572F3, size: 0x8, addend: 0x0, symName: __ZZL20ShowDemoWindowLayoutvE16scroll_to_pos_px, symObjAddr: 0x34A30, symBinAddr: 0x100176498, symSize: 0x0 }
  - { offsetInCU: 0x28E4, offset: 0x5730A, size: 0x8, addend: 0x0, symName: __ZZL20ShowDemoWindowLayoutvE5lines, symObjAddr: 0x34A34, symBinAddr: 0x10017649C, symSize: 0x0 }
  - { offsetInCU: 0x28FB, offset: 0x57321, size: 0x8, addend: 0x0, symName: __ZZL20ShowDemoWindowLayoutvE41show_horizontal_contents_size_demo_window, symObjAddr: 0x78FF8, symBinAddr: 0x100181518, symSize: 0x0 }
  - { offsetInCU: 0x2912, offset: 0x57338, size: 0x8, addend: 0x0, symName: __ZZL20ShowDemoWindowLayoutvE16show_h_scrollbar, symObjAddr: 0x34A38, symBinAddr: 0x1001764A0, symSize: 0x0 }
  - { offsetInCU: 0x2929, offset: 0x5734F, size: 0x8, addend: 0x0, symName: __ZZL20ShowDemoWindowLayoutvE11show_button, symObjAddr: 0x34A39, symBinAddr: 0x1001764A1, symSize: 0x0 }
  - { offsetInCU: 0x2940, offset: 0x57366, size: 0x8, addend: 0x0, symName: __ZZL20ShowDemoWindowLayoutvE15show_tree_nodes, symObjAddr: 0x34A3A, symBinAddr: 0x1001764A2, symSize: 0x0 }
  - { offsetInCU: 0x2957, offset: 0x5737D, size: 0x8, addend: 0x0, symName: __ZZL20ShowDemoWindowLayoutvE17show_text_wrapped, symObjAddr: 0x78FF9, symBinAddr: 0x100181519, symSize: 0x0 }
  - { offsetInCU: 0x296E, offset: 0x57394, size: 0x8, addend: 0x0, symName: __ZZL20ShowDemoWindowLayoutvE12show_columns, symObjAddr: 0x34A3B, symBinAddr: 0x1001764A3, symSize: 0x0 }
  - { offsetInCU: 0x2985, offset: 0x573AB, size: 0x8, addend: 0x0, symName: __ZZL20ShowDemoWindowLayoutvE12show_tab_bar, symObjAddr: 0x34A3C, symBinAddr: 0x1001764A4, symSize: 0x0 }
  - { offsetInCU: 0x299C, offset: 0x573C2, size: 0x8, addend: 0x0, symName: __ZZL20ShowDemoWindowLayoutvE10show_child, symObjAddr: 0x78FFA, symBinAddr: 0x10018151A, symSize: 0x0 }
  - { offsetInCU: 0x29B3, offset: 0x573D9, size: 0x8, addend: 0x0, symName: __ZZL20ShowDemoWindowLayoutvE21explicit_content_size, symObjAddr: 0x78FFB, symBinAddr: 0x10018151B, symSize: 0x0 }
  - { offsetInCU: 0x29CA, offset: 0x573F0, size: 0x8, addend: 0x0, symName: __ZZL20ShowDemoWindowLayoutvE15contents_size_x, symObjAddr: 0x34A40, symBinAddr: 0x1001764A8, symSize: 0x0 }
  - { offsetInCU: 0x29E1, offset: 0x57407, size: 0x8, addend: 0x0, symName: __ZZL20ShowDemoWindowLayoutvE4size, symObjAddr: 0x34A44, symBinAddr: 0x1001764AC, symSize: 0x0 }
  - { offsetInCU: 0x29F8, offset: 0x5741E, size: 0x8, addend: 0x0, symName: __ZZL20ShowDemoWindowLayoutvE6offset, symObjAddr: 0x34A4C, symBinAddr: 0x1001764B4, symSize: 0x0 }
  - { offsetInCU: 0x2FF0, offset: 0x57A16, size: 0x8, addend: 0x0, symName: __ZL20ShowDemoWindowPopupsv, symObjAddr: 0x13538, symBinAddr: 0x100099CF4, symSize: 0xED0 }
  - { offsetInCU: 0x3018, offset: 0x57A3E, size: 0x8, addend: 0x0, symName: __ZZL20ShowDemoWindowPopupsvE13selected_fish, symObjAddr: 0x34A54, symBinAddr: 0x1001764BC, symSize: 0x0 }
  - { offsetInCU: 0x302F, offset: 0x57A55, size: 0x8, addend: 0x0, symName: __ZZL20ShowDemoWindowPopupsvE7toggles, symObjAddr: 0x34A58, symBinAddr: 0x1001764C0, symSize: 0x0 }
  - { offsetInCU: 0x3046, offset: 0x57A6C, size: 0x8, addend: 0x0, symName: __ZZL20ShowDemoWindowPopupsvE5value, symObjAddr: 0x34A60, symBinAddr: 0x1001764C8, symSize: 0x0 }
  - { offsetInCU: 0x305D, offset: 0x57A83, size: 0x8, addend: 0x0, symName: __ZZL20ShowDemoWindowPopupsvE4name, symObjAddr: 0x34A64, symBinAddr: 0x1001764CC, symSize: 0x0 }
  - { offsetInCU: 0x3074, offset: 0x57A9A, size: 0x8, addend: 0x0, symName: __ZZL20ShowDemoWindowPopupsvE21dont_ask_me_next_time, symObjAddr: 0x78FFC, symBinAddr: 0x10018151C, symSize: 0x0 }
  - { offsetInCU: 0x308B, offset: 0x57AB1, size: 0x8, addend: 0x0, symName: __ZZL20ShowDemoWindowPopupsvE4item, symObjAddr: 0x34A84, symBinAddr: 0x1001764EC, symSize: 0x0 }
  - { offsetInCU: 0x30A2, offset: 0x57AC8, size: 0x8, addend: 0x0, symName: __ZZL20ShowDemoWindowPopupsvE5color, symObjAddr: 0x34A88, symBinAddr: 0x1001764F0, symSize: 0x0 }
  - { offsetInCU: 0x31BA, offset: 0x57BE0, size: 0x8, addend: 0x0, symName: __ZL20ShowDemoWindowTablesv, symObjAddr: 0x14408, symBinAddr: 0x10009ABC4, symSize: 0x64B4 }
  - { offsetInCU: 0x31E2, offset: 0x57C08, size: 0x8, addend: 0x0, symName: __ZZL20ShowDemoWindowTablesvE14disable_indent, symObjAddr: 0x78FFD, symBinAddr: 0x10018151D, symSize: 0x0 }
  - { offsetInCU: 0x31F9, offset: 0x57C1F, size: 0x8, addend: 0x0, symName: __ZZL20ShowDemoWindowTablesvE5flags, symObjAddr: 0x34A98, symBinAddr: 0x100176500, symSize: 0x0 }
  - { offsetInCU: 0x3210, offset: 0x57C36, size: 0x8, addend: 0x0, symName: __ZZL20ShowDemoWindowTablesvE15display_headers, symObjAddr: 0x78FFE, symBinAddr: 0x10018151E, symSize: 0x0 }
  - { offsetInCU: 0x3227, offset: 0x57C4D, size: 0x8, addend: 0x0, symName: __ZZL20ShowDemoWindowTablesvE13contents_type, symObjAddr: 0x79000, symBinAddr: 0x100181520, symSize: 0x0 }
  - { offsetInCU: 0x323E, offset: 0x57C64, size: 0x8, addend: 0x0, symName: __ZZL20ShowDemoWindowTablesvE5flags_0, symObjAddr: 0x34A9C, symBinAddr: 0x100176504, symSize: 0x0 }
  - { offsetInCU: 0x3255, offset: 0x57C7B, size: 0x8, addend: 0x0, symName: __ZZL20ShowDemoWindowTablesvE5flags_1, symObjAddr: 0x34AA0, symBinAddr: 0x100176508, symSize: 0x0 }
  - { offsetInCU: 0x326C, offset: 0x57C92, size: 0x8, addend: 0x0, symName: __ZZL20ShowDemoWindowTablesvE5flags_2, symObjAddr: 0x34AA4, symBinAddr: 0x10017650C, symSize: 0x0 }
  - { offsetInCU: 0x3283, offset: 0x57CA9, size: 0x8, addend: 0x0, symName: __ZZL20ShowDemoWindowTablesvE5flags_3, symObjAddr: 0x34AA8, symBinAddr: 0x100176510, symSize: 0x0 }
  - { offsetInCU: 0x329A, offset: 0x57CC0, size: 0x8, addend: 0x0, symName: __ZZL20ShowDemoWindowTablesvE6flags1, symObjAddr: 0x34AAC, symBinAddr: 0x100176514, symSize: 0x0 }
  - { offsetInCU: 0x32B1, offset: 0x57CD7, size: 0x8, addend: 0x0, symName: __ZZL20ShowDemoWindowTablesvE12show_headers, symObjAddr: 0x79004, symBinAddr: 0x100181524, symSize: 0x0 }
  - { offsetInCU: 0x32C8, offset: 0x57CEE, size: 0x8, addend: 0x0, symName: __ZZL20ShowDemoWindowTablesvE6flags2, symObjAddr: 0x34AB0, symBinAddr: 0x100176518, symSize: 0x0 }
  - { offsetInCU: 0x32DF, offset: 0x57D05, size: 0x8, addend: 0x0, symName: __ZZL20ShowDemoWindowTablesvE12cell_padding, symObjAddr: 0x79008, symBinAddr: 0x100181528, symSize: 0x0 }
  - { offsetInCU: 0x32F6, offset: 0x57D1C, size: 0x8, addend: 0x0, symName: __ZZL20ShowDemoWindowTablesvE20show_widget_frame_bg, symObjAddr: 0x34AB4, symBinAddr: 0x10017651C, symSize: 0x0 }
  - { offsetInCU: 0x330D, offset: 0x57D33, size: 0x8, addend: 0x0, symName: __ZZL20ShowDemoWindowTablesvE9text_bufs, symObjAddr: 0x79010, symBinAddr: 0x100181530, symSize: 0x0 }
  - { offsetInCU: 0x3324, offset: 0x57D4A, size: 0x8, addend: 0x0, symName: __ZZL20ShowDemoWindowTablesvE4init, symObjAddr: 0x34AB5, symBinAddr: 0x10017651D, symSize: 0x0 }
  - { offsetInCU: 0x333B, offset: 0x57D61, size: 0x8, addend: 0x0, symName: __ZZL20ShowDemoWindowTablesvE6flags1_0, symObjAddr: 0x34AB8, symBinAddr: 0x100176520, symSize: 0x0 }
  - { offsetInCU: 0x3352, offset: 0x57D78, size: 0x8, addend: 0x0, symName: __ZZL20ShowDemoWindowTablesvE19sizing_policy_flags, symObjAddr: 0x34ABC, symBinAddr: 0x100176524, symSize: 0x0 }
  - { offsetInCU: 0x3369, offset: 0x57D8F, size: 0x8, addend: 0x0, symName: __ZZL20ShowDemoWindowTablesvE5flags_4, symObjAddr: 0x34ACC, symBinAddr: 0x100176534, symSize: 0x0 }
  - { offsetInCU: 0x3380, offset: 0x57DA6, size: 0x8, addend: 0x0, symName: __ZZL20ShowDemoWindowTablesvE13contents_type_0, symObjAddr: 0x79100, symBinAddr: 0x100181620, symSize: 0x0 }
  - { offsetInCU: 0x3397, offset: 0x57DBD, size: 0x8, addend: 0x0, symName: __ZZL20ShowDemoWindowTablesvE12column_count, symObjAddr: 0x34AD0, symBinAddr: 0x100176538, symSize: 0x0 }
  - { offsetInCU: 0x33AE, offset: 0x57DD4, size: 0x8, addend: 0x0, symName: __ZZL20ShowDemoWindowTablesvE8text_buf, symObjAddr: 0x79104, symBinAddr: 0x100181624, symSize: 0x0 }
  - { offsetInCU: 0x33C5, offset: 0x57DEB, size: 0x8, addend: 0x0, symName: __ZZL20ShowDemoWindowTablesvE5flags_5, symObjAddr: 0x34AD4, symBinAddr: 0x10017653C, symSize: 0x0 }
  - { offsetInCU: 0x33DC, offset: 0x57E02, size: 0x8, addend: 0x0, symName: __ZZL20ShowDemoWindowTablesvE5flags_6, symObjAddr: 0x34AD8, symBinAddr: 0x100176540, symSize: 0x0 }
  - { offsetInCU: 0x33F3, offset: 0x57E19, size: 0x8, addend: 0x0, symName: __ZZL20ShowDemoWindowTablesvE11freeze_cols, symObjAddr: 0x34ADC, symBinAddr: 0x100176544, symSize: 0x0 }
  - { offsetInCU: 0x340A, offset: 0x57E30, size: 0x8, addend: 0x0, symName: __ZZL20ShowDemoWindowTablesvE11freeze_rows, symObjAddr: 0x34AE0, symBinAddr: 0x100176548, symSize: 0x0 }
  - { offsetInCU: 0x3421, offset: 0x57E47, size: 0x8, addend: 0x0, symName: __ZZL20ShowDemoWindowTablesvE6flags2_0, symObjAddr: 0x34AE4, symBinAddr: 0x10017654C, symSize: 0x0 }
  - { offsetInCU: 0x3438, offset: 0x57E5E, size: 0x8, addend: 0x0, symName: __ZZL20ShowDemoWindowTablesvE11inner_width, symObjAddr: 0x34AE8, symBinAddr: 0x100176550, symSize: 0x0 }
  - { offsetInCU: 0x344F, offset: 0x57E75, size: 0x8, addend: 0x0, symName: __ZZL20ShowDemoWindowTablesvE12column_flags, symObjAddr: 0x34AEC, symBinAddr: 0x100176554, symSize: 0x0 }
  - { offsetInCU: 0x3466, offset: 0x57E8C, size: 0x8, addend: 0x0, symName: __ZZL20ShowDemoWindowTablesvE16column_flags_out, symObjAddr: 0x79124, symBinAddr: 0x100181644, symSize: 0x0 }
  - { offsetInCU: 0x347D, offset: 0x57EA3, size: 0x8, addend: 0x0, symName: __ZZL20ShowDemoWindowTablesvE6flags1_1, symObjAddr: 0x34AF8, symBinAddr: 0x100176560, symSize: 0x0 }
  - { offsetInCU: 0x3494, offset: 0x57EBA, size: 0x8, addend: 0x0, symName: __ZZL20ShowDemoWindowTablesvE6flags2_1, symObjAddr: 0x79130, symBinAddr: 0x100181650, symSize: 0x0 }
  - { offsetInCU: 0x34AB, offset: 0x57ED1, size: 0x8, addend: 0x0, symName: __ZZL20ShowDemoWindowTablesvE5flags_7, symObjAddr: 0x34AFC, symBinAddr: 0x100176564, symSize: 0x0 }
  - { offsetInCU: 0x34C2, offset: 0x57EE8, size: 0x8, addend: 0x0, symName: __ZZL20ShowDemoWindowTablesvE5flags_8, symObjAddr: 0x34B00, symBinAddr: 0x100176568, symSize: 0x0 }
  - { offsetInCU: 0x34D9, offset: 0x57EFF, size: 0x8, addend: 0x0, symName: __ZZL20ShowDemoWindowTablesvE11row_bg_type, symObjAddr: 0x34B04, symBinAddr: 0x10017656C, symSize: 0x0 }
  - { offsetInCU: 0x34F0, offset: 0x57F16, size: 0x8, addend: 0x0, symName: __ZZL20ShowDemoWindowTablesvE13row_bg_target, symObjAddr: 0x34B08, symBinAddr: 0x100176570, symSize: 0x0 }
  - { offsetInCU: 0x3507, offset: 0x57F2D, size: 0x8, addend: 0x0, symName: __ZZL20ShowDemoWindowTablesvE12cell_bg_type, symObjAddr: 0x34B0C, symBinAddr: 0x100176574, symSize: 0x0 }
  - { offsetInCU: 0x351E, offset: 0x57F44, size: 0x8, addend: 0x0, symName: __ZZL20ShowDemoWindowTablesvE5flags_9, symObjAddr: 0x34B10, symBinAddr: 0x100176578, symSize: 0x0 }
  - { offsetInCU: 0x3535, offset: 0x57F5B, size: 0x8, addend: 0x0, symName: __ZZL20ShowDemoWindowTablesvE5nodes, symObjAddr: 0x351C8, symBinAddr: 0x10016EAC0, symSize: 0x0 }
  - { offsetInCU: 0x35AC, offset: 0x57FD2, size: 0x8, addend: 0x0, symName: __ZZL20ShowDemoWindowTablesvE7dummy_f, symObjAddr: 0x79134, symBinAddr: 0x100181654, symSize: 0x0 }
  - { offsetInCU: 0x35C3, offset: 0x57FE9, size: 0x8, addend: 0x0, symName: __ZZL20ShowDemoWindowTablesvE15column_selected, symObjAddr: 0x79138, symBinAddr: 0x100181658, symSize: 0x0 }
  - { offsetInCU: 0x35DA, offset: 0x58000, size: 0x8, addend: 0x0, symName: __ZZL20ShowDemoWindowTablesvE6flags1_2, symObjAddr: 0x34B14, symBinAddr: 0x10017657C, symSize: 0x0 }
  - { offsetInCU: 0x35F1, offset: 0x58017, size: 0x8, addend: 0x0, symName: __ZZL20ShowDemoWindowTablesvE20template_items_names, symObjAddr: 0x34B18, symBinAddr: 0x100176580, symSize: 0x0 }
  - { offsetInCU: 0x3608, offset: 0x5802E, size: 0x8, addend: 0x0, symName: __ZZL20ShowDemoWindowTablesvE5items, symObjAddr: 0x79140, symBinAddr: 0x100181660, symSize: 0x0 }
  - { offsetInCU: 0x361F, offset: 0x58045, size: 0x8, addend: 0x0, symName: __ZZL20ShowDemoWindowTablesvE5flags__10_, symObjAddr: 0x34B90, symBinAddr: 0x1001765F8, symSize: 0x0 }
  - { offsetInCU: 0x3636, offset: 0x5805C, size: 0x8, addend: 0x0, symName: __ZZL20ShowDemoWindowTablesvE5flags__11_, symObjAddr: 0x34B94, symBinAddr: 0x1001765FC, symSize: 0x0 }
  - { offsetInCU: 0x364D, offset: 0x58073, size: 0x8, addend: 0x0, symName: __ZZL20ShowDemoWindowTablesvE13contents_type_1, symObjAddr: 0x34B98, symBinAddr: 0x100176600, symSize: 0x0 }
  - { offsetInCU: 0x3664, offset: 0x5808A, size: 0x8, addend: 0x0, symName: __ZZL20ShowDemoWindowTablesvE11freeze_cols_0, symObjAddr: 0x34B9C, symBinAddr: 0x100176604, symSize: 0x0 }
  - { offsetInCU: 0x367B, offset: 0x580A1, size: 0x8, addend: 0x0, symName: __ZZL20ShowDemoWindowTablesvE11freeze_rows_0, symObjAddr: 0x34BA0, symBinAddr: 0x100176608, symSize: 0x0 }
  - { offsetInCU: 0x3692, offset: 0x580B8, size: 0x8, addend: 0x0, symName: __ZZL20ShowDemoWindowTablesvE11items_count, symObjAddr: 0x34BA4, symBinAddr: 0x10017660C, symSize: 0x0 }
  - { offsetInCU: 0x36A9, offset: 0x580CF, size: 0x8, addend: 0x0, symName: __ZZL20ShowDemoWindowTablesvE16outer_size_value, symObjAddr: 0x79160, symBinAddr: 0x100181680, symSize: 0x0 }
  - { offsetInCU: 0x36C0, offset: 0x580E6, size: 0x8, addend: 0x0, symName: __ZZL20ShowDemoWindowTablesvE14row_min_height, symObjAddr: 0x79170, symBinAddr: 0x100181690, symSize: 0x0 }
  - { offsetInCU: 0x36D7, offset: 0x580FD, size: 0x8, addend: 0x0, symName: __ZZL20ShowDemoWindowTablesvE23inner_width_with_scroll, symObjAddr: 0x79174, symBinAddr: 0x100181694, symSize: 0x0 }
  - { offsetInCU: 0x36EE, offset: 0x58114, size: 0x8, addend: 0x0, symName: __ZZL20ShowDemoWindowTablesvE18outer_size_enabled, symObjAddr: 0x34BA8, symBinAddr: 0x100176610, symSize: 0x0 }
  - { offsetInCU: 0x3705, offset: 0x5812B, size: 0x8, addend: 0x0, symName: __ZZL20ShowDemoWindowTablesvE12show_headers_0, symObjAddr: 0x34BA9, symBinAddr: 0x100176611, symSize: 0x0 }
  - { offsetInCU: 0x371C, offset: 0x58142, size: 0x8, addend: 0x0, symName: __ZZL20ShowDemoWindowTablesvE17show_wrapped_text, symObjAddr: 0x79178, symBinAddr: 0x100181698, symSize: 0x0 }
  - { offsetInCU: 0x3733, offset: 0x58159, size: 0x8, addend: 0x0, symName: __ZZL20ShowDemoWindowTablesvE5items_0, symObjAddr: 0x79180, symBinAddr: 0x1001816A0, symSize: 0x0 }
  - { offsetInCU: 0x374A, offset: 0x58170, size: 0x8, addend: 0x0, symName: __ZZL20ShowDemoWindowTablesvE9selection, symObjAddr: 0x79198, symBinAddr: 0x1001816B8, symSize: 0x0 }
  - { offsetInCU: 0x3761, offset: 0x58187, size: 0x8, addend: 0x0, symName: __ZZL20ShowDemoWindowTablesvE15items_need_sort, symObjAddr: 0x791B0, symBinAddr: 0x1001816D0, symSize: 0x0 }
  - { offsetInCU: 0x3778, offset: 0x5819E, size: 0x8, addend: 0x0, symName: __ZZL20ShowDemoWindowTablesvE18show_debug_details, symObjAddr: 0x791B1, symBinAddr: 0x1001816D1, symSize: 0x0 }
  - { offsetInCU: 0x48D5, offset: 0x592FB, size: 0x8, addend: 0x0, symName: __ZN12_GLOBAL__N_16MyItem20s_current_sort_specsE, symObjAddr: 0x79158, symBinAddr: 0x100181678, symSize: 0x0 }
  - { offsetInCU: 0x4930, offset: 0x59356, size: 0x8, addend: 0x0, symName: __ZL20EditTableSizingFlagsPi, symObjAddr: 0x1D604, symBinAddr: 0x1000A362C, symSize: 0x2E4 }
  - { offsetInCU: 0x4958, offset: 0x5937E, size: 0x8, addend: 0x0, symName: __ZZL20EditTableSizingFlagsPiE8policies, symObjAddr: 0x35318, symBinAddr: 0x10016EC10, symSize: 0x0 }
  - { offsetInCU: 0x4A0D, offset: 0x59433, size: 0x8, addend: 0x0, symName: __ZL21ShowDemoWindowColumnsv, symObjAddr: 0x1E278, symBinAddr: 0x1000A421C, symSize: 0xE04 }
  - { offsetInCU: 0x4A35, offset: 0x5945B, size: 0x8, addend: 0x0, symName: __ZZL21ShowDemoWindowColumnsvE8selected, symObjAddr: 0x34BAC, symBinAddr: 0x100176614, symSize: 0x0 }
  - { offsetInCU: 0x4A4C, offset: 0x59472, size: 0x8, addend: 0x0, symName: __ZZL21ShowDemoWindowColumnsvE9h_borders, symObjAddr: 0x34BB0, symBinAddr: 0x100176618, symSize: 0x0 }
  - { offsetInCU: 0x4A63, offset: 0x59489, size: 0x8, addend: 0x0, symName: __ZZL21ShowDemoWindowColumnsvE9v_borders, symObjAddr: 0x34BB1, symBinAddr: 0x100176619, symSize: 0x0 }
  - { offsetInCU: 0x4A7A, offset: 0x594A0, size: 0x8, addend: 0x0, symName: __ZZL21ShowDemoWindowColumnsvE13columns_count, symObjAddr: 0x34BB4, symBinAddr: 0x10017661C, symSize: 0x0 }
  - { offsetInCU: 0x4A91, offset: 0x594B7, size: 0x8, addend: 0x0, symName: __ZZL21ShowDemoWindowColumnsvE3foo, symObjAddr: 0x34BB8, symBinAddr: 0x100176620, symSize: 0x0 }
  - { offsetInCU: 0x4AA8, offset: 0x594CE, size: 0x8, addend: 0x0, symName: __ZZL21ShowDemoWindowColumnsvE3bar, symObjAddr: 0x34BBC, symBinAddr: 0x100176624, symSize: 0x0 }
  - { offsetInCU: 0x4C8E, offset: 0x596B4, size: 0x8, addend: 0x0, symName: __ZL18ShowDemoWindowMiscv, symObjAddr: 0x1A8D4, symBinAddr: 0x1000A1090, symSize: 0x1A70 }
  - { offsetInCU: 0x4CB6, offset: 0x596DC, size: 0x8, addend: 0x0, symName: __ZZL18ShowDemoWindowMiscvE6filter, symObjAddr: 0x791B8, symBinAddr: 0x1001816D8, symSize: 0x0 }
  - { offsetInCU: 0x4CCD, offset: 0x596F3, size: 0x8, addend: 0x0, symName: __ZZL18ShowDemoWindowMiscvE22capture_override_mouse, symObjAddr: 0x34BC0, symBinAddr: 0x100176628, symSize: 0x0 }
  - { offsetInCU: 0x4CE4, offset: 0x5970A, size: 0x8, addend: 0x0, symName: __ZZL18ShowDemoWindowMiscvE25capture_override_keyboard, symObjAddr: 0x34BC4, symBinAddr: 0x10017662C, symSize: 0x0 }
  - { offsetInCU: 0x4CFB, offset: 0x59721, size: 0x8, addend: 0x0, symName: __ZZL18ShowDemoWindowMiscvE3buf, symObjAddr: 0x34BC8, symBinAddr: 0x100176630, symSize: 0x0 }
  - { offsetInCU: 0x4D12, offset: 0x59738, size: 0x8, addend: 0x0, symName: __ZZL18ShowDemoWindowMiscvE3buf_0, symObjAddr: 0x34BE8, symBinAddr: 0x100176650, symSize: 0x0 }
  - { offsetInCU: 0x4D29, offset: 0x5974F, size: 0x8, addend: 0x0, symName: __ZZL18ShowDemoWindowMiscvE2f3, symObjAddr: 0x792D8, symBinAddr: 0x1001817F8, symSize: 0x0 }
  - { offsetInCU: 0x51FD, offset: 0x59C23, size: 0x8, addend: 0x0, symName: __ZL19ShowExampleMenuFilev, symObjAddr: 0x704C, symBinAddr: 0x10008D808, symSize: 0x68C }
  - { offsetInCU: 0x5225, offset: 0x59C4B, size: 0x8, addend: 0x0, symName: __ZZL19ShowExampleMenuFilevE7enabled, symObjAddr: 0x34C68, symBinAddr: 0x1001766D0, symSize: 0x0 }
  - { offsetInCU: 0x523C, offset: 0x59C62, size: 0x8, addend: 0x0, symName: __ZZL19ShowExampleMenuFilevE1f, symObjAddr: 0x34C6C, symBinAddr: 0x1001766D4, symSize: 0x0 }
  - { offsetInCU: 0x5253, offset: 0x59C79, size: 0x8, addend: 0x0, symName: __ZZL19ShowExampleMenuFilevE1n, symObjAddr: 0x792E4, symBinAddr: 0x100181804, symSize: 0x0 }
  - { offsetInCU: 0x526A, offset: 0x59C90, size: 0x8, addend: 0x0, symName: __ZZL19ShowExampleMenuFilevE1b, symObjAddr: 0x34C70, symBinAddr: 0x1001766D8, symSize: 0x0 }
  - { offsetInCU: 0x52F8, offset: 0x59D1E, size: 0x8, addend: 0x0, symName: __ZL21ShowExampleAppConsolePb, symObjAddr: 0x1DC0, symBinAddr: 0x1000885B8, symSize: 0xD0 }
  - { offsetInCU: 0x5320, offset: 0x59D46, size: 0x8, addend: 0x0, symName: __ZZL21ShowExampleAppConsolePbE7console, symObjAddr: 0x792E8, symBinAddr: 0x100181808, symSize: 0x0 }
  - { offsetInCU: 0x5E9A, offset: 0x5A8C0, size: 0x8, addend: 0x0, symName: __ZL17ShowExampleAppLogPb, symObjAddr: 0x1E90, symBinAddr: 0x100088688, symSize: 0x2AC }
  - { offsetInCU: 0x5EC2, offset: 0x5A8E8, size: 0x8, addend: 0x0, symName: __ZZL17ShowExampleAppLogPbE3log, symObjAddr: 0x79548, symBinAddr: 0x100181A68, symSize: 0x0 }
  - { offsetInCU: 0x5ED9, offset: 0x5A8FF, size: 0x8, addend: 0x0, symName: __ZZL17ShowExampleAppLogPbE7counter, symObjAddr: 0x79690, symBinAddr: 0x100181BB0, symSize: 0x0 }
  - { offsetInCU: 0x6027, offset: 0x5AA4D, size: 0x8, addend: 0x0, symName: __ZL20ShowExampleAppLayoutPb, symObjAddr: 0x213C, symBinAddr: 0x100088934, symSize: 0x3B0 }
  - { offsetInCU: 0x604F, offset: 0x5AA75, size: 0x8, addend: 0x0, symName: __ZZL20ShowExampleAppLayoutPbE8selected, symObjAddr: 0x79694, symBinAddr: 0x100181BB4, symSize: 0x0 }
  - { offsetInCU: 0x60A6, offset: 0x5AACC, size: 0x8, addend: 0x0, symName: __ZL21ShowPlaceholderObjectPKci, symObjAddr: 0x220F4, symBinAddr: 0x1000A7C20, symSize: 0x200 }
  - { offsetInCU: 0x60CE, offset: 0x5AAF4, size: 0x8, addend: 0x0, symName: __ZZL21ShowPlaceholderObjectPKciE19placeholder_members, symObjAddr: 0x34C74, symBinAddr: 0x1001766DC, symSize: 0x0 }
  - { offsetInCU: 0x614C, offset: 0x5AB72, size: 0x8, addend: 0x0, symName: __ZL22ShowExampleAppLongTextPb, symObjAddr: 0x2660, symBinAddr: 0x100088E58, symSize: 0x4CC }
  - { offsetInCU: 0x6174, offset: 0x5AB9A, size: 0x8, addend: 0x0, symName: __ZZL22ShowExampleAppLongTextPbE9test_type, symObjAddr: 0x79698, symBinAddr: 0x100181BB8, symSize: 0x0 }
  - { offsetInCU: 0x618B, offset: 0x5ABB1, size: 0x8, addend: 0x0, symName: __ZZL22ShowExampleAppLongTextPbE3log, symObjAddr: 0x796A0, symBinAddr: 0x100181BC0, symSize: 0x0 }
  - { offsetInCU: 0x61A2, offset: 0x5ABC8, size: 0x8, addend: 0x0, symName: __ZZL22ShowExampleAppLongTextPbE5lines, symObjAddr: 0x796B8, symBinAddr: 0x100181BD8, symSize: 0x0 }
  - { offsetInCU: 0x622B, offset: 0x5AC51, size: 0x8, addend: 0x0, symName: __ZL24ShowExampleAppAutoResizePb, symObjAddr: 0x2B2C, symBinAddr: 0x100089324, symSize: 0x13C }
  - { offsetInCU: 0x6253, offset: 0x5AC79, size: 0x8, addend: 0x0, symName: __ZZL24ShowExampleAppAutoResizePbE5lines, symObjAddr: 0x34C94, symBinAddr: 0x1001766FC, symSize: 0x0 }
  - { offsetInCU: 0x628A, offset: 0x5ACB0, size: 0x8, addend: 0x0, symName: __ZL31ShowExampleAppConstrainedResizePb, symObjAddr: 0x2C68, symBinAddr: 0x100089460, symSize: 0x5A8 }
  - { offsetInCU: 0x62B2, offset: 0x5ACD8, size: 0x8, addend: 0x0, symName: __ZZL31ShowExampleAppConstrainedResizePbE11auto_resize, symObjAddr: 0x796BC, symBinAddr: 0x100181BDC, symSize: 0x0 }
  - { offsetInCU: 0x62C9, offset: 0x5ACEF, size: 0x8, addend: 0x0, symName: __ZZL31ShowExampleAppConstrainedResizePbE4type, symObjAddr: 0x796C0, symBinAddr: 0x100181BE0, symSize: 0x0 }
  - { offsetInCU: 0x62E0, offset: 0x5AD06, size: 0x8, addend: 0x0, symName: __ZZL31ShowExampleAppConstrainedResizePbE13display_lines, symObjAddr: 0x34C98, symBinAddr: 0x100176700, symSize: 0x0 }
  - { offsetInCU: 0x6362, offset: 0x5AD88, size: 0x8, addend: 0x0, symName: __ZL27ShowExampleAppSimpleOverlayPb, symObjAddr: 0x3210, symBinAddr: 0x100089A08, symSize: 0x41C }
  - { offsetInCU: 0x638A, offset: 0x5ADB0, size: 0x8, addend: 0x0, symName: __ZZL27ShowExampleAppSimpleOverlayPbE6corner, symObjAddr: 0x796C4, symBinAddr: 0x100181BE4, symSize: 0x0 }
  - { offsetInCU: 0x642A, offset: 0x5AE50, size: 0x8, addend: 0x0, symName: __ZL24ShowExampleAppFullscreenPb, symObjAddr: 0x362C, symBinAddr: 0x100089E24, symSize: 0x1F0 }
  - { offsetInCU: 0x6452, offset: 0x5AE78, size: 0x8, addend: 0x0, symName: __ZZL24ShowExampleAppFullscreenPbE13use_work_area, symObjAddr: 0x34C9C, symBinAddr: 0x100176704, symSize: 0x0 }
  - { offsetInCU: 0x6469, offset: 0x5AE8F, size: 0x8, addend: 0x0, symName: __ZZL24ShowExampleAppFullscreenPbE5flags, symObjAddr: 0x34CA0, symBinAddr: 0x100176708, symSize: 0x0 }
  - { offsetInCU: 0x6492, offset: 0x5AEB8, size: 0x8, addend: 0x0, symName: __ZL29ShowExampleAppCustomRenderingPb, symObjAddr: 0x3A88, symBinAddr: 0x10008A280, symSize: 0x19F4 }
  - { offsetInCU: 0x64BA, offset: 0x5AEE0, size: 0x8, addend: 0x0, symName: __ZZL29ShowExampleAppCustomRenderingPbE2sz, symObjAddr: 0x34CA4, symBinAddr: 0x10017670C, symSize: 0x0 }
  - { offsetInCU: 0x64D1, offset: 0x5AEF7, size: 0x8, addend: 0x0, symName: __ZZL29ShowExampleAppCustomRenderingPbE9thickness, symObjAddr: 0x34CA8, symBinAddr: 0x100176710, symSize: 0x0 }
  - { offsetInCU: 0x64E8, offset: 0x5AF0E, size: 0x8, addend: 0x0, symName: __ZZL29ShowExampleAppCustomRenderingPbE10ngon_sides, symObjAddr: 0x34CAC, symBinAddr: 0x100176714, symSize: 0x0 }
  - { offsetInCU: 0x64FF, offset: 0x5AF25, size: 0x8, addend: 0x0, symName: __ZZL29ShowExampleAppCustomRenderingPbE24circle_segments_override, symObjAddr: 0x796C8, symBinAddr: 0x100181BE8, symSize: 0x0 }
  - { offsetInCU: 0x6516, offset: 0x5AF3C, size: 0x8, addend: 0x0, symName: __ZZL29ShowExampleAppCustomRenderingPbE26circle_segments_override_v, symObjAddr: 0x34CB0, symBinAddr: 0x100176718, symSize: 0x0 }
  - { offsetInCU: 0x652D, offset: 0x5AF53, size: 0x8, addend: 0x0, symName: __ZZL29ShowExampleAppCustomRenderingPbE23curve_segments_override, symObjAddr: 0x796C9, symBinAddr: 0x100181BE9, symSize: 0x0 }
  - { offsetInCU: 0x6544, offset: 0x5AF6A, size: 0x8, addend: 0x0, symName: __ZZL29ShowExampleAppCustomRenderingPbE25curve_segments_override_v, symObjAddr: 0x34CB4, symBinAddr: 0x10017671C, symSize: 0x0 }
  - { offsetInCU: 0x655B, offset: 0x5AF81, size: 0x8, addend: 0x0, symName: __ZZL29ShowExampleAppCustomRenderingPbE4colf, symObjAddr: 0x34CB8, symBinAddr: 0x100176720, symSize: 0x0 }
  - { offsetInCU: 0x6572, offset: 0x5AF98, size: 0x8, addend: 0x0, symName: __ZZL29ShowExampleAppCustomRenderingPbE6points, symObjAddr: 0x796D0, symBinAddr: 0x100181BF0, symSize: 0x0 }
  - { offsetInCU: 0x6589, offset: 0x5AFAF, size: 0x8, addend: 0x0, symName: __ZZL29ShowExampleAppCustomRenderingPbE9scrolling, symObjAddr: 0x796E8, symBinAddr: 0x100181C08, symSize: 0x0 }
  - { offsetInCU: 0x65A0, offset: 0x5AFC6, size: 0x8, addend: 0x0, symName: __ZZL29ShowExampleAppCustomRenderingPbE15opt_enable_grid, symObjAddr: 0x34CC8, symBinAddr: 0x100176730, symSize: 0x0 }
  - { offsetInCU: 0x65B7, offset: 0x5AFDD, size: 0x8, addend: 0x0, symName: __ZZL29ShowExampleAppCustomRenderingPbE23opt_enable_context_menu, symObjAddr: 0x34CC9, symBinAddr: 0x100176731, symSize: 0x0 }
  - { offsetInCU: 0x65CE, offset: 0x5AFF4, size: 0x8, addend: 0x0, symName: __ZZL29ShowExampleAppCustomRenderingPbE11adding_line, symObjAddr: 0x796F0, symBinAddr: 0x100181C10, symSize: 0x0 }
  - { offsetInCU: 0x65E5, offset: 0x5B00B, size: 0x8, addend: 0x0, symName: __ZZL29ShowExampleAppCustomRenderingPbE7draw_bg, symObjAddr: 0x34CCA, symBinAddr: 0x100176732, symSize: 0x0 }
  - { offsetInCU: 0x65FC, offset: 0x5B022, size: 0x8, addend: 0x0, symName: __ZZL29ShowExampleAppCustomRenderingPbE7draw_fg, symObjAddr: 0x34CCB, symBinAddr: 0x100176733, symSize: 0x0 }
  - { offsetInCU: 0x6942, offset: 0x5B368, size: 0x8, addend: 0x0, symName: __ZL23ShowExampleAppDocumentsPb, symObjAddr: 0x137C, symBinAddr: 0x100087B74, symSize: 0xA44 }
  - { offsetInCU: 0x696A, offset: 0x5B390, size: 0x8, addend: 0x0, symName: __ZZL23ShowExampleAppDocumentsPbE3app, symObjAddr: 0x796F8, symBinAddr: 0x100181C18, symSize: 0x0 }
  - { offsetInCU: 0x6981, offset: 0x5B3A7, size: 0x8, addend: 0x0, symName: __ZZL23ShowExampleAppDocumentsPbE15opt_reorderable, symObjAddr: 0x34CCC, symBinAddr: 0x100176734, symSize: 0x0 }
  - { offsetInCU: 0x6998, offset: 0x5B3BE, size: 0x8, addend: 0x0, symName: __ZZL23ShowExampleAppDocumentsPbE17opt_fitting_flags, symObjAddr: 0x34CD0, symBinAddr: 0x100176738, symSize: 0x0 }
  - { offsetInCU: 0x69AF, offset: 0x5B3D5, size: 0x8, addend: 0x0, symName: __ZZL23ShowExampleAppDocumentsPbE11close_queue, symObjAddr: 0x79710, symBinAddr: 0x100181C30, symSize: 0x0 }
  - { offsetInCU: 0x77F8, offset: 0x5C21E, size: 0x8, addend: 0x0, symName: __ZL25ShowExampleAppMainMenuBarv, symObjAddr: 0x121C, symBinAddr: 0x100087A14, symSize: 0x160 }
  - { offsetInCU: 0x7813, offset: 0x5C239, size: 0x8, addend: 0x0, symName: __ZL28ShowExampleAppPropertyEditorPb, symObjAddr: 0x24EC, symBinAddr: 0x100088CE4, symSize: 0x174 }
  - { offsetInCU: 0x785B, offset: 0x5C281, size: 0x8, addend: 0x0, symName: __ZL26ShowExampleAppWindowTitlesPb, symObjAddr: 0x381C, symBinAddr: 0x10008A014, symSize: 0x26C }
  - { offsetInCU: 0x78B3, offset: 0x5C2D9, size: 0x8, addend: 0x0, symName: __ZL10HelpMarkerPKc, symObjAddr: 0x76D8, symBinAddr: 0x10008DE94, symSize: 0x68 }
  - { offsetInCU: 0x7904, offset: 0x5C32A, size: 0x8, addend: 0x0, symName: __ZNK6ImFont12GetDebugNameEv, symObjAddr: 0x1C480, symBinAddr: 0x1000A2C3C, symSize: 0x54 }
  - { offsetInCU: 0x7929, offset: 0x5C34F, size: 0x8, addend: 0x0, symName: __ZN15ImGuiTextFilterD1Ev, symObjAddr: 0x1C64C, symBinAddr: 0x1000A2D68, symSize: 0x2C }
  - { offsetInCU: 0x7955, offset: 0x5C37B, size: 0x8, addend: 0x0, symName: __ZN7ImColor3HSVEffff, symObjAddr: 0x1C6A4, symBinAddr: 0x1000A2D94, symSize: 0x6C }
  - { offsetInCU: 0x79D3, offset: 0x5C3F9, size: 0x8, addend: 0x0, symName: __ZNK7ImColorcv6ImVec4Ev, symObjAddr: 0x1C710, symBinAddr: 0x1000A2E00, symSize: 0x2C }
  - { offsetInCU: 0x79F8, offset: 0x5C41E, size: 0x8, addend: 0x0, symName: __ZZL21ShowDemoWindowWidgetsvEN5Funcs10ItemGetterEPviPPKc, symObjAddr: 0x1C788, symBinAddr: 0x1000A2E2C, symSize: 0x34 }
  - { offsetInCU: 0x7A3E, offset: 0x5C464, size: 0x8, addend: 0x0, symName: __Z6memchrB8ue170006Ua9enable_ifIXLb1EEEPvim, symObjAddr: 0x1C7BC, symBinAddr: 0x1000A2E60, symSize: 0x34 }
  - { offsetInCU: 0x7A86, offset: 0x5C4AC, size: 0x8, addend: 0x0, symName: __ZZL21ShowDemoWindowWidgetsvEN11TextFilters18FilterImGuiLettersEP26ImGuiInputTextCallbackData, symObjAddr: 0x1C7F0, symBinAddr: 0x1000A2E94, symSize: 0x74 }
  - { offsetInCU: 0x7AAE, offset: 0x5C4D4, size: 0x8, addend: 0x0, symName: __ZZL21ShowDemoWindowWidgetsvEN5Funcs10MyCallbackE_0P26ImGuiInputTextCallbackData, symObjAddr: 0x1C864, symBinAddr: 0x1000A2F08, symSize: 0x1E8 }
  - { offsetInCU: 0x7B02, offset: 0x5C528, size: 0x8, addend: 0x0, symName: __ZZL21ShowDemoWindowWidgetsvEN5Funcs20MyInputTextMultilineE_1PKcP8ImVectorIcERK6ImVec2i, symObjAddr: 0x1CB50, symBinAddr: 0x1000A30F0, symSize: 0xB0 }
  - { offsetInCU: 0x7B57, offset: 0x5C57D, size: 0x8, addend: 0x0, symName: __ZNK8ImVectorIcE4sizeEv, symObjAddr: 0x1CC18, symBinAddr: 0x1000A31A0, symSize: 0x18 }
  - { offsetInCU: 0x7B7C, offset: 0x5C5A2, size: 0x8, addend: 0x0, symName: __ZNK8ImVectorIcE8capacityEv, symObjAddr: 0x1CC30, symBinAddr: 0x1000A31B8, symSize: 0x18 }
  - { offsetInCU: 0x7BA1, offset: 0x5C5C7, size: 0x8, addend: 0x0, symName: __ZN8ImVectorIiEixEi, symObjAddr: 0x1CD24, symBinAddr: 0x1000A31D0, symSize: 0xA0 }
  - { offsetInCU: 0x7BD5, offset: 0x5C5FB, size: 0x8, addend: 0x0, symName: __ZN8ImVectorIiE5eraseEPKi, symObjAddr: 0x1CDC4, symBinAddr: 0x1000A3270, symSize: 0x108 }
  - { offsetInCU: 0x7C18, offset: 0x5C63E, size: 0x8, addend: 0x0, symName: __ZZL21ShowDemoWindowWidgetsvEN5Funcs3SinE_2Pvi, symObjAddr: 0x1CECC, symBinAddr: 0x1000A3378, symSize: 0x3C }
  - { offsetInCU: 0x7C4B, offset: 0x5C671, size: 0x8, addend: 0x0, symName: __ZZL21ShowDemoWindowWidgetsvEN5Funcs3SawE_2Pvi, symObjAddr: 0x1CF08, symBinAddr: 0x1000A33B4, symSize: 0x34 }
  - { offsetInCU: 0x7C7E, offset: 0x5C6A4, size: 0x8, addend: 0x0, symName: __ZN7ImColorC1Effff, symObjAddr: 0x1CF3C, symBinAddr: 0x1000A33E8, symSize: 0x4C }
  - { offsetInCU: 0x7CE2, offset: 0x5C708, size: 0x8, addend: 0x0, symName: __ZN7ImColorC2Effff, symObjAddr: 0x1CF88, symBinAddr: 0x1000A3434, symSize: 0x4C }
  - { offsetInCU: 0x7D46, offset: 0x5C76C, size: 0x8, addend: 0x0, symName: __Z6strchrB8ue170006Ua9enable_ifIXLb1EEEPKci, symObjAddr: 0x1D018, symBinAddr: 0x1000A3480, symSize: 0x2C }
  - { offsetInCU: 0x7D80, offset: 0x5C7A6, size: 0x8, addend: 0x0, symName: __ZN26ImGuiInputTextCallbackData9SelectAllEv, symObjAddr: 0x1D044, symBinAddr: 0x1000A34AC, symSize: 0x20 }
  - { offsetInCU: 0x7DA5, offset: 0x5C7CB, size: 0x8, addend: 0x0, symName: __ZZL21ShowDemoWindowWidgetsvEN5Funcs16MyResizeCallbackE_1P26ImGuiInputTextCallbackData, symObjAddr: 0x1D230, symBinAddr: 0x1000A34CC, symSize: 0xAC }
  - { offsetInCU: 0x7DEF, offset: 0x5C815, size: 0x8, addend: 0x0, symName: __ZL16PushStyleCompactv, symObjAddr: 0x1D550, symBinAddr: 0x1000A3578, symSize: 0x9C }
  - { offsetInCU: 0x7E1A, offset: 0x5C840, size: 0x8, addend: 0x0, symName: __ZL15PopStyleCompactv, symObjAddr: 0x1D5EC, symBinAddr: 0x1000A3614, symSize: 0x18 }
  - { offsetInCU: 0x7E35, offset: 0x5C85B, size: 0x8, addend: 0x0, symName: __ZL21EditTableColumnsFlagsPi, symObjAddr: 0x1D8E8, symBinAddr: 0x1000A3910, symSize: 0x20C }
  - { offsetInCU: 0x7E60, offset: 0x5C886, size: 0x8, addend: 0x0, symName: __ZL27ShowTableColumnsStatusFlagsi, symObjAddr: 0x1DAF4, symBinAddr: 0x1000A3B1C, symSize: 0x70 }
  - { offsetInCU: 0x7E8B, offset: 0x5C8B1, size: 0x8, addend: 0x0, symName: __ZZL20ShowDemoWindowTablesvEN10MyTreeNode11DisplayNodeEPKS_S1_, symObjAddr: 0x1DB64, symBinAddr: 0x1000A3B8C, symSize: 0x15C }
  - { offsetInCU: 0x7F0B, offset: 0x5C931, size: 0x8, addend: 0x0, symName: __ZN8ImVectorIN12_GLOBAL__N_16MyItemEEC1Ev, symObjAddr: 0x1DCC0, symBinAddr: 0x1000A3CE8, symSize: 0x2C }
  - { offsetInCU: 0x7F33, offset: 0x5C959, size: 0x8, addend: 0x0, symName: __ZN8ImVectorIN12_GLOBAL__N_16MyItemEED1Ev, symObjAddr: 0x1DCEC, symBinAddr: 0x1000A3D14, symSize: 0x2C }
  - { offsetInCU: 0x7F5B, offset: 0x5C981, size: 0x8, addend: 0x0, symName: __ZN8ImVectorIN12_GLOBAL__N_16MyItemEE6resizeEiRKS1_, symObjAddr: 0x1DD18, symBinAddr: 0x1000A3D40, symSize: 0xF4 }
  - { offsetInCU: 0x7FBB, offset: 0x5C9E1, size: 0x8, addend: 0x0, symName: __ZN8ImVectorIN12_GLOBAL__N_16MyItemEEixEi, symObjAddr: 0x1DE0C, symBinAddr: 0x1000A3E34, symSize: 0xA8 }
  - { offsetInCU: 0x7FEF, offset: 0x5CA15, size: 0x8, addend: 0x0, symName: __ZN12_GLOBAL__N_16MyItem20CompareWithSortSpecsEPKvS2_, symObjAddr: 0x1DEB4, symBinAddr: 0x1000A3EDC, symSize: 0x1F0 }
  - { offsetInCU: 0x8089, offset: 0x5CAAF, size: 0x8, addend: 0x0, symName: __ZNK8ImVectorIiE8containsERKi, symObjAddr: 0x1E0E4, symBinAddr: 0x1000A40E0, symSize: 0xA8 }
  - { offsetInCU: 0x80DB, offset: 0x5CB01, size: 0x8, addend: 0x0, symName: __ZN8ImVectorIiE19find_erase_unsortedERKi, symObjAddr: 0x1E18C, symBinAddr: 0x1000A4188, symSize: 0x94 }
  - { offsetInCU: 0x811E, offset: 0x5CB44, size: 0x8, addend: 0x0, symName: __ZN8ImVectorIN12_GLOBAL__N_16MyItemEEC2Ev, symObjAddr: 0x1F07C, symBinAddr: 0x1000A5020, symSize: 0x20 }
  - { offsetInCU: 0x8147, offset: 0x5CB6D, size: 0x8, addend: 0x0, symName: __ZN8ImVectorIN12_GLOBAL__N_16MyItemEED2Ev, symObjAddr: 0x1F09C, symBinAddr: 0x1000A5040, symSize: 0x5C }
  - { offsetInCU: 0x816F, offset: 0x5CB95, size: 0x8, addend: 0x0, symName: __ZN8ImVectorIN12_GLOBAL__N_16MyItemEE7reserveEi, symObjAddr: 0x1F0F8, symBinAddr: 0x1000A509C, symSize: 0xB4 }
  - { offsetInCU: 0x81B2, offset: 0x5CBD8, size: 0x8, addend: 0x0, symName: __ZNK8ImVectorIN12_GLOBAL__N_16MyItemEE14_grow_capacityEi, symObjAddr: 0x1F1AC, symBinAddr: 0x1000A5150, symSize: 0x98 }
  - { offsetInCU: 0x81F5, offset: 0x5CC1B, size: 0x8, addend: 0x0, symName: __ZN8ImVectorIiE4findERKi, symObjAddr: 0x1F264, symBinAddr: 0x1000A51E8, symSize: 0x88 }
  - { offsetInCU: 0x8247, offset: 0x5CC6D, size: 0x8, addend: 0x0, symName: __ZN8ImVectorIiE14erase_unsortedEPKi, symObjAddr: 0x1F2EC, symBinAddr: 0x1000A5270, symSize: 0x11C }
  - { offsetInCU: 0x828A, offset: 0x5CCB0, size: 0x8, addend: 0x0, symName: __ZZL18ShowDemoWindowMiscvEN5funcs18IsLegacyNativeDupeEi, symObjAddr: 0x1F408, symBinAddr: 0x1000A538C, symSize: 0x60 }
  - { offsetInCU: 0x82B2, offset: 0x5CCD8, size: 0x8, addend: 0x0, symName: __ZN8ImVectorItEixEi, symObjAddr: 0x1F468, symBinAddr: 0x1000A53EC, symSize: 0xA0 }
  - { offsetInCU: 0x82E6, offset: 0x5CD0C, size: 0x8, addend: 0x0, symName: __ZN15ImGuiTextFilterD2Ev, symObjAddr: 0x1F508, symBinAddr: 0x1000A548C, symSize: 0x30 }
  - { offsetInCU: 0x8312, offset: 0x5CD38, size: 0x8, addend: 0x0, symName: __ZN17ExampleAppConsoleC1Ev, symObjAddr: 0x1F5C0, symBinAddr: 0x1000A54BC, symSize: 0x2C }
  - { offsetInCU: 0x833A, offset: 0x5CD60, size: 0x8, addend: 0x0, symName: __ZN17ExampleAppConsoleD1Ev, symObjAddr: 0x1F5EC, symBinAddr: 0x1000A54E8, symSize: 0x2C }
  - { offsetInCU: 0x8362, offset: 0x5CD88, size: 0x8, addend: 0x0, symName: __ZN17ExampleAppConsole4DrawEPKcPb, symObjAddr: 0x1F618, symBinAddr: 0x1000A5514, symSize: 0x5F4 }
  - { offsetInCU: 0x845D, offset: 0x5CE83, size: 0x8, addend: 0x0, symName: __ZN17ExampleAppConsoleC2Ev, symObjAddr: 0x1FC0C, symBinAddr: 0x1000A5B08, symSize: 0x210 }
  - { offsetInCU: 0x8485, offset: 0x5CEAB, size: 0x8, addend: 0x0, symName: __ZN8ImVectorIPcEC1Ev, symObjAddr: 0x1FE1C, symBinAddr: 0x1000A5D18, symSize: 0x2C }
  - { offsetInCU: 0x84AD, offset: 0x5CED3, size: 0x8, addend: 0x0, symName: __ZN8ImVectorIPKcEC1Ev, symObjAddr: 0x1FE48, symBinAddr: 0x1000A5D44, symSize: 0x2C }
  - { offsetInCU: 0x84D5, offset: 0x5CEFB, size: 0x8, addend: 0x0, symName: __ZN17ExampleAppConsole8ClearLogEv, symObjAddr: 0x1FE74, symBinAddr: 0x1000A5D70, symSize: 0x80 }
  - { offsetInCU: 0x8517, offset: 0x5CF3D, size: 0x8, addend: 0x0, symName: __ZN8ImVectorIPKcE9push_backERKS1_, symObjAddr: 0x1FEF4, symBinAddr: 0x1000A5DF0, symSize: 0x84 }
  - { offsetInCU: 0x854B, offset: 0x5CF71, size: 0x8, addend: 0x0, symName: __ZN17ExampleAppConsole6AddLogEPKcz, symObjAddr: 0x1FF78, symBinAddr: 0x1000A5E74, symSize: 0xA8 }
  - { offsetInCU: 0x859E, offset: 0x5CFC4, size: 0x8, addend: 0x0, symName: __ZN8ImVectorIPcED1Ev, symObjAddr: 0x20020, symBinAddr: 0x1000A5F1C, symSize: 0x2C }
  - { offsetInCU: 0x85C6, offset: 0x5CFEC, size: 0x8, addend: 0x0, symName: __ZN8ImVectorIPKcED1Ev, symObjAddr: 0x2004C, symBinAddr: 0x1000A5F48, symSize: 0x2C }
  - { offsetInCU: 0x85EE, offset: 0x5D014, size: 0x8, addend: 0x0, symName: __ZN8ImVectorIPcEC2Ev, symObjAddr: 0x20078, symBinAddr: 0x1000A5F74, symSize: 0x20 }
  - { offsetInCU: 0x8617, offset: 0x5D03D, size: 0x8, addend: 0x0, symName: __ZN8ImVectorIPKcEC2Ev, symObjAddr: 0x20098, symBinAddr: 0x1000A5F94, symSize: 0x20 }
  - { offsetInCU: 0x8640, offset: 0x5D066, size: 0x8, addend: 0x0, symName: __ZN8ImVectorIPcEixEi, symObjAddr: 0x200B8, symBinAddr: 0x1000A5FB4, symSize: 0xA0 }
  - { offsetInCU: 0x8674, offset: 0x5D09A, size: 0x8, addend: 0x0, symName: __ZN8ImVectorIPcE5clearEv, symObjAddr: 0x20158, symBinAddr: 0x1000A6054, symSize: 0x58 }
  - { offsetInCU: 0x8699, offset: 0x5D0BF, size: 0x8, addend: 0x0, symName: __ZN8ImVectorIPKcE7reserveEi, symObjAddr: 0x201B0, symBinAddr: 0x1000A60AC, symSize: 0xAC }
  - { offsetInCU: 0x86DC, offset: 0x5D102, size: 0x8, addend: 0x0, symName: __ZNK8ImVectorIPKcE14_grow_capacityEi, symObjAddr: 0x2025C, symBinAddr: 0x1000A6158, symSize: 0x98 }
  - { offsetInCU: 0x871F, offset: 0x5D145, size: 0x8, addend: 0x0, symName: __ZN8ImVectorIPcE9push_backERKS0_, symObjAddr: 0x202F4, symBinAddr: 0x1000A61F0, symSize: 0x84 }
  - { offsetInCU: 0x8753, offset: 0x5D179, size: 0x8, addend: 0x0, symName: __ZN17ExampleAppConsole6StrdupEPKc, symObjAddr: 0x20378, symBinAddr: 0x1000A6274, symSize: 0xC0 }
  - { offsetInCU: 0x8795, offset: 0x5D1BB, size: 0x8, addend: 0x0, symName: __ZN8ImVectorIPcE7reserveEi, symObjAddr: 0x20438, symBinAddr: 0x1000A6334, symSize: 0xAC }
  - { offsetInCU: 0x87D8, offset: 0x5D1FE, size: 0x8, addend: 0x0, symName: __ZNK8ImVectorIPcE14_grow_capacityEi, symObjAddr: 0x204E4, symBinAddr: 0x1000A63E0, symSize: 0x98 }
  - { offsetInCU: 0x881B, offset: 0x5D241, size: 0x8, addend: 0x0, symName: __ZN8ImVectorIPcED2Ev, symObjAddr: 0x2057C, symBinAddr: 0x1000A6478, symSize: 0x5C }
  - { offsetInCU: 0x8843, offset: 0x5D269, size: 0x8, addend: 0x0, symName: __ZN8ImVectorIPKcED2Ev, symObjAddr: 0x205D8, symBinAddr: 0x1000A64D4, symSize: 0x5C }
  - { offsetInCU: 0x886B, offset: 0x5D291, size: 0x8, addend: 0x0, symName: __ZN17ExampleAppConsoleD2Ev, symObjAddr: 0x20634, symBinAddr: 0x1000A6530, symSize: 0xCC }
  - { offsetInCU: 0x88B0, offset: 0x5D2D6, size: 0x8, addend: 0x0, symName: __ZN17ExampleAppConsole20TextEditCallbackStubEP26ImGuiInputTextCallbackData, symObjAddr: 0x20758, symBinAddr: 0x1000A65FC, symSize: 0x34 }
  - { offsetInCU: 0x88E3, offset: 0x5D309, size: 0x8, addend: 0x0, symName: __ZN17ExampleAppConsole7StrtrimEPc, symObjAddr: 0x2078C, symBinAddr: 0x1000A6630, symSize: 0x98 }
  - { offsetInCU: 0x8916, offset: 0x5D33C, size: 0x8, addend: 0x0, symName: __ZN17ExampleAppConsole11ExecCommandEPKc, symObjAddr: 0x20824, symBinAddr: 0x1000A66C8, symSize: 0x2F8 }
  - { offsetInCU: 0x89BE, offset: 0x5D3E4, size: 0x8, addend: 0x0, symName: __ZN17ExampleAppConsole16TextEditCallbackEP26ImGuiInputTextCallbackData, symObjAddr: 0x20B44, symBinAddr: 0x1000A69C0, symSize: 0x718 }
  - { offsetInCU: 0x8B1D, offset: 0x5D543, size: 0x8, addend: 0x0, symName: __ZN17ExampleAppConsole8StrnicmpEPKcS1_i, symObjAddr: 0x2125C, symBinAddr: 0x1000A70D8, symSize: 0xDC }
  - { offsetInCU: 0x8B6E, offset: 0x5D594, size: 0x8, addend: 0x0, symName: __ZN8ImVectorIPKcEixEi, symObjAddr: 0x21338, symBinAddr: 0x1000A71B4, symSize: 0xA0 }
  - { offsetInCU: 0x8BA2, offset: 0x5D5C8, size: 0x8, addend: 0x0, symName: __ZN17ExampleAppConsole7StricmpEPKcS1_, symObjAddr: 0x213FC, symBinAddr: 0x1000A7254, symSize: 0xAC }
  - { offsetInCU: 0x8BE4, offset: 0x5D60A, size: 0x8, addend: 0x0, symName: __ZN8ImVectorIPcE5eraseEPKS0_, symObjAddr: 0x214A8, symBinAddr: 0x1000A7300, symSize: 0x108 }
  - { offsetInCU: 0x8C27, offset: 0x5D64D, size: 0x8, addend: 0x0, symName: __ZN8ImVectorIPcE5beginEv, symObjAddr: 0x215B0, symBinAddr: 0x1000A7408, symSize: 0x18 }
  - { offsetInCU: 0x8C4C, offset: 0x5D672, size: 0x8, addend: 0x0, symName: __ZN13ExampleAppLogC1Ev, symObjAddr: 0x215C8, symBinAddr: 0x1000A7420, symSize: 0x2C }
  - { offsetInCU: 0x8C74, offset: 0x5D69A, size: 0x8, addend: 0x0, symName: __ZN13ExampleAppLogD1Ev, symObjAddr: 0x215F4, symBinAddr: 0x1000A744C, symSize: 0x2C }
  - { offsetInCU: 0x8CA0, offset: 0x5D6C6, size: 0x8, addend: 0x0, symName: __ZN13ExampleAppLog6AddLogEPKcz, symObjAddr: 0x21620, symBinAddr: 0x1000A7478, symSize: 0xCC }
  - { offsetInCU: 0x8D10, offset: 0x5D736, size: 0x8, addend: 0x0, symName: __ZN13ExampleAppLog4DrawEPKcPb, symObjAddr: 0x216EC, symBinAddr: 0x1000A7544, symSize: 0x4E4 }
  - { offsetInCU: 0x8E3F, offset: 0x5D865, size: 0x8, addend: 0x0, symName: __ZN13ExampleAppLogC2Ev, symObjAddr: 0x21BD0, symBinAddr: 0x1000A7A28, symSize: 0xCC }
  - { offsetInCU: 0x8E67, offset: 0x5D88D, size: 0x8, addend: 0x0, symName: __ZN13ExampleAppLog5ClearEv, symObjAddr: 0x21CC8, symBinAddr: 0x1000A7AF4, symSize: 0x48 }
  - { offsetInCU: 0x8E8C, offset: 0x5D8B2, size: 0x8, addend: 0x0, symName: __ZN13ExampleAppLogD2Ev, symObjAddr: 0x21E10, symBinAddr: 0x1000A7B3C, symSize: 0x44 }
  - { offsetInCU: 0x8EB8, offset: 0x5D8DE, size: 0x8, addend: 0x0, symName: __ZNK15ImGuiTextBufferixEi, symObjAddr: 0x21EA4, symBinAddr: 0x1000A7B80, symSize: 0x70 }
  - { offsetInCU: 0x8EEC, offset: 0x5D912, size: 0x8, addend: 0x0, symName: __ZNK15ImGuiTextFilter8IsActiveEv, symObjAddr: 0x21FCC, symBinAddr: 0x1000A7BF0, symSize: 0x30 }
  - { offsetInCU: 0x8F16, offset: 0x5D93C, size: 0x8, addend: 0x0, symName: __ZZL31ShowExampleAppConstrainedResizePbEN17CustomConstraints6SquareEP21ImGuiSizeCallbackData, symObjAddr: 0x222F4, symBinAddr: 0x1000A7E20, symSize: 0x64 }
  - { offsetInCU: 0x8F3E, offset: 0x5D964, size: 0x8, addend: 0x0, symName: __ZZL31ShowExampleAppConstrainedResizePbEN17CustomConstraints4StepEP21ImGuiSizeCallbackData, symObjAddr: 0x22358, symBinAddr: 0x1000A7E84, symSize: 0x8C }
  - { offsetInCU: 0x8F75, offset: 0x5D99B, size: 0x8, addend: 0x0, symName: __ZN7ImColorC1ERK6ImVec4, symObjAddr: 0x223E4, symBinAddr: 0x1000A7F10, symSize: 0x34 }
  - { offsetInCU: 0x8FAC, offset: 0x5D9D2, size: 0x8, addend: 0x0, symName: __ZNK7ImColorcvjEv, symObjAddr: 0x22418, symBinAddr: 0x1000A7F44, symSize: 0x24 }
  - { offsetInCU: 0x8FD1, offset: 0x5D9F7, size: 0x8, addend: 0x0, symName: __ZN8ImVectorI6ImVec2E4backEv, symObjAddr: 0x22518, symBinAddr: 0x1000A7F68, symSize: 0x70 }
  - { offsetInCU: 0x8FF6, offset: 0x5DA1C, size: 0x8, addend: 0x0, symName: __ZN8ImVectorI6ImVec2E6resizeEi, symObjAddr: 0x22588, symBinAddr: 0x1000A7FD8, symSize: 0x68 }
  - { offsetInCU: 0x902A, offset: 0x5DA50, size: 0x8, addend: 0x0, symName: __ZNK8ImVectorI6ImVec2E4sizeEv, symObjAddr: 0x225F0, symBinAddr: 0x1000A8040, symSize: 0x18 }
  - { offsetInCU: 0x904F, offset: 0x5DA75, size: 0x8, addend: 0x0, symName: __ZN8ImVectorI6ImVec2E5clearEv, symObjAddr: 0x22608, symBinAddr: 0x1000A8058, symSize: 0x58 }
  - { offsetInCU: 0x9074, offset: 0x5DA9A, size: 0x8, addend: 0x0, symName: __ZN8ImVectorI6ImVec2EixEi, symObjAddr: 0x22660, symBinAddr: 0x1000A80B0, symSize: 0xA0 }
  - { offsetInCU: 0x90A8, offset: 0x5DACE, size: 0x8, addend: 0x0, symName: __ZN7ImColorC2ERK6ImVec4, symObjAddr: 0x22700, symBinAddr: 0x1000A8150, symSize: 0x24 }
  - { offsetInCU: 0x90E0, offset: 0x5DB06, size: 0x8, addend: 0x0, symName: __ZN19ExampleAppDocumentsC1Ev, symObjAddr: 0x228E4, symBinAddr: 0x1000A8174, symSize: 0x2C }
  - { offsetInCU: 0x9108, offset: 0x5DB2E, size: 0x8, addend: 0x0, symName: __ZN19ExampleAppDocumentsD1Ev, symObjAddr: 0x22910, symBinAddr: 0x1000A81A0, symSize: 0x2C }
  - { offsetInCU: 0x9134, offset: 0x5DB5A, size: 0x8, addend: 0x0, symName: __ZN8ImVectorI10MyDocumentEixEi, symObjAddr: 0x2293C, symBinAddr: 0x1000A81CC, symSize: 0xA0 }
  - { offsetInCU: 0x9168, offset: 0x5DB8E, size: 0x8, addend: 0x0, symName: __ZN10MyDocument6DoOpenEv, symObjAddr: 0x229DC, symBinAddr: 0x1000A826C, symSize: 0x1C }
  - { offsetInCU: 0x918D, offset: 0x5DBB3, size: 0x8, addend: 0x0, symName: __ZN10MyDocument12DoQueueCloseEv, symObjAddr: 0x229F8, symBinAddr: 0x1000A8288, symSize: 0x1C }
  - { offsetInCU: 0x91B2, offset: 0x5DBD8, size: 0x8, addend: 0x0, symName: __ZN10MyDocument12DoForceCloseEv, symObjAddr: 0x22A14, symBinAddr: 0x1000A82A4, symSize: 0x1C }
  - { offsetInCU: 0x91D7, offset: 0x5DBFD, size: 0x8, addend: 0x0, symName: __ZL32NotifyOfDocumentsClosedElsewhereR19ExampleAppDocuments, symObjAddr: 0x22A30, symBinAddr: 0x1000A82C0, symSize: 0xA8 }
  - { offsetInCU: 0x923C, offset: 0x5DC62, size: 0x8, addend: 0x0, symName: __ZN10MyDocument18DisplayContextMenuEPS_, symObjAddr: 0x22AD8, symBinAddr: 0x1000A8368, symSize: 0x110 }
  - { offsetInCU: 0x926F, offset: 0x5DC95, size: 0x8, addend: 0x0, symName: __ZN10MyDocument15DisplayContentsEPS_, symObjAddr: 0x22BE8, symBinAddr: 0x1000A8478, symSize: 0x10C }
  - { offsetInCU: 0x9293, offset: 0x5DCB9, size: 0x8, addend: 0x0, symName: __ZN8ImVectorIP10MyDocumentEC1Ev, symObjAddr: 0x22CF4, symBinAddr: 0x1000A8584, symSize: 0x2C }
  - { offsetInCU: 0x92BB, offset: 0x5DCE1, size: 0x8, addend: 0x0, symName: __ZN8ImVectorIP10MyDocumentED1Ev, symObjAddr: 0x22D20, symBinAddr: 0x1000A85B0, symSize: 0x2C }
  - { offsetInCU: 0x92E3, offset: 0x5DD09, size: 0x8, addend: 0x0, symName: __ZNK8ImVectorIP10MyDocumentE5emptyEv, symObjAddr: 0x22D4C, symBinAddr: 0x1000A85DC, symSize: 0x24 }
  - { offsetInCU: 0x9308, offset: 0x5DD2E, size: 0x8, addend: 0x0, symName: __ZN8ImVectorIP10MyDocumentE9push_backERKS1_, symObjAddr: 0x22D70, symBinAddr: 0x1000A8600, symSize: 0x84 }
  - { offsetInCU: 0x933C, offset: 0x5DD62, size: 0x8, addend: 0x0, symName: __ZN8ImVectorIP10MyDocumentEixEi, symObjAddr: 0x22DF4, symBinAddr: 0x1000A8684, symSize: 0xA0 }
  - { offsetInCU: 0x9370, offset: 0x5DD96, size: 0x8, addend: 0x0, symName: __ZN8ImVectorIP10MyDocumentE5clearEv, symObjAddr: 0x22E94, symBinAddr: 0x1000A8724, symSize: 0x58 }
  - { offsetInCU: 0x9395, offset: 0x5DDBB, size: 0x8, addend: 0x0, symName: __ZN10MyDocument6DoSaveEv, symObjAddr: 0x22EEC, symBinAddr: 0x1000A877C, symSize: 0x18 }
  - { offsetInCU: 0x93BA, offset: 0x5DDE0, size: 0x8, addend: 0x0, symName: __ZN19ExampleAppDocumentsC2Ev, symObjAddr: 0x22F04, symBinAddr: 0x1000A8794, symSize: 0x250 }
  - { offsetInCU: 0x93E2, offset: 0x5DE08, size: 0x8, addend: 0x0, symName: __ZN8ImVectorI10MyDocumentEC1Ev, symObjAddr: 0x23154, symBinAddr: 0x1000A89E4, symSize: 0x2C }
  - { offsetInCU: 0x940A, offset: 0x5DE30, size: 0x8, addend: 0x0, symName: __ZN8ImVectorI10MyDocumentE9push_backERKS0_, symObjAddr: 0x23180, symBinAddr: 0x1000A8A10, symSize: 0x90 }
  - { offsetInCU: 0x943E, offset: 0x5DE64, size: 0x8, addend: 0x0, symName: __ZN10MyDocumentC1EPKcbRK6ImVec4, symObjAddr: 0x23210, symBinAddr: 0x1000A8AA0, symSize: 0x50 }
  - { offsetInCU: 0x9493, offset: 0x5DEB9, size: 0x8, addend: 0x0, symName: __ZN8ImVectorI10MyDocumentED1Ev, symObjAddr: 0x23260, symBinAddr: 0x1000A8AF0, symSize: 0x2C }
  - { offsetInCU: 0x94BB, offset: 0x5DEE1, size: 0x8, addend: 0x0, symName: __ZN8ImVectorI10MyDocumentEC2Ev, symObjAddr: 0x2328C, symBinAddr: 0x1000A8B1C, symSize: 0x20 }
  - { offsetInCU: 0x94E4, offset: 0x5DF0A, size: 0x8, addend: 0x0, symName: __ZN8ImVectorI10MyDocumentE7reserveEi, symObjAddr: 0x232AC, symBinAddr: 0x1000A8B3C, symSize: 0xAC }
  - { offsetInCU: 0x9527, offset: 0x5DF4D, size: 0x8, addend: 0x0, symName: __ZNK8ImVectorI10MyDocumentE14_grow_capacityEi, symObjAddr: 0x23358, symBinAddr: 0x1000A8BE8, symSize: 0x98 }
  - { offsetInCU: 0x956A, offset: 0x5DF90, size: 0x8, addend: 0x0, symName: __ZN10MyDocumentC2EPKcbRK6ImVec4, symObjAddr: 0x233F0, symBinAddr: 0x1000A8C80, symSize: 0x7C }
  - { offsetInCU: 0x95BF, offset: 0x5DFE5, size: 0x8, addend: 0x0, symName: __ZN8ImVectorI10MyDocumentED2Ev, symObjAddr: 0x2346C, symBinAddr: 0x1000A8CFC, symSize: 0x5C }
  - { offsetInCU: 0x95E7, offset: 0x5E00D, size: 0x8, addend: 0x0, symName: __ZN19ExampleAppDocumentsD2Ev, symObjAddr: 0x234C8, symBinAddr: 0x1000A8D58, symSize: 0x2C }
  - { offsetInCU: 0x9613, offset: 0x5E039, size: 0x8, addend: 0x0, symName: __ZN8ImVectorIP10MyDocumentEC2Ev, symObjAddr: 0x234F4, symBinAddr: 0x1000A8D84, symSize: 0x20 }
  - { offsetInCU: 0x963C, offset: 0x5E062, size: 0x8, addend: 0x0, symName: __ZN8ImVectorIP10MyDocumentED2Ev, symObjAddr: 0x23514, symBinAddr: 0x1000A8DA4, symSize: 0x5C }
  - { offsetInCU: 0x9664, offset: 0x5E08A, size: 0x8, addend: 0x0, symName: __ZN8ImVectorIP10MyDocumentE7reserveEi, symObjAddr: 0x23570, symBinAddr: 0x1000A8E00, symSize: 0xAC }
  - { offsetInCU: 0x96A7, offset: 0x5E0CD, size: 0x8, addend: 0x0, symName: __ZNK8ImVectorIP10MyDocumentE14_grow_capacityEi, symObjAddr: 0x2361C, symBinAddr: 0x1000A8EAC, symSize: 0x98 }
  - { offsetInCU: 0x60, offset: 0x5E328, size: 0x8, addend: 0x0, symName: __Z35ImFontAtlasGetBuilderForStbTruetypev, symObjAddr: 0xDFAC, symBinAddr: 0x1000B6448, symSize: 0x1C }
  - { offsetInCU: 0x8C, offset: 0x5E354, size: 0x8, addend: 0x0, symName: __ZZ35ImFontAtlasGetBuilderForStbTruetypevE2io, symObjAddr: 0x6CD80, symBinAddr: 0x100181C48, symSize: 0x0 }
  - { offsetInCU: 0x293, offset: 0x5E55B, size: 0x8, addend: 0x0, symName: __ZN11ImFontAtlas21GetGlyphRangesDefaultEv, symObjAddr: 0xCD5C, symBinAddr: 0x1000B51F8, symSize: 0x18 }
  - { offsetInCU: 0x2BB, offset: 0x5E583, size: 0x8, addend: 0x0, symName: __ZZN11ImFontAtlas21GetGlyphRangesDefaultEvE6ranges, symObjAddr: 0x25194, symBinAddr: 0x10015C0D0, symSize: 0x0 }
  - { offsetInCU: 0x2DE, offset: 0x5E5A6, size: 0x8, addend: 0x0, symName: __ZN11ImFontAtlas20GetGlyphRangesKoreanEv, symObjAddr: 0x11A34, symBinAddr: 0x1000B9ED0, symSize: 0x18 }
  - { offsetInCU: 0x306, offset: 0x5E5CE, size: 0x8, addend: 0x0, symName: __ZZN11ImFontAtlas20GetGlyphRangesKoreanEvE6ranges, symObjAddr: 0x2519A, symBinAddr: 0x10015C0D6, symSize: 0x0 }
  - { offsetInCU: 0x329, offset: 0x5E5F1, size: 0x8, addend: 0x0, symName: __ZN11ImFontAtlas25GetGlyphRangesChineseFullEv, symObjAddr: 0x11A4C, symBinAddr: 0x1000B9EE8, symSize: 0x18 }
  - { offsetInCU: 0x351, offset: 0x5E619, size: 0x8, addend: 0x0, symName: __ZZN11ImFontAtlas25GetGlyphRangesChineseFullEvE6ranges, symObjAddr: 0x251AC, symBinAddr: 0x10015C0E8, symSize: 0x0 }
  - { offsetInCU: 0x374, offset: 0x5E63C, size: 0x8, addend: 0x0, symName: __ZN11ImFontAtlas37GetGlyphRangesChineseSimplifiedCommonEv, symObjAddr: 0x11A64, symBinAddr: 0x1000B9F00, symSize: 0x78 }
  - { offsetInCU: 0x39C, offset: 0x5E664, size: 0x8, addend: 0x0, symName: __ZZN11ImFontAtlas37GetGlyphRangesChineseSimplifiedCommonEvE32accumulative_offsets_from_0x4E00, symObjAddr: 0x251CA, symBinAddr: 0x10015C106, symSize: 0x0 }
  - { offsetInCU: 0x3B3, offset: 0x5E67B, size: 0x8, addend: 0x0, symName: __ZZN11ImFontAtlas37GetGlyphRangesChineseSimplifiedCommonEvE11base_ranges, symObjAddr: 0x2B8CC, symBinAddr: 0x10017673C, symSize: 0x0 }
  - { offsetInCU: 0x3CA, offset: 0x5E692, size: 0x8, addend: 0x0, symName: __ZZN11ImFontAtlas37GetGlyphRangesChineseSimplifiedCommonEvE11full_ranges, symObjAddr: 0x6CD88, symBinAddr: 0x100181C50, symSize: 0x0 }
  - { offsetInCU: 0x40E, offset: 0x5E6D6, size: 0x8, addend: 0x0, symName: __ZN11ImFontAtlas22GetGlyphRangesJapaneseEv, symObjAddr: 0x11B7C, symBinAddr: 0x1000BA018, symSize: 0x78 }
  - { offsetInCU: 0x436, offset: 0x5E6FE, size: 0x8, addend: 0x0, symName: __ZZN11ImFontAtlas22GetGlyphRangesJapaneseEvE32accumulative_offsets_from_0x4E00, symObjAddr: 0x26552, symBinAddr: 0x10015D48E, symSize: 0x0 }
  - { offsetInCU: 0x44D, offset: 0x5E715, size: 0x8, addend: 0x0, symName: __ZZN11ImFontAtlas22GetGlyphRangesJapaneseEvE11base_ranges, symObjAddr: 0x2B8E4, symBinAddr: 0x100176754, symSize: 0x0 }
  - { offsetInCU: 0x464, offset: 0x5E72C, size: 0x8, addend: 0x0, symName: __ZZN11ImFontAtlas22GetGlyphRangesJapaneseEvE11full_ranges, symObjAddr: 0x6F4B2, symBinAddr: 0x10018437A, symSize: 0x0 }
  - { offsetInCU: 0x4A3, offset: 0x5E76B, size: 0x8, addend: 0x0, symName: __ZN11ImFontAtlas22GetGlyphRangesCyrillicEv, symObjAddr: 0x11BF4, symBinAddr: 0x1000BA090, symSize: 0x18 }
  - { offsetInCU: 0x4CB, offset: 0x5E793, size: 0x8, addend: 0x0, symName: __ZZN11ImFontAtlas22GetGlyphRangesCyrillicEvE6ranges, symObjAddr: 0x27CC0, symBinAddr: 0x10015EBFC, symSize: 0x0 }
  - { offsetInCU: 0x4E2, offset: 0x5E7AA, size: 0x8, addend: 0x0, symName: __ZN11ImFontAtlas18GetGlyphRangesThaiEv, symObjAddr: 0x11C0C, symBinAddr: 0x1000BA0A8, symSize: 0x18 }
  - { offsetInCU: 0x50A, offset: 0x5E7D2, size: 0x8, addend: 0x0, symName: __ZZN11ImFontAtlas18GetGlyphRangesThaiEvE6ranges, symObjAddr: 0x27CD2, symBinAddr: 0x10015EC0E, symSize: 0x0 }
  - { offsetInCU: 0x52D, offset: 0x5E7F5, size: 0x8, addend: 0x0, symName: __ZN11ImFontAtlas24GetGlyphRangesVietnameseEv, symObjAddr: 0x11C24, symBinAddr: 0x1000BA0C0, symSize: 0x18 }
  - { offsetInCU: 0x555, offset: 0x5E81D, size: 0x8, addend: 0x0, symName: __ZZN11ImFontAtlas24GetGlyphRangesVietnameseEvE6ranges, symObjAddr: 0x27CE0, symBinAddr: 0x10015EC1C, symSize: 0x0 }
  - { offsetInCU: 0x585, offset: 0x5E84D, size: 0x8, addend: 0x0, symName: __ZL34FONT_ATLAS_DEFAULT_TEX_CURSOR_DATA, symObjAddr: 0x250BC, symBinAddr: 0x10015BFF8, symSize: 0x0 }
  - { offsetInCU: 0x5B2, offset: 0x5E87A, size: 0x8, addend: 0x0, symName: __ZL34FONT_ATLAS_DEFAULT_TEX_DATA_PIXELS, symObjAddr: 0x27D20, symBinAddr: 0x10015EC5C, symSize: 0x0 }
  - { offsetInCU: 0x5DB, offset: 0x5E8A3, size: 0x8, addend: 0x0, symName: __ZL17stb__barrier_in_b, symObjAddr: 0x723A8, symBinAddr: 0x100187270, symSize: 0x0 }
  - { offsetInCU: 0x600, offset: 0x5E8C8, size: 0x8, addend: 0x0, symName: __ZL18stb__barrier_out_e, symObjAddr: 0x723B0, symBinAddr: 0x100187278, symSize: 0x0 }
  - { offsetInCU: 0x61B, offset: 0x5E8E3, size: 0x8, addend: 0x0, symName: __ZL18stb__barrier_out_b, symObjAddr: 0x723B8, symBinAddr: 0x100187280, symSize: 0x0 }
  - { offsetInCU: 0x636, offset: 0x5E8FE, size: 0x8, addend: 0x0, symName: __ZL9stb__dout, symObjAddr: 0x723C0, symBinAddr: 0x100187288, symSize: 0x0 }
  - { offsetInCU: 0x651, offset: 0x5E919, size: 0x8, addend: 0x0, symName: __ZL39proggy_clean_ttf_compressed_data_base85, symObjAddr: 0x289FF, symBinAddr: 0x10015F93B, symSize: 0x0 }
  - { offsetInCU: 0xEB9, offset: 0x5F181, size: 0x8, addend: 0x0, symName: __ZN5ImGui15StyleColorsDarkEP10ImGuiStyle, symObjAddr: 0x0, symBinAddr: 0x1000A8F44, symSize: 0x9F0 }
  - { offsetInCU: 0xEFE, offset: 0x5F1C6, size: 0x8, addend: 0x0, symName: __ZN5ImGui18StyleColorsClassicEP10ImGuiStyle, symObjAddr: 0xB08, symBinAddr: 0x1000A9A00, symSize: 0xA10 }
  - { offsetInCU: 0xF43, offset: 0x5F20B, size: 0x8, addend: 0x0, symName: __ZN5ImGui16StyleColorsLightEP10ImGuiStyle, symObjAddr: 0x1518, symBinAddr: 0x1000AA410, symSize: 0xA08 }
  - { offsetInCU: 0xF8B, offset: 0x5F253, size: 0x8, addend: 0x0, symName: __ZN5ImGui18ShadeVertsLinearUVEP10ImDrawListiiRK6ImVec2S4_S4_S4_b, symObjAddr: 0x9C9C, symBinAddr: 0x1000B25C0, symSize: 0x2CC }
  - { offsetInCU: 0x10D9, offset: 0x5F3A1, size: 0x8, addend: 0x0, symName: __ZN5ImGui38ShadeVertsLinearColorGradientKeepAlphaEP10ImDrawListii6ImVec2S2_jj, symObjAddr: 0xB2BC, symBinAddr: 0x1000B3974, symSize: 0x224 }
  - { offsetInCU: 0x126C, offset: 0x5F534, size: 0x8, addend: 0x0, symName: __ZN5ImGui11RenderArrowEP10ImDrawList6ImVec2jif, symObjAddr: 0x13784, symBinAddr: 0x1000BB9BC, symSize: 0x35C }
  - { offsetInCU: 0x132F, offset: 0x5F5F7, size: 0x8, addend: 0x0, symName: __ZN5ImGui12RenderBulletEP10ImDrawList6ImVec2j, symObjAddr: 0x13AE0, symBinAddr: 0x1000BBD18, symSize: 0x5C }
  - { offsetInCU: 0x1377, offset: 0x5F63F, size: 0x8, addend: 0x0, symName: __ZN5ImGui15RenderCheckMarkEP10ImDrawList6ImVec2jf, symObjAddr: 0x13B3C, symBinAddr: 0x1000BBD74, symSize: 0x17C }
  - { offsetInCU: 0x140A, offset: 0x5F6D2, size: 0x8, addend: 0x0, symName: __ZN5ImGui21RenderArrowPointingAtEP10ImDrawList6ImVec2S2_ij, symObjAddr: 0x13D00, symBinAddr: 0x1000BBF38, symSize: 0x244 }
  - { offsetInCU: 0x1470, offset: 0x5F738, size: 0x8, addend: 0x0, symName: __ZN5ImGui22RenderRectFilledRangeHEP10ImDrawListRK6ImRectjfff, symObjAddr: 0x13F5C, symBinAddr: 0x1000BC194, symSize: 0x5F4 }
  - { offsetInCU: 0x1591, offset: 0x5F859, size: 0x8, addend: 0x0, symName: __ZN5ImGui24RenderRectFilledWithHoleEP10ImDrawListRK6ImRectS4_jf, symObjAddr: 0x14638, symBinAddr: 0x1000BC870, symSize: 0x560 }
  - { offsetInCU: 0x1633, offset: 0x5F8FB, size: 0x8, addend: 0x0, symName: __ZN5ImGui36RenderColorRectWithAlphaCheckerboardEP10ImDrawList6ImVec2S2_jfS2_fi, symObjAddr: 0x14B98, symBinAddr: 0x1000BCDD0, symSize: 0x3AC }
  - { offsetInCU: 0x17A7, offset: 0x5FA6F, size: 0x8, addend: 0x0, symName: __ZL6ImLerpRK6ImVec4S1_f, symObjAddr: 0xA3C, symBinAddr: 0x1000A9934, symSize: 0xCC }
  - { offsetInCU: 0x17F4, offset: 0x5FABC, size: 0x8, addend: 0x0, symName: __ZN20ImDrawListSharedDataC2Ev, symObjAddr: 0x1F20, symBinAddr: 0x1000AAE18, symSize: 0x17C }
  - { offsetInCU: 0x185A, offset: 0x5FB22, size: 0x8, addend: 0x0, symName: __ZL5ImMaxIfET_S0_S0_, symObjAddr: 0x2130, symBinAddr: 0x1000AAF94, symSize: 0x48 }
  - { offsetInCU: 0x18A1, offset: 0x5FB69, size: 0x8, addend: 0x0, symName: __ZN20ImDrawListSharedDataC1Ev, symObjAddr: 0x2178, symBinAddr: 0x1000AAFDC, symSize: 0x2C }
  - { offsetInCU: 0x18CD, offset: 0x5FB95, size: 0x8, addend: 0x0, symName: __ZN20ImDrawListSharedData29SetCircleTessellationMaxErrorEf, symObjAddr: 0x21A4, symBinAddr: 0x1000AB008, symSize: 0x1B0 }
  - { offsetInCU: 0x193E, offset: 0x5FC06, size: 0x8, addend: 0x0, symName: __ZL7ImClampIiET_S0_S0_S0_, symObjAddr: 0x2354, symBinAddr: 0x1000AB1B8, symSize: 0x7C }
  - { offsetInCU: 0x1994, offset: 0x5FC5C, size: 0x8, addend: 0x0, symName: __ZL5ImMinIfET_S0_S0_, symObjAddr: 0x23D0, symBinAddr: 0x1000AB234, symSize: 0x48 }
  - { offsetInCU: 0x19DB, offset: 0x5FCA3, size: 0x8, addend: 0x0, symName: __ZN10ImDrawList17_ResetForNewFrameEv, symObjAddr: 0x2418, symBinAddr: 0x1000AB27C, symSize: 0xD4 }
  - { offsetInCU: 0x1A03, offset: 0x5FCCB, size: 0x8, addend: 0x0, symName: __ZN8ImVectorI9ImDrawCmdE6resizeEi, symObjAddr: 0x24EC, symBinAddr: 0x1000AB350, symSize: 0x68 }
  - { offsetInCU: 0x1A37, offset: 0x5FCFF, size: 0x8, addend: 0x0, symName: __ZN8ImVectorI10ImDrawVertE6resizeEi, symObjAddr: 0x25BC, symBinAddr: 0x1000AB3B8, symSize: 0x68 }
  - { offsetInCU: 0x1A6B, offset: 0x5FD33, size: 0x8, addend: 0x0, symName: __ZN8ImVectorI6ImVec4E6resizeEi, symObjAddr: 0x2624, symBinAddr: 0x1000AB420, symSize: 0x68 }
  - { offsetInCU: 0x1A9F, offset: 0x5FD67, size: 0x8, addend: 0x0, symName: __ZN8ImVectorIPvE6resizeEi, symObjAddr: 0x268C, symBinAddr: 0x1000AB488, symSize: 0x68 }
  - { offsetInCU: 0x1AD3, offset: 0x5FD9B, size: 0x8, addend: 0x0, symName: __ZN18ImDrawListSplitter5ClearEv, symObjAddr: 0x275C, symBinAddr: 0x1000AB4F0, symSize: 0x20 }
  - { offsetInCU: 0x1AF8, offset: 0x5FDC0, size: 0x8, addend: 0x0, symName: __ZN9ImDrawCmdC1Ev, symObjAddr: 0x2810, symBinAddr: 0x1000AB510, symSize: 0x2C }
  - { offsetInCU: 0x1B20, offset: 0x5FDE8, size: 0x8, addend: 0x0, symName: __ZN10ImDrawList16_ClearFreeMemoryEv, symObjAddr: 0x283C, symBinAddr: 0x1000AB53C, symSize: 0x80 }
  - { offsetInCU: 0x1B48, offset: 0x5FE10, size: 0x8, addend: 0x0, symName: __ZN8ImVectorI9ImDrawCmdE5clearEv, symObjAddr: 0x28BC, symBinAddr: 0x1000AB5BC, symSize: 0x58 }
  - { offsetInCU: 0x1B6D, offset: 0x5FE35, size: 0x8, addend: 0x0, symName: __ZN8ImVectorI10ImDrawVertE5clearEv, symObjAddr: 0x296C, symBinAddr: 0x1000AB614, symSize: 0x58 }
  - { offsetInCU: 0x1B92, offset: 0x5FE5A, size: 0x8, addend: 0x0, symName: __ZN8ImVectorI6ImVec4E5clearEv, symObjAddr: 0x29C4, symBinAddr: 0x1000AB66C, symSize: 0x58 }
  - { offsetInCU: 0x1BB7, offset: 0x5FE7F, size: 0x8, addend: 0x0, symName: __ZN8ImVectorIPvE5clearEv, symObjAddr: 0x2A1C, symBinAddr: 0x1000AB6C4, symSize: 0x58 }
  - { offsetInCU: 0x1BDC, offset: 0x5FEA4, size: 0x8, addend: 0x0, symName: __ZN18ImDrawListSplitter15ClearFreeMemoryEv, symObjAddr: 0x2ACC, symBinAddr: 0x1000AB71C, symSize: 0xDC }
  - { offsetInCU: 0x1C21, offset: 0x5FEE9, size: 0x8, addend: 0x0, symName: __ZNK10ImDrawList11CloneOutputEv, symObjAddr: 0x2BA8, symBinAddr: 0x1000AB7F8, symSize: 0xCC }
  - { offsetInCU: 0x1C58, offset: 0x5FF20, size: 0x8, addend: 0x0, symName: __ZN8ImVectorI9ImDrawCmdEaSERKS1_, symObjAddr: 0x2CD4, symBinAddr: 0x1000AB8C4, symSize: 0x60 }
  - { offsetInCU: 0x1C8C, offset: 0x5FF54, size: 0x8, addend: 0x0, symName: __ZN8ImVectorItEaSERKS0_, symObjAddr: 0x2D34, symBinAddr: 0x1000AB924, symSize: 0x5C }
  - { offsetInCU: 0x1CC0, offset: 0x5FF88, size: 0x8, addend: 0x0, symName: __ZN8ImVectorI10ImDrawVertEaSERKS1_, symObjAddr: 0x2D90, symBinAddr: 0x1000AB980, symSize: 0x60 }
  - { offsetInCU: 0x1CF4, offset: 0x5FFBC, size: 0x8, addend: 0x0, symName: __ZN10ImDrawList10AddDrawCmdEv, symObjAddr: 0x2DF0, symBinAddr: 0x1000AB9E0, symSize: 0xC4 }
  - { offsetInCU: 0x1D2B, offset: 0x5FFF3, size: 0x8, addend: 0x0, symName: __ZN10ImDrawList17_PopUnusedDrawCmdEv, symObjAddr: 0x2EB4, symBinAddr: 0x1000ABAA4, symSize: 0x94 }
  - { offsetInCU: 0x1D62, offset: 0x6002A, size: 0x8, addend: 0x0, symName: __ZN10ImDrawList11AddCallbackEPFvPKS_PK9ImDrawCmdEPv, symObjAddr: 0x2FB4, symBinAddr: 0x1000ABB38, symSize: 0xE0 }
  - { offsetInCU: 0x1DB7, offset: 0x6007F, size: 0x8, addend: 0x0, symName: __ZN10ImDrawList17_TryMergeDrawCmdsEv, symObjAddr: 0x3094, symBinAddr: 0x1000ABC18, symSize: 0xE8 }
  - { offsetInCU: 0x1DFD, offset: 0x600C5, size: 0x8, addend: 0x0, symName: __ZN10ImDrawList18_OnChangedClipRectEv, symObjAddr: 0x317C, symBinAddr: 0x1000ABD00, symSize: 0x184 }
  - { offsetInCU: 0x1E43, offset: 0x6010B, size: 0x8, addend: 0x0, symName: __ZN10ImDrawList19_OnChangedTextureIDEv, symObjAddr: 0x3300, symBinAddr: 0x1000ABE84, symSize: 0x180 }
  - { offsetInCU: 0x1E89, offset: 0x60151, size: 0x8, addend: 0x0, symName: __ZN10ImDrawList19_OnChangedVtxOffsetEv, symObjAddr: 0x3480, symBinAddr: 0x1000AC004, symSize: 0xB4 }
  - { offsetInCU: 0x1EC0, offset: 0x60188, size: 0x8, addend: 0x0, symName: __ZNK10ImDrawList27_CalcCircleAutoSegmentCountEf, symObjAddr: 0x3534, symBinAddr: 0x1000AC0B8, symSize: 0xDC }
  - { offsetInCU: 0x1F06, offset: 0x601CE, size: 0x8, addend: 0x0, symName: __ZN10ImDrawList12PushClipRectERK6ImVec2S2_b, symObjAddr: 0x3610, symBinAddr: 0x1000AC194, symSize: 0x154 }
  - { offsetInCU: 0x1F87, offset: 0x6024F, size: 0x8, addend: 0x0, symName: __ZN8ImVectorI6ImVec4E9push_backERKS0_, symObjAddr: 0x3764, symBinAddr: 0x1000AC2E8, symSize: 0x84 }
  - { offsetInCU: 0x1FBB, offset: 0x60283, size: 0x8, addend: 0x0, symName: __ZN10ImDrawList22PushClipRectFullScreenEv, symObjAddr: 0x37E8, symBinAddr: 0x1000AC36C, symSize: 0x78 }
  - { offsetInCU: 0x1FE3, offset: 0x602AB, size: 0x8, addend: 0x0, symName: __ZN10ImDrawList11PopClipRectEv, symObjAddr: 0x3860, symBinAddr: 0x1000AC3E4, symSize: 0x88 }
  - { offsetInCU: 0x200B, offset: 0x602D3, size: 0x8, addend: 0x0, symName: __ZN8ImVectorI6ImVec4E8pop_backEv, symObjAddr: 0x38E8, symBinAddr: 0x1000AC46C, symSize: 0x6C }
  - { offsetInCU: 0x2030, offset: 0x602F8, size: 0x8, addend: 0x0, symName: __ZN10ImDrawList13PushTextureIDEPv, symObjAddr: 0x3954, symBinAddr: 0x1000AC4D8, symSize: 0x48 }
  - { offsetInCU: 0x2067, offset: 0x6032F, size: 0x8, addend: 0x0, symName: __ZN8ImVectorIPvE9push_backERKS0_, symObjAddr: 0x399C, symBinAddr: 0x1000AC520, symSize: 0x84 }
  - { offsetInCU: 0x209B, offset: 0x60363, size: 0x8, addend: 0x0, symName: __ZN10ImDrawList12PopTextureIDEv, symObjAddr: 0x3A20, symBinAddr: 0x1000AC5A4, symSize: 0x7C }
  - { offsetInCU: 0x20C3, offset: 0x6038B, size: 0x8, addend: 0x0, symName: __ZN8ImVectorIPvE8pop_backEv, symObjAddr: 0x3A9C, symBinAddr: 0x1000AC620, symSize: 0x6C }
  - { offsetInCU: 0x20E8, offset: 0x603B0, size: 0x8, addend: 0x0, symName: __ZN10ImDrawList11PrimReserveEii, symObjAddr: 0x3B08, symBinAddr: 0x1000AC68C, symSize: 0x10C }
  - { offsetInCU: 0x215B, offset: 0x60423, size: 0x8, addend: 0x0, symName: __ZN10ImDrawList13PrimUnreserveEii, symObjAddr: 0x3C14, symBinAddr: 0x1000AC798, symSize: 0x84 }
  - { offsetInCU: 0x21B0, offset: 0x60478, size: 0x8, addend: 0x0, symName: __ZN8ImVectorI10ImDrawVertE6shrinkEi, symObjAddr: 0x3C98, symBinAddr: 0x1000AC81C, symSize: 0x70 }
  - { offsetInCU: 0x21E4, offset: 0x604AC, size: 0x8, addend: 0x0, symName: __ZN8ImVectorItE6shrinkEi, symObjAddr: 0x3D08, symBinAddr: 0x1000AC88C, symSize: 0x70 }
  - { offsetInCU: 0x2218, offset: 0x604E0, size: 0x8, addend: 0x0, symName: __ZN10ImDrawList8PrimRectERK6ImVec2S2_j, symObjAddr: 0x3D78, symBinAddr: 0x1000AC8FC, symSize: 0x18C }
  - { offsetInCU: 0x22A9, offset: 0x60571, size: 0x8, addend: 0x0, symName: __ZN10ImDrawList10PrimRectUVERK6ImVec2S2_S2_S2_j, symObjAddr: 0x3F04, symBinAddr: 0x1000ACA88, symSize: 0x1C0 }
  - { offsetInCU: 0x2367, offset: 0x6062F, size: 0x8, addend: 0x0, symName: __ZN10ImDrawList10PrimQuadUVERK6ImVec2S2_S2_S2_S2_S2_S2_S2_j, symObjAddr: 0x40C4, symBinAddr: 0x1000ACC48, symSize: 0x174 }
  - { offsetInCU: 0x2427, offset: 0x606EF, size: 0x8, addend: 0x0, symName: __ZN10ImDrawList11AddPolylineEPK6ImVec2ijif, symObjAddr: 0x4238, symBinAddr: 0x1000ACDBC, symSize: 0x179C }
  - { offsetInCU: 0x29B7, offset: 0x60C7F, size: 0x8, addend: 0x0, symName: __ZL7ImRsqrtf, symObjAddr: 0x59D4, symBinAddr: 0x1000AE558, symSize: 0x20 }
  - { offsetInCU: 0x29E6, offset: 0x60CAE, size: 0x8, addend: 0x0, symName: __ZplRK6ImVec2S1_, symObjAddr: 0x59F4, symBinAddr: 0x1000AE578, symSize: 0x58 }
  - { offsetInCU: 0x2A24, offset: 0x60CEC, size: 0x8, addend: 0x0, symName: __ZmlRK6ImVec2f, symObjAddr: 0x5A4C, symBinAddr: 0x1000AE5D0, symSize: 0x50 }
  - { offsetInCU: 0x2A62, offset: 0x60D2A, size: 0x8, addend: 0x0, symName: __ZmiRK6ImVec2S1_, symObjAddr: 0x5A9C, symBinAddr: 0x1000AE620, symSize: 0x58 }
  - { offsetInCU: 0x2AA0, offset: 0x60D68, size: 0x8, addend: 0x0, symName: __ZN10ImDrawList19AddConvexPolyFilledEPK6ImVec2ij, symObjAddr: 0x5AF4, symBinAddr: 0x1000AE678, symSize: 0x6E4 }
  - { offsetInCU: 0x2D74, offset: 0x6103C, size: 0x8, addend: 0x0, symName: __ZN10ImDrawList16_PathArcToFastExERK6ImVec2fiii, symObjAddr: 0x61D8, symBinAddr: 0x1000AED5C, symSize: 0x490 }
  - { offsetInCU: 0x2EFF, offset: 0x611C7, size: 0x8, addend: 0x0, symName: __ZL5ImAbsi, symObjAddr: 0x66EC, symBinAddr: 0x1000AF1EC, symSize: 0x48 }
  - { offsetInCU: 0x2F2E, offset: 0x611F6, size: 0x8, addend: 0x0, symName: __ZN10ImDrawList11_PathArcToNERK6ImVec2fffi, symObjAddr: 0x6734, symBinAddr: 0x1000AF234, symSize: 0x150 }
  - { offsetInCU: 0x2FDB, offset: 0x612A3, size: 0x8, addend: 0x0, symName: __ZN10ImDrawList13PathArcToFastERK6ImVec2fii, symObjAddr: 0x6930, symBinAddr: 0x1000AF384, symSize: 0x98 }
  - { offsetInCU: 0x303F, offset: 0x61307, size: 0x8, addend: 0x0, symName: __ZN10ImDrawList9PathArcToERK6ImVec2fffi, symObjAddr: 0x69C8, symBinAddr: 0x1000AF41C, symSize: 0x46C }
  - { offsetInCU: 0x3196, offset: 0x6145E, size: 0x8, addend: 0x0, symName: __ZL13ImFloorSignedf, symObjAddr: 0x6E34, symBinAddr: 0x1000AF888, symSize: 0x70 }
  - { offsetInCU: 0x31C5, offset: 0x6148D, size: 0x8, addend: 0x0, symName: __ZL5ImMaxIiET_S0_S0_, symObjAddr: 0x6EA4, symBinAddr: 0x1000AF8F8, symSize: 0x48 }
  - { offsetInCU: 0x320C, offset: 0x614D4, size: 0x8, addend: 0x0, symName: __ZL5ImAbsf, symObjAddr: 0x6EEC, symBinAddr: 0x1000AF940, symSize: 0x18 }
  - { offsetInCU: 0x323B, offset: 0x61503, size: 0x8, addend: 0x0, symName: __Z17ImBezierCubicCalcRK6ImVec2S1_S1_S1_f, symObjAddr: 0x6F04, symBinAddr: 0x1000AF958, symSize: 0x138 }
  - { offsetInCU: 0x32F0, offset: 0x615B8, size: 0x8, addend: 0x0, symName: __Z21ImBezierQuadraticCalcRK6ImVec2S1_S1_f, symObjAddr: 0x703C, symBinAddr: 0x1000AFA90, symSize: 0xE0 }
  - { offsetInCU: 0x3387, offset: 0x6164F, size: 0x8, addend: 0x0, symName: __ZN10ImDrawList22PathBezierCubicCurveToERK6ImVec2S2_S2_i, symObjAddr: 0x711C, symBinAddr: 0x1000AFB70, symSize: 0x148 }
  - { offsetInCU: 0x3434, offset: 0x616FC, size: 0x8, addend: 0x0, symName: __ZL31PathBezierCubicCurveToCasteljauP8ImVectorI6ImVec2Efffffffffi, symObjAddr: 0x72D4, symBinAddr: 0x1000AFCB8, symSize: 0x334 }
  - { offsetInCU: 0x35F9, offset: 0x618C1, size: 0x8, addend: 0x0, symName: __ZN10ImDrawList26PathBezierQuadraticCurveToERK6ImVec2S2_i, symObjAddr: 0x7608, symBinAddr: 0x1000AFFEC, symSize: 0x128 }
  - { offsetInCU: 0x3697, offset: 0x6195F, size: 0x8, addend: 0x0, symName: __ZL35PathBezierQuadraticCurveToCasteljauP8ImVectorI6ImVec2Efffffffi, symObjAddr: 0x7730, symBinAddr: 0x1000B0114, symSize: 0x1E8 }
  - { offsetInCU: 0x37CF, offset: 0x61A97, size: 0x8, addend: 0x0, symName: __ZN10ImDrawList8PathRectERK6ImVec2S2_fi, symObjAddr: 0x7918, symBinAddr: 0x1000B02FC, symSize: 0x3E8 }
  - { offsetInCU: 0x387D, offset: 0x61B45, size: 0x8, addend: 0x0, symName: __ZL18FixRectCornerFlagsi, symObjAddr: 0x7D00, symBinAddr: 0x1000B06E4, symSize: 0x100 }
  - { offsetInCU: 0x38AC, offset: 0x61B74, size: 0x8, addend: 0x0, symName: __ZN10ImDrawList7AddLineERK6ImVec2S2_jf, symObjAddr: 0x7E30, symBinAddr: 0x1000B07E4, symSize: 0xE4 }
  - { offsetInCU: 0x3910, offset: 0x61BD8, size: 0x8, addend: 0x0, symName: __ZN10ImDrawList7AddRectERK6ImVec2S2_jfif, symObjAddr: 0x7F64, symBinAddr: 0x1000B08C8, symSize: 0x1A4 }
  - { offsetInCU: 0x3992, offset: 0x61C5A, size: 0x8, addend: 0x0, symName: __ZN10ImDrawList13AddRectFilledERK6ImVec2S2_jfi, symObjAddr: 0x8108, symBinAddr: 0x1000B0A6C, symSize: 0xD4 }
  - { offsetInCU: 0x3A05, offset: 0x61CCD, size: 0x8, addend: 0x0, symName: __ZN10ImDrawList23AddRectFilledMultiColorERK6ImVec2S2_jjjj, symObjAddr: 0x821C, symBinAddr: 0x1000B0B40, symSize: 0x190 }
  - { offsetInCU: 0x3A96, offset: 0x61D5E, size: 0x8, addend: 0x0, symName: __ZN10ImDrawList12PrimWriteIdxEt, symObjAddr: 0x83AC, symBinAddr: 0x1000B0CD0, symSize: 0x30 }
  - { offsetInCU: 0x3ACA, offset: 0x61D92, size: 0x8, addend: 0x0, symName: __ZN10ImDrawList12PrimWriteVtxERK6ImVec2S2_j, symObjAddr: 0x83DC, symBinAddr: 0x1000B0D00, symSize: 0x64 }
  - { offsetInCU: 0x3B1C, offset: 0x61DE4, size: 0x8, addend: 0x0, symName: __ZN10ImDrawList7AddQuadERK6ImVec2S2_S2_S2_jf, symObjAddr: 0x8440, symBinAddr: 0x1000B0D64, symSize: 0xA0 }
  - { offsetInCU: 0x3B9E, offset: 0x61E66, size: 0x8, addend: 0x0, symName: __ZN10ImDrawList13AddQuadFilledERK6ImVec2S2_S2_S2_j, symObjAddr: 0x84E0, symBinAddr: 0x1000B0E04, symSize: 0x94 }
  - { offsetInCU: 0x3C11, offset: 0x61ED9, size: 0x8, addend: 0x0, symName: __ZN10ImDrawList11AddTriangleERK6ImVec2S2_S2_jf, symObjAddr: 0x8574, symBinAddr: 0x1000B0E98, symSize: 0x90 }
  - { offsetInCU: 0x3C84, offset: 0x61F4C, size: 0x8, addend: 0x0, symName: __ZN10ImDrawList17AddTriangleFilledERK6ImVec2S2_S2_j, symObjAddr: 0x8604, symBinAddr: 0x1000B0F28, symSize: 0x84 }
  - { offsetInCU: 0x3CE8, offset: 0x61FB0, size: 0x8, addend: 0x0, symName: __ZN10ImDrawList9AddCircleERK6ImVec2fjif, symObjAddr: 0x8688, symBinAddr: 0x1000B0FAC, symSize: 0x144 }
  - { offsetInCU: 0x3D78, offset: 0x62040, size: 0x8, addend: 0x0, symName: __ZN10ImDrawList15AddCircleFilledERK6ImVec2fji, symObjAddr: 0x87CC, symBinAddr: 0x1000B10F0, symSize: 0x128 }
  - { offsetInCU: 0x3DF9, offset: 0x620C1, size: 0x8, addend: 0x0, symName: __ZN10ImDrawList7AddNgonERK6ImVec2fjif, symObjAddr: 0x88F4, symBinAddr: 0x1000B1218, symSize: 0xE0 }
  - { offsetInCU: 0x3E7B, offset: 0x62143, size: 0x8, addend: 0x0, symName: __ZN10ImDrawList13AddNgonFilledERK6ImVec2fji, symObjAddr: 0x89D4, symBinAddr: 0x1000B12F8, symSize: 0xC4 }
  - { offsetInCU: 0x3EEE, offset: 0x621B6, size: 0x8, addend: 0x0, symName: __ZN10ImDrawList14AddBezierCubicERK6ImVec2S2_S2_S2_jfi, symObjAddr: 0x8A98, symBinAddr: 0x1000B13BC, symSize: 0x98 }
  - { offsetInCU: 0x3F7F, offset: 0x62247, size: 0x8, addend: 0x0, symName: __ZN10ImDrawList18AddBezierQuadraticERK6ImVec2S2_S2_jfi, symObjAddr: 0x8B30, symBinAddr: 0x1000B1454, symSize: 0x90 }
  - { offsetInCU: 0x4001, offset: 0x622C9, size: 0x8, addend: 0x0, symName: __ZN10ImDrawList7AddTextEPK6ImFontfRK6ImVec2jPKcS7_fPK6ImVec4, symObjAddr: 0x8BC0, symBinAddr: 0x1000B14E4, symSize: 0x1F8 }
  - { offsetInCU: 0x40B0, offset: 0x62378, size: 0x8, addend: 0x0, symName: __ZNK6ImFont10RenderTextEP10ImDrawListfRK6ImVec2jRK6ImVec4PKcS9_fb, symObjAddr: 0x8DB8, symBinAddr: 0x1000B16DC, symSize: 0xB38 }
  - { offsetInCU: 0x4387, offset: 0x6264F, size: 0x8, addend: 0x0, symName: __ZN10ImDrawList7AddTextERK6ImVec2jPKcS4_, symObjAddr: 0x98F0, symBinAddr: 0x1000B2214, symSize: 0x54 }
  - { offsetInCU: 0x43EB, offset: 0x626B3, size: 0x8, addend: 0x0, symName: __ZN10ImDrawList8AddImageEPvRK6ImVec2S3_S3_S3_j, symObjAddr: 0x9944, symBinAddr: 0x1000B2268, symSize: 0xD8 }
  - { offsetInCU: 0x447C, offset: 0x62744, size: 0x8, addend: 0x0, symName: __ZN10ImDrawList12AddImageQuadEPvRK6ImVec2S3_S3_S3_S3_S3_S3_S3_j, symObjAddr: 0x9A1C, symBinAddr: 0x1000B2340, symSize: 0x110 }
  - { offsetInCU: 0x4549, offset: 0x62811, size: 0x8, addend: 0x0, symName: __ZN10ImDrawList15AddImageRoundedEPvRK6ImVec2S3_S3_S3_jfi, symObjAddr: 0x9B2C, symBinAddr: 0x1000B2450, symSize: 0x170 }
  - { offsetInCU: 0x4616, offset: 0x628DE, size: 0x8, addend: 0x0, symName: __ZN8ImVectorI13ImDrawChannelEixEi, symObjAddr: 0x9F68, symBinAddr: 0x1000B288C, symSize: 0xA0 }
  - { offsetInCU: 0x464A, offset: 0x62912, size: 0x8, addend: 0x0, symName: __ZN18ImDrawListSplitter5SplitEP10ImDrawListi, symObjAddr: 0xA060, symBinAddr: 0x1000B292C, symSize: 0x200 }
  - { offsetInCU: 0x46B4, offset: 0x6297C, size: 0x8, addend: 0x0, symName: __ZN8ImVectorI13ImDrawChannelE7reserveEi, symObjAddr: 0xA260, symBinAddr: 0x1000B2B2C, symSize: 0xAC }
  - { offsetInCU: 0x46F7, offset: 0x629BF, size: 0x8, addend: 0x0, symName: __ZN8ImVectorI13ImDrawChannelE6resizeEi, symObjAddr: 0xA30C, symBinAddr: 0x1000B2BD8, symSize: 0x68 }
  - { offsetInCU: 0x4730, offset: 0x629F8, size: 0x8, addend: 0x0, symName: __ZN13ImDrawChannelC1Ev, symObjAddr: 0xA374, symBinAddr: 0x1000B2C40, symSize: 0x2C }
  - { offsetInCU: 0x475C, offset: 0x62A24, size: 0x8, addend: 0x0, symName: __ZN18ImDrawListSplitter5MergeEP10ImDrawList, symObjAddr: 0xA3A0, symBinAddr: 0x1000B2C6C, symSize: 0x5A0 }
  - { offsetInCU: 0x48D6, offset: 0x62B9E, size: 0x8, addend: 0x0, symName: __ZN18ImDrawListSplitter17SetCurrentChannelEP10ImDrawListi, symObjAddr: 0xA940, symBinAddr: 0x1000B320C, symSize: 0x218 }
  - { offsetInCU: 0x492B, offset: 0x62BF3, size: 0x8, addend: 0x0, symName: __ZN8ImVectorI9ImDrawCmdE5eraseEPKS0_, symObjAddr: 0xAC74, symBinAddr: 0x1000B3424, symSize: 0x128 }
  - { offsetInCU: 0x496E, offset: 0x62C36, size: 0x8, addend: 0x0, symName: __ZN10ImDrawData17DeIndexAllBuffersEv, symObjAddr: 0xAD9C, symBinAddr: 0x1000B354C, symSize: 0x1C4 }
  - { offsetInCU: 0x49EC, offset: 0x62CB4, size: 0x8, addend: 0x0, symName: __ZNK8ImVectorItE5emptyEv, symObjAddr: 0xAF8C, symBinAddr: 0x1000B3710, symSize: 0x24 }
  - { offsetInCU: 0x4A11, offset: 0x62CD9, size: 0x8, addend: 0x0, symName: __ZN8ImVectorI10ImDrawVertEixEi, symObjAddr: 0xAFB0, symBinAddr: 0x1000B3734, symSize: 0xA8 }
  - { offsetInCU: 0x4A45, offset: 0x62D0D, size: 0x8, addend: 0x0, symName: __ZN8ImVectorI10ImDrawVertE4swapERS1_, symObjAddr: 0xB0F8, symBinAddr: 0x1000B37DC, symSize: 0x78 }
  - { offsetInCU: 0x4AA6, offset: 0x62D6E, size: 0x8, addend: 0x0, symName: __ZN10ImDrawData14ScaleClipRectsERK6ImVec2, symObjAddr: 0xB19C, symBinAddr: 0x1000B3854, symSize: 0x120 }
  - { offsetInCU: 0x4B51, offset: 0x62E19, size: 0x8, addend: 0x0, symName: __ZL11ImLengthSqrRK6ImVec2, symObjAddr: 0xB4E0, symBinAddr: 0x1000B3B98, symSize: 0x38 }
  - { offsetInCU: 0x4B80, offset: 0x62E48, size: 0x8, addend: 0x0, symName: __ZL5ImDotRK6ImVec2S1_, symObjAddr: 0xB518, symBinAddr: 0x1000B3BD0, symSize: 0x3C }
  - { offsetInCU: 0x4BBE, offset: 0x62E86, size: 0x8, addend: 0x0, symName: __ZL7ImClampIfET_S0_S0_S0_, symObjAddr: 0xB554, symBinAddr: 0x1000B3C0C, symSize: 0x7C }
  - { offsetInCU: 0x4C14, offset: 0x62EDC, size: 0x8, addend: 0x0, symName: __ZL5ImMinRK6ImVec2S1_, symObjAddr: 0xB5D0, symBinAddr: 0x1000B3C88, symSize: 0xC0 }
  - { offsetInCU: 0x4C52, offset: 0x62F1A, size: 0x8, addend: 0x0, symName: __ZL5ImMaxRK6ImVec2S1_, symObjAddr: 0xB690, symBinAddr: 0x1000B3D48, symSize: 0xC0 }
  - { offsetInCU: 0x4C90, offset: 0x62F58, size: 0x8, addend: 0x0, symName: __ZL7ImClampRK6ImVec2S1_S_, symObjAddr: 0xB750, symBinAddr: 0x1000B3E08, symSize: 0x130 }
  - { offsetInCU: 0x4CDD, offset: 0x62FA5, size: 0x8, addend: 0x0, symName: __ZL5ImMulRK6ImVec2S1_, symObjAddr: 0xB880, symBinAddr: 0x1000B3F38, symSize: 0x58 }
  - { offsetInCU: 0x4D1B, offset: 0x62FE3, size: 0x8, addend: 0x0, symName: __ZN12ImFontConfigC2Ev, symObjAddr: 0xB8D8, symBinAddr: 0x1000B3F90, symSize: 0x80 }
  - { offsetInCU: 0x4D47, offset: 0x6300F, size: 0x8, addend: 0x0, symName: __ZN12ImFontConfigC1Ev, symObjAddr: 0xB958, symBinAddr: 0x1000B4010, symSize: 0x2C }
  - { offsetInCU: 0x4D73, offset: 0x6303B, size: 0x8, addend: 0x0, symName: __ZN11ImFontAtlasC2Ev, symObjAddr: 0xB984, symBinAddr: 0x1000B403C, symSize: 0x144 }
  - { offsetInCU: 0x4D9F, offset: 0x63067, size: 0x8, addend: 0x0, symName: __ZN8ImVectorI21ImFontAtlasCustomRectEC1Ev, symObjAddr: 0xBAF4, symBinAddr: 0x1000B4180, symSize: 0x2C }
  - { offsetInCU: 0x4DC7, offset: 0x6308F, size: 0x8, addend: 0x0, symName: __ZN8ImVectorI12ImFontConfigEC1Ev, symObjAddr: 0xBB20, symBinAddr: 0x1000B41AC, symSize: 0x2C }
  - { offsetInCU: 0x4DEF, offset: 0x630B7, size: 0x8, addend: 0x0, symName: __ZN8ImVectorI12ImFontConfigED1Ev, symObjAddr: 0xBB4C, symBinAddr: 0x1000B41D8, symSize: 0x2C }
  - { offsetInCU: 0x4E17, offset: 0x630DF, size: 0x8, addend: 0x0, symName: __ZN8ImVectorI21ImFontAtlasCustomRectED1Ev, symObjAddr: 0xBB78, symBinAddr: 0x1000B4204, symSize: 0x2C }
  - { offsetInCU: 0x4E3F, offset: 0x63107, size: 0x8, addend: 0x0, symName: __ZN11ImFontAtlasC1Ev, symObjAddr: 0xBBD0, symBinAddr: 0x1000B4230, symSize: 0x2C }
  - { offsetInCU: 0x4E6B, offset: 0x63133, size: 0x8, addend: 0x0, symName: __ZN11ImFontAtlasD2Ev, symObjAddr: 0xBBFC, symBinAddr: 0x1000B425C, symSize: 0xBC }
  - { offsetInCU: 0x4E97, offset: 0x6315F, size: 0x8, addend: 0x0, symName: __ZN11ImFontAtlas5ClearEv, symObjAddr: 0xBCC4, symBinAddr: 0x1000B4318, symSize: 0x38 }
  - { offsetInCU: 0x4EBF, offset: 0x63187, size: 0x8, addend: 0x0, symName: __ZN11ImFontAtlasD1Ev, symObjAddr: 0xBCFC, symBinAddr: 0x1000B4350, symSize: 0x2C }
  - { offsetInCU: 0x4EEB, offset: 0x631B3, size: 0x8, addend: 0x0, symName: __ZN11ImFontAtlas14ClearInputDataEv, symObjAddr: 0xBD28, symBinAddr: 0x1000B437C, symSize: 0x220 }
  - { offsetInCU: 0x4F4D, offset: 0x63215, size: 0x8, addend: 0x0, symName: __ZN8ImVectorI12ImFontConfigEixEi, symObjAddr: 0xBF48, symBinAddr: 0x1000B459C, symSize: 0xA8 }
  - { offsetInCU: 0x4F81, offset: 0x63249, size: 0x8, addend: 0x0, symName: __ZN8ImVectorI12ImFontConfigE5clearEv, symObjAddr: 0xC090, symBinAddr: 0x1000B4644, symSize: 0x58 }
  - { offsetInCU: 0x4FA6, offset: 0x6326E, size: 0x8, addend: 0x0, symName: __ZN8ImVectorI21ImFontAtlasCustomRectE5clearEv, symObjAddr: 0xC0E8, symBinAddr: 0x1000B469C, symSize: 0x58 }
  - { offsetInCU: 0x4FCB, offset: 0x63293, size: 0x8, addend: 0x0, symName: __ZN11ImFontAtlas12ClearTexDataEv, symObjAddr: 0xC140, symBinAddr: 0x1000B46F4, symSize: 0xD4 }
  - { offsetInCU: 0x4FF3, offset: 0x632BB, size: 0x8, addend: 0x0, symName: __ZN11ImFontAtlas10ClearFontsEv, symObjAddr: 0xC214, symBinAddr: 0x1000B47C8, symSize: 0x88 }
  - { offsetInCU: 0x501B, offset: 0x632E3, size: 0x8, addend: 0x0, symName: __ZN8ImVectorIP6ImFontE12clear_deleteEv, symObjAddr: 0xC29C, symBinAddr: 0x1000B4850, symSize: 0x78 }
  - { offsetInCU: 0x505D, offset: 0x63325, size: 0x8, addend: 0x0, symName: __ZN11ImFontAtlas18GetTexDataAsAlpha8EPPhPiS2_S2_, symObjAddr: 0xC314, symBinAddr: 0x1000B48C8, symSize: 0xD8 }
  - { offsetInCU: 0x50C1, offset: 0x63389, size: 0x8, addend: 0x0, symName: __ZN11ImFontAtlas5BuildEv, symObjAddr: 0xC3EC, symBinAddr: 0x1000B49A0, symSize: 0xDC }
  - { offsetInCU: 0x50F8, offset: 0x633C0, size: 0x8, addend: 0x0, symName: __ZN11ImFontAtlas18GetTexDataAsRGBA32EPPhPiS2_S2_, symObjAddr: 0xC4C8, symBinAddr: 0x1000B4A7C, symSize: 0x1A0 }
  - { offsetInCU: 0x51C2, offset: 0x6348A, size: 0x8, addend: 0x0, symName: __ZN11ImFontAtlas7AddFontEPK12ImFontConfig, symObjAddr: 0xC668, symBinAddr: 0x1000B4C1C, symSize: 0x2EC }
  - { offsetInCU: 0x5208, offset: 0x634D0, size: 0x8, addend: 0x0, symName: __ZN6ImFontC1Ev, symObjAddr: 0xC9D8, symBinAddr: 0x1000B4F08, symSize: 0x2C }
  - { offsetInCU: 0x5234, offset: 0x634FC, size: 0x8, addend: 0x0, symName: __ZN8ImVectorI12ImFontConfigE9push_backERKS0_, symObjAddr: 0xCA28, symBinAddr: 0x1000B4F34, symSize: 0x94 }
  - { offsetInCU: 0x5268, offset: 0x63530, size: 0x8, addend: 0x0, symName: __ZN8ImVectorI12ImFontConfigE4backEv, symObjAddr: 0xCABC, symBinAddr: 0x1000B4FC8, symSize: 0x74 }
  - { offsetInCU: 0x528D, offset: 0x63555, size: 0x8, addend: 0x0, symName: __ZN11ImFontAtlas14AddFontDefaultEPK12ImFontConfig, symObjAddr: 0xCBA0, symBinAddr: 0x1000B503C, symSize: 0x1B0 }
  - { offsetInCU: 0x5303, offset: 0x635CB, size: 0x8, addend: 0x0, symName: __ZL37GetDefaultCompressedFontDataTTFBase85v, symObjAddr: 0xCD50, symBinAddr: 0x1000B51EC, symSize: 0xC }
  - { offsetInCU: 0x5322, offset: 0x635EA, size: 0x8, addend: 0x0, symName: __ZN11ImFontAtlas36AddFontFromMemoryCompressedBase85TTFEPKcfPK12ImFontConfigPKt, symObjAddr: 0xCD74, symBinAddr: 0x1000B5210, symSize: 0x98 }
  - { offsetInCU: 0x53B3, offset: 0x6367B, size: 0x8, addend: 0x0, symName: __ZN11ImFontAtlas18AddFontFromFileTTFEPKcfPK12ImFontConfigPKt, symObjAddr: 0xCE0C, symBinAddr: 0x1000B52A8, symSize: 0x250 }
  - { offsetInCU: 0x546A, offset: 0x63732, size: 0x8, addend: 0x0, symName: __ZN11ImFontAtlas20AddFontFromMemoryTTFEPvifPK12ImFontConfigPKt, symObjAddr: 0xD05C, symBinAddr: 0x1000B54F8, symSize: 0x1A0 }
  - { offsetInCU: 0x54EF, offset: 0x637B7, size: 0x8, addend: 0x0, symName: __ZN11ImFontAtlas30AddFontFromMemoryCompressedTTFEPKvifPK12ImFontConfigPKt, symObjAddr: 0xD1FC, symBinAddr: 0x1000B5698, symSize: 0x130 }
  - { offsetInCU: 0x5592, offset: 0x6385A, size: 0x8, addend: 0x0, symName: __ZL21stb_decompress_lengthPKh, symObjAddr: 0xD32C, symBinAddr: 0x1000B57C8, symSize: 0x40 }
  - { offsetInCU: 0x55C1, offset: 0x63889, size: 0x8, addend: 0x0, symName: __ZL14stb_decompressPhPKhj, symObjAddr: 0xD36C, symBinAddr: 0x1000B5808, symSize: 0x2D0 }
  - { offsetInCU: 0x5636, offset: 0x638FE, size: 0x8, addend: 0x0, symName: __ZL8Decode85PKhPh, symObjAddr: 0xD63C, symBinAddr: 0x1000B5AD8, symSize: 0x130 }
  - { offsetInCU: 0x568D, offset: 0x63955, size: 0x8, addend: 0x0, symName: __ZN11ImFontAtlas20AddCustomRectRegularEii, symObjAddr: 0xD76C, symBinAddr: 0x1000B5C08, symSize: 0x124 }
  - { offsetInCU: 0x56E2, offset: 0x639AA, size: 0x8, addend: 0x0, symName: __ZN21ImFontAtlasCustomRectC1Ev, symObjAddr: 0xD890, symBinAddr: 0x1000B5D2C, symSize: 0x2C }
  - { offsetInCU: 0x570A, offset: 0x639D2, size: 0x8, addend: 0x0, symName: __ZN8ImVectorI21ImFontAtlasCustomRectE9push_backERKS0_, symObjAddr: 0xD8BC, symBinAddr: 0x1000B5D58, symSize: 0x90 }
  - { offsetInCU: 0x573E, offset: 0x63A06, size: 0x8, addend: 0x0, symName: __ZN11ImFontAtlas22AddCustomRectFontGlyphEP6ImFonttiifRK6ImVec2, symObjAddr: 0xD94C, symBinAddr: 0x1000B5DE8, symSize: 0x190 }
  - { offsetInCU: 0x57CF, offset: 0x63A97, size: 0x8, addend: 0x0, symName: __ZNK11ImFontAtlas16CalcCustomRectUVEPK21ImFontAtlasCustomRectP6ImVec2S4_, symObjAddr: 0xDADC, symBinAddr: 0x1000B5F78, symSize: 0x160 }
  - { offsetInCU: 0x5824, offset: 0x63AEC, size: 0x8, addend: 0x0, symName: __ZNK21ImFontAtlasCustomRect8IsPackedEv, symObjAddr: 0xDC3C, symBinAddr: 0x1000B60D8, symSize: 0x28 }
  - { offsetInCU: 0x5849, offset: 0x63B11, size: 0x8, addend: 0x0, symName: __ZN11ImFontAtlas21GetMouseCursorTexDataEiP6ImVec2S1_S1_S1_, symObjAddr: 0xDC64, symBinAddr: 0x1000B6100, symSize: 0x280 }
  - { offsetInCU: 0x58EB, offset: 0x63BB3, size: 0x8, addend: 0x0, symName: __ZN11ImFontAtlas20GetCustomRectByIndexEi, symObjAddr: 0xDEE4, symBinAddr: 0x1000B6380, symSize: 0x70 }
  - { offsetInCU: 0x591F, offset: 0x63BE7, size: 0x8, addend: 0x0, symName: __ZmlRK6ImVec2S1_, symObjAddr: 0xDF54, symBinAddr: 0x1000B63F0, symSize: 0x58 }
  - { offsetInCU: 0x595D, offset: 0x63C25, size: 0x8, addend: 0x0, symName: __Z39ImFontAtlasBuildMultiplyCalcLookupTablePhf, symObjAddr: 0xDFC8, symBinAddr: 0x1000B6464, symSize: 0x98 }
  - { offsetInCU: 0x59D1, offset: 0x63C99, size: 0x8, addend: 0x0, symName: __Z34ImFontAtlasBuildMultiplyRectAlpha8PKhPhiiiii, symObjAddr: 0xE060, symBinAddr: 0x1000B64FC, symSize: 0xE8 }
  - { offsetInCU: 0x5A9F, offset: 0x63D67, size: 0x8, addend: 0x0, symName: __ZL31ImFontAtlasBuildWithStbTruetypeP11ImFontAtlas, symObjAddr: 0xE148, symBinAddr: 0x1000B65E4, symSize: 0x1674 }
  - { offsetInCU: 0x601B, offset: 0x642E3, size: 0x8, addend: 0x0, symName: __Z25ImFontAtlasBuildSetupFontP11ImFontAtlasP6ImFontP12ImFontConfigff, symObjAddr: 0xF7BC, symBinAddr: 0x1000B7C58, symSize: 0xA0 }
  - { offsetInCU: 0x6081, offset: 0x64349, size: 0x8, addend: 0x0, symName: __ZN6ImFont15ClearOutputDataEv, symObjAddr: 0xF85C, symBinAddr: 0x1000B7CF8, symSize: 0x74 }
  - { offsetInCU: 0x60A9, offset: 0x64371, size: 0x8, addend: 0x0, symName: __Z31ImFontAtlasBuildPackCustomRectsP11ImFontAtlasPv, symObjAddr: 0xF8D0, symBinAddr: 0x1000B7D6C, symSize: 0x43C }
  - { offsetInCU: 0x6589, offset: 0x64851, size: 0x8, addend: 0x0, symName: __ZN8ImVectorI10stbrp_rectEC1Ev, symObjAddr: 0xFD0C, symBinAddr: 0x1000B81A8, symSize: 0x2C }
  - { offsetInCU: 0x65B1, offset: 0x64879, size: 0x8, addend: 0x0, symName: __ZN8ImVectorI10stbrp_rectE6resizeEi, symObjAddr: 0xFD38, symBinAddr: 0x1000B81D4, symSize: 0x68 }
  - { offsetInCU: 0x65E5, offset: 0x648AD, size: 0x8, addend: 0x0, symName: __ZNK8ImVectorI10stbrp_rectE13size_in_bytesEv, symObjAddr: 0xFDA0, symBinAddr: 0x1000B823C, symSize: 0x20 }
  - { offsetInCU: 0x660A, offset: 0x648D2, size: 0x8, addend: 0x0, symName: __ZN8ImVectorI21ImFontAtlasCustomRectEixEi, symObjAddr: 0xFDC0, symBinAddr: 0x1000B825C, symSize: 0xA0 }
  - { offsetInCU: 0x663E, offset: 0x64906, size: 0x8, addend: 0x0, symName: __ZN8ImVectorI10stbrp_rectEixEi, symObjAddr: 0xFE60, symBinAddr: 0x1000B82FC, symSize: 0xA8 }
  - { offsetInCU: 0x6672, offset: 0x6493A, size: 0x8, addend: 0x0, symName: __ZL16stbrp_pack_rectsP13stbrp_contextP10stbrp_recti, symObjAddr: 0xFF08, symBinAddr: 0x1000B83A4, symSize: 0x308 }
  - { offsetInCU: 0x66FA, offset: 0x649C2, size: 0x8, addend: 0x0, symName: __ZN8ImVectorI10stbrp_rectED1Ev, symObjAddr: 0x10210, symBinAddr: 0x1000B86AC, symSize: 0x2C }
  - { offsetInCU: 0x6722, offset: 0x649EA, size: 0x8, addend: 0x0, symName: __Z40ImFontAtlasBuildRender8bppRectFromStringP11ImFontAtlasiiiiPKcch, symObjAddr: 0x1023C, symBinAddr: 0x1000B86D8, symSize: 0x214 }
  - { offsetInCU: 0x67FE, offset: 0x64AC6, size: 0x8, addend: 0x0, symName: __Z41ImFontAtlasBuildRender32bppRectFromStringP11ImFontAtlasiiiiPKccj, symObjAddr: 0x10450, symBinAddr: 0x1000B88EC, symSize: 0x214 }
  - { offsetInCU: 0x68DA, offset: 0x64BA2, size: 0x8, addend: 0x0, symName: __Z20ImFontAtlasBuildInitP11ImFontAtlas, symObjAddr: 0x10664, symBinAddr: 0x1000B8B00, symSize: 0xD8 }
  - { offsetInCU: 0x6904, offset: 0x64BCC, size: 0x8, addend: 0x0, symName: __Z22ImFontAtlasBuildFinishP11ImFontAtlas, symObjAddr: 0x1073C, symBinAddr: 0x1000B8BD8, symSize: 0x280 }
  - { offsetInCU: 0x69A3, offset: 0x64C6B, size: 0x8, addend: 0x0, symName: __ZL36ImFontAtlasBuildRenderDefaultTexDataP11ImFontAtlas, symObjAddr: 0x109BC, symBinAddr: 0x1000B8E58, symSize: 0x3C0 }
  - { offsetInCU: 0x6A35, offset: 0x64CFD, size: 0x8, addend: 0x0, symName: __ZL34ImFontAtlasBuildRenderLinesTexDataP11ImFontAtlas, symObjAddr: 0x10D7C, symBinAddr: 0x1000B9218, symSize: 0x4D0 }
  - { offsetInCU: 0x6BF0, offset: 0x64EB8, size: 0x8, addend: 0x0, symName: __ZN6ImFont8AddGlyphEPK12ImFontConfigtfffffffff, symObjAddr: 0x1124C, symBinAddr: 0x1000B96E8, symSize: 0x30C }
  - { offsetInCU: 0x6D15, offset: 0x64FDD, size: 0x8, addend: 0x0, symName: __ZN6ImFont16BuildLookupTableEv, symObjAddr: 0x11558, symBinAddr: 0x1000B99F4, symSize: 0x4DC }
  - { offsetInCU: 0x6E19, offset: 0x650E1, size: 0x8, addend: 0x0, symName: __ZL35UnpackAccumulativeOffsetsIntoRangesiPKsiPt, symObjAddr: 0x11ADC, symBinAddr: 0x1000B9F78, symSize: 0xA0 }
  - { offsetInCU: 0x6F6D, offset: 0x65235, size: 0x8, addend: 0x0, symName: __ZN24ImFontGlyphRangesBuilder7AddTextEPKcS1_, symObjAddr: 0x11C3C, symBinAddr: 0x1000BA0D8, symSize: 0xD8 }
  - { offsetInCU: 0x6FDF, offset: 0x652A7, size: 0x8, addend: 0x0, symName: __ZN24ImFontGlyphRangesBuilder7AddCharEt, symObjAddr: 0x11D14, symBinAddr: 0x1000BA1B0, symSize: 0x30 }
  - { offsetInCU: 0x7013, offset: 0x652DB, size: 0x8, addend: 0x0, symName: __ZN24ImFontGlyphRangesBuilder9AddRangesEPKt, symObjAddr: 0x11D44, symBinAddr: 0x1000BA1E0, symSize: 0xD0 }
  - { offsetInCU: 0x7067, offset: 0x6532F, size: 0x8, addend: 0x0, symName: __ZN24ImFontGlyphRangesBuilder11BuildRangesEP8ImVectorItE, symObjAddr: 0x11E14, symBinAddr: 0x1000BA2B0, symSize: 0x110 }
  - { offsetInCU: 0x70CA, offset: 0x65392, size: 0x8, addend: 0x0, symName: __ZNK24ImFontGlyphRangesBuilder6GetBitEm, symObjAddr: 0x11F24, symBinAddr: 0x1000BA3C0, symSize: 0x64 }
  - { offsetInCU: 0x711C, offset: 0x653E4, size: 0x8, addend: 0x0, symName: __ZN6ImFontC2Ev, symObjAddr: 0x12010, symBinAddr: 0x1000BA424, symSize: 0xD8 }
  - { offsetInCU: 0x7148, offset: 0x65410, size: 0x8, addend: 0x0, symName: __ZN8ImVectorI11ImFontGlyphEC1Ev, symObjAddr: 0x12140, symBinAddr: 0x1000BA4FC, symSize: 0x2C }
  - { offsetInCU: 0x7170, offset: 0x65438, size: 0x8, addend: 0x0, symName: __ZN6ImFontD2Ev, symObjAddr: 0x121C4, symBinAddr: 0x1000BA528, symSize: 0x54 }
  - { offsetInCU: 0x719C, offset: 0x65464, size: 0x8, addend: 0x0, symName: __ZN8ImVectorI11ImFontGlyphED1Ev, symObjAddr: 0x12218, symBinAddr: 0x1000BA57C, symSize: 0x2C }
  - { offsetInCU: 0x71C4, offset: 0x6548C, size: 0x8, addend: 0x0, symName: __ZN6ImFontD1Ev, symObjAddr: 0x12244, symBinAddr: 0x1000BA5A8, symSize: 0x2C }
  - { offsetInCU: 0x71F0, offset: 0x654B8, size: 0x8, addend: 0x0, symName: __ZN8ImVectorI11ImFontGlyphE5clearEv, symObjAddr: 0x12270, symBinAddr: 0x1000BA5D4, symSize: 0x58 }
  - { offsetInCU: 0x7215, offset: 0x654DD, size: 0x8, addend: 0x0, symName: __ZN8ImVectorI11ImFontGlyphEixEi, symObjAddr: 0x12320, symBinAddr: 0x1000BA62C, symSize: 0xA8 }
  - { offsetInCU: 0x7249, offset: 0x65511, size: 0x8, addend: 0x0, symName: __ZN6ImFont9GrowIndexEi, symObjAddr: 0x123C8, symBinAddr: 0x1000BA6D4, symSize: 0xBC }
  - { offsetInCU: 0x7280, offset: 0x65548, size: 0x8, addend: 0x0, symName: __ZNK6ImFont9FindGlyphEt, symObjAddr: 0x12524, symBinAddr: 0x1000BA790, symSize: 0xA8 }
  - { offsetInCU: 0x72C6, offset: 0x6558E, size: 0x8, addend: 0x0, symName: __ZN8ImVectorI11ImFontGlyphE4backEv, symObjAddr: 0x125CC, symBinAddr: 0x1000BA838, symSize: 0x74 }
  - { offsetInCU: 0x72EB, offset: 0x655B3, size: 0x8, addend: 0x0, symName: __ZN8ImVectorI11ImFontGlyphE6resizeEi, symObjAddr: 0x12640, symBinAddr: 0x1000BA8AC, symSize: 0x68 }
  - { offsetInCU: 0x731F, offset: 0x655E7, size: 0x8, addend: 0x0, symName: __ZN6ImFont15SetGlyphVisibleEtb, symObjAddr: 0x126A8, symBinAddr: 0x1000BA914, symSize: 0x80 }
  - { offsetInCU: 0x737A, offset: 0x65642, size: 0x8, addend: 0x0, symName: __ZL22FindFirstExistingGlyphP6ImFontPKti, symObjAddr: 0x12728, symBinAddr: 0x1000BA994, symSize: 0xA4 }
  - { offsetInCU: 0x73E4, offset: 0x656AC, size: 0x8, addend: 0x0, symName: __ZNK6ImFont19FindGlyphNoFallbackEt, symObjAddr: 0x127CC, symBinAddr: 0x1000BAA38, symSize: 0x98 }
  - { offsetInCU: 0x742A, offset: 0x656F2, size: 0x8, addend: 0x0, symName: __ZN6ImFont18IsGlyphRangeUnusedEjj, symObjAddr: 0x12864, symBinAddr: 0x1000BAAD0, symSize: 0xF4 }
  - { offsetInCU: 0x74AB, offset: 0x65773, size: 0x8, addend: 0x0, symName: __ZN8ImVectorIfE6resizeEiRKf, symObjAddr: 0x12958, symBinAddr: 0x1000BABC4, symSize: 0xE0 }
  - { offsetInCU: 0x750B, offset: 0x657D3, size: 0x8, addend: 0x0, symName: __ZN8ImVectorItE6resizeEiRKt, symObjAddr: 0x12A38, symBinAddr: 0x1000BACA4, symSize: 0xE4 }
  - { offsetInCU: 0x756B, offset: 0x65833, size: 0x8, addend: 0x0, symName: __ZL7ImFloorf, symObjAddr: 0x12B1C, symBinAddr: 0x1000BAD88, symSize: 0x1C }
  - { offsetInCU: 0x759A, offset: 0x65862, size: 0x8, addend: 0x0, symName: __ZN6ImFont12AddRemapCharEttb, symObjAddr: 0x12B38, symBinAddr: 0x1000BADA4, symSize: 0x1C8 }
  - { offsetInCU: 0x75FE, offset: 0x658C6, size: 0x8, addend: 0x0, symName: __ZNK6ImFont21CalcWordWrapPositionAEfPKcS1_f, symObjAddr: 0x12D00, symBinAddr: 0x1000BAF6C, symSize: 0x39C }
  - { offsetInCU: 0x7708, offset: 0x659D0, size: 0x8, addend: 0x0, symName: __ZL14ImCharIsBlankWj, symObjAddr: 0x1309C, symBinAddr: 0x1000BB308, symSize: 0x64 }
  - { offsetInCU: 0x7737, offset: 0x659FF, size: 0x8, addend: 0x0, symName: __ZNK6ImFont13CalcTextSizeAEfffPKcS1_PS1_, symObjAddr: 0x13100, symBinAddr: 0x1000BB36C, symSize: 0x428 }
  - { offsetInCU: 0x787D, offset: 0x65B45, size: 0x8, addend: 0x0, symName: __ZL14ImCharIsBlankAc, symObjAddr: 0x13528, symBinAddr: 0x1000BB794, symSize: 0x48 }
  - { offsetInCU: 0x78AC, offset: 0x65B74, size: 0x8, addend: 0x0, symName: __ZNK6ImFont10RenderCharEP10ImDrawListfRK6ImVec2jt, symObjAddr: 0x13570, symBinAddr: 0x1000BB7DC, symSize: 0x1E0 }
  - { offsetInCU: 0x795B, offset: 0x65C23, size: 0x8, addend: 0x0, symName: __ZpLR6ImVec2RKS_, symObjAddr: 0x13CB8, symBinAddr: 0x1000BBEF0, symSize: 0x48 }
  - { offsetInCU: 0x7999, offset: 0x65C61, size: 0x8, addend: 0x0, symName: __ZL6ImSwapIfEvRT_S1_, symObjAddr: 0x14550, symBinAddr: 0x1000BC788, symSize: 0x3C }
  - { offsetInCU: 0x79EB, offset: 0x65CB3, size: 0x8, addend: 0x0, symName: __ZL6ImLerpIfET_S0_S0_f, symObjAddr: 0x1458C, symBinAddr: 0x1000BC7C4, symSize: 0x30 }
  - { offsetInCU: 0x7A41, offset: 0x65D09, size: 0x8, addend: 0x0, symName: __ZL8ImAcos01f, symObjAddr: 0x145BC, symBinAddr: 0x1000BC7F4, symSize: 0x7C }
  - { offsetInCU: 0x7A70, offset: 0x65D38, size: 0x8, addend: 0x0, symName: __ZN9ImDrawCmdC2Ev, symObjAddr: 0x14FFC, symBinAddr: 0x1000BD17C, symSize: 0x3C }
  - { offsetInCU: 0x7A98, offset: 0x65D60, size: 0x8, addend: 0x0, symName: __ZN13ImDrawChannelC2Ev, symObjAddr: 0x15610, symBinAddr: 0x1000BD1B8, symSize: 0x60 }
  - { offsetInCU: 0x7AC4, offset: 0x65D8C, size: 0x8, addend: 0x0, symName: __ZL12Decode85Bytec, symObjAddr: 0x15670, symBinAddr: 0x1000BD218, symSize: 0x48 }
  - { offsetInCU: 0x7AF3, offset: 0x65DBB, size: 0x8, addend: 0x0, symName: __ZN21ImFontAtlasCustomRectC2Ev, symObjAddr: 0x156B8, symBinAddr: 0x1000BD260, symSize: 0x6C }
  - { offsetInCU: 0x7F59, offset: 0x66221, size: 0x8, addend: 0x0, symName: __ZN8ImVectorI18ImFontBuildSrcDataEC1Ev, symObjAddr: 0x15724, symBinAddr: 0x1000BD2CC, symSize: 0x2C }
  - { offsetInCU: 0x83BF, offset: 0x66687, size: 0x8, addend: 0x0, symName: __ZN8ImVectorI18ImFontBuildDstDataEC1Ev, symObjAddr: 0x15750, symBinAddr: 0x1000BD2F8, symSize: 0x2C }
  - { offsetInCU: 0x83E7, offset: 0x666AF, size: 0x8, addend: 0x0, symName: __ZN8ImVectorI18ImFontBuildSrcDataE6resizeEi, symObjAddr: 0x1577C, symBinAddr: 0x1000BD324, symSize: 0x68 }
  - { offsetInCU: 0x841B, offset: 0x666E3, size: 0x8, addend: 0x0, symName: __ZN8ImVectorI18ImFontBuildDstDataE6resizeEi, symObjAddr: 0x157E4, symBinAddr: 0x1000BD38C, symSize: 0x68 }
  - { offsetInCU: 0x844F, offset: 0x66717, size: 0x8, addend: 0x0, symName: __ZNK8ImVectorI18ImFontBuildSrcDataE13size_in_bytesEv, symObjAddr: 0x1584C, symBinAddr: 0x1000BD3F4, symSize: 0x20 }
  - { offsetInCU: 0x8474, offset: 0x6673C, size: 0x8, addend: 0x0, symName: __ZNK8ImVectorI18ImFontBuildDstDataE13size_in_bytesEv, symObjAddr: 0x1586C, symBinAddr: 0x1000BD414, symSize: 0x1C }
  - { offsetInCU: 0x8499, offset: 0x66761, size: 0x8, addend: 0x0, symName: __ZN8ImVectorI18ImFontBuildSrcDataEixEi, symObjAddr: 0x15888, symBinAddr: 0x1000BD430, symSize: 0xA8 }
  - { offsetInCU: 0x84CD, offset: 0x66795, size: 0x8, addend: 0x0, symName: __ZL27stbtt_GetFontOffsetForIndexPKhi, symObjAddr: 0x15954, symBinAddr: 0x1000BD4D8, symSize: 0x2C }
  - { offsetInCU: 0x850B, offset: 0x667D3, size: 0x8, addend: 0x0, symName: __ZL14stbtt_InitFontP14stbtt_fontinfoPKhi, symObjAddr: 0x15980, symBinAddr: 0x1000BD504, symSize: 0x34 }
  - { offsetInCU: 0x8558, offset: 0x66820, size: 0x8, addend: 0x0, symName: __ZN8ImVectorI18ImFontBuildDstDataEixEi, symObjAddr: 0x159B4, symBinAddr: 0x1000BD538, symSize: 0xA0 }
  - { offsetInCU: 0x858C, offset: 0x66854, size: 0x8, addend: 0x0, symName: __ZN11ImBitVector6CreateEi, symObjAddr: 0x15A54, symBinAddr: 0x1000BD5D8, symSize: 0x4C }
  - { offsetInCU: 0x85C0, offset: 0x66888, size: 0x8, addend: 0x0, symName: __ZNK8ImVectorIjE5emptyEv, symObjAddr: 0x15AA0, symBinAddr: 0x1000BD624, symSize: 0x24 }
  - { offsetInCU: 0x85E5, offset: 0x668AD, size: 0x8, addend: 0x0, symName: __ZNK11ImBitVector7TestBitEi, symObjAddr: 0x15AC4, symBinAddr: 0x1000BD648, symSize: 0x78 }
  - { offsetInCU: 0x8619, offset: 0x668E1, size: 0x8, addend: 0x0, symName: __ZL20stbtt_FindGlyphIndexPK14stbtt_fontinfoi, symObjAddr: 0x15B3C, symBinAddr: 0x1000BD6C0, symSize: 0x6DC }
  - { offsetInCU: 0x8830, offset: 0x66AF8, size: 0x8, addend: 0x0, symName: __ZN11ImBitVector6SetBitEi, symObjAddr: 0x16218, symBinAddr: 0x1000BDD9C, symSize: 0x74 }
  - { offsetInCU: 0x8864, offset: 0x66B2C, size: 0x8, addend: 0x0, symName: __ZL30UnpackBitVectorToFlatIndexListPK11ImBitVectorP8ImVectorIiE, symObjAddr: 0x16338, symBinAddr: 0x1000BDE10, symSize: 0x114 }
  - { offsetInCU: 0x890B, offset: 0x66BD3, size: 0x8, addend: 0x0, symName: __ZN11ImBitVector5ClearEv, symObjAddr: 0x1644C, symBinAddr: 0x1000BDF24, symSize: 0x24 }
  - { offsetInCU: 0x8930, offset: 0x66BF8, size: 0x8, addend: 0x0, symName: __ZN8ImVectorI18ImFontBuildDstDataE5clearEv, symObjAddr: 0x16470, symBinAddr: 0x1000BDF48, symSize: 0x58 }
  - { offsetInCU: 0x8D93, offset: 0x6705B, size: 0x8, addend: 0x0, symName: __ZN8ImVectorI16stbtt_packedcharEC1Ev, symObjAddr: 0x164C8, symBinAddr: 0x1000BDFA0, symSize: 0x2C }
  - { offsetInCU: 0x8DBB, offset: 0x67083, size: 0x8, addend: 0x0, symName: __ZN8ImVectorI16stbtt_packedcharE6resizeEi, symObjAddr: 0x164F4, symBinAddr: 0x1000BDFCC, symSize: 0x68 }
  - { offsetInCU: 0x8DEF, offset: 0x670B7, size: 0x8, addend: 0x0, symName: __ZNK8ImVectorI16stbtt_packedcharE13size_in_bytesEv, symObjAddr: 0x1655C, symBinAddr: 0x1000BE034, symSize: 0x20 }
  - { offsetInCU: 0x8E14, offset: 0x670DC, size: 0x8, addend: 0x0, symName: __ZN8ImVectorI16stbtt_packedcharEixEi, symObjAddr: 0x1657C, symBinAddr: 0x1000BE054, symSize: 0xA8 }
  - { offsetInCU: 0x8E48, offset: 0x67110, size: 0x8, addend: 0x0, symName: __ZL25stbtt_ScaleForPixelHeightPK14stbtt_fontinfof, symObjAddr: 0x16624, symBinAddr: 0x1000BE0FC, symSize: 0x7C }
  - { offsetInCU: 0x8E95, offset: 0x6715D, size: 0x8, addend: 0x0, symName: __ZL31stbtt_ScaleForMappingEmToPixelsPK14stbtt_fontinfof, symObjAddr: 0x166A0, symBinAddr: 0x1000BE178, symSize: 0x54 }
